
SimulateCDC.elf:     file format elf32-littleriscv
SimulateCDC.elf
architecture: riscv:rv32, flags 0x00000112:
EXEC_P, HAS_SYMS, D_PAGED
start address 0x00000000

Program Header:
    LOAD off    0x00001000 vaddr 0x00000000 paddr 0x00000000 align 2**12
         filesz 0x00004bb0 memsz 0x00004bb0 flags r-x
    LOAD off    0x00006000 vaddr 0x20000000 paddr 0x00004bb0 align 2**12
         filesz 0x00000120 memsz 0x000021cc flags rw-
    LOAD off    0x00006800 vaddr 0x20007800 paddr 0x20007800 align 2**12
         filesz 0x00000000 memsz 0x00000800 flags rw-

Sections:
Idx Name          Size      VMA       LMA       File off  Algn
  0 .init         00000038  00000000  00000000  00001000  2**1
                  CONTENTS, ALLOC, LOAD, READONLY, CODE
  1 .vector       000001c8  00000038  00000038  00001038  2**1
                  CONTENTS, ALLOC, LOAD, READONLY, CODE
  2 .text         000049b0  00000200  00000200  00001200  2**2
                  CONTENTS, ALLOC, LOAD, READONLY, CODE
  3 .fini         00000000  00004bb0  00004bb0  00006120  2**0
                  CONTENTS, ALLOC, LOAD, CODE
  4 .dalign       00000000  20000000  20000000  00006120  2**0
                  CONTENTS
  5 .dlalign      00000000  00004bb0  00004bb0  00006120  2**0
                  CONTENTS
  6 .data         00000120  20000000  00004bb0  00006000  2**2
                  CONTENTS, ALLOC, LOAD, DATA
  7 .bss          000020ac  20000120  00004cd0  00006120  2**2
                  ALLOC
  8 .stack        00000800  20007800  20007800  00006800  2**0
                  ALLOC
  9 .debug_info   000111a2  00000000  00000000  00006120  2**0
                  CONTENTS, READONLY, DEBUGGING
 10 .debug_abbrev 000025e8  00000000  00000000  000172c2  2**0
                  CONTENTS, READONLY, DEBUGGING
 11 .debug_aranges 00000918  00000000  00000000  000198b0  2**3
                  CONTENTS, READONLY, DEBUGGING
 12 .debug_ranges 00000828  00000000  00000000  0001a1c8  2**3
                  CONTENTS, READONLY, DEBUGGING
 13 .debug_line   00009ae1  00000000  00000000  0001a9f0  2**0
                  CONTENTS, READONLY, DEBUGGING
 14 .debug_str    00003710  00000000  00000000  000244d1  2**0
                  CONTENTS, READONLY, DEBUGGING
 15 .comment      00000033  00000000  00000000  00027be1  2**0
                  CONTENTS, READONLY
 16 .debug_frame  00002980  00000000  00000000  00027c14  2**2
                  CONTENTS, READONLY, DEBUGGING
 17 .stab         00000084  00000000  00000000  0002a594  2**2
                  CONTENTS, READONLY, DEBUGGING
 18 .stabstr      00000117  00000000  00000000  0002a618  2**0
                  CONTENTS, READONLY, DEBUGGING
SYMBOL TABLE:
00000000 l    d  .init	00000000 .init
00000038 l    d  .vector	00000000 .vector
00000200 l    d  .text	00000000 .text
00004bb0 l    d  .fini	00000000 .fini
20000000 l    d  .dalign	00000000 .dalign
00004bb0 l    d  .dlalign	00000000 .dlalign
20000000 l    d  .data	00000000 .data
20000120 l    d  .bss	00000000 .bss
20007800 l    d  .stack	00000000 .stack
00000000 l    d  .debug_info	00000000 .debug_info
00000000 l    d  .debug_abbrev	00000000 .debug_abbrev
00000000 l    d  .debug_aranges	00000000 .debug_aranges
00000000 l    d  .debug_ranges	00000000 .debug_ranges
00000000 l    d  .debug_line	00000000 .debug_line
00000000 l    d  .debug_str	00000000 .debug_str
00000000 l    d  .comment	00000000 .comment
00000000 l    d  .debug_frame	00000000 .debug_frame
00000000 l    d  .stab	00000000 .stab
00000000 l    d  .stabstr	00000000 .stabstr
00000000 l    df *ABS*	00000000 ./Startup/startup_ch32v30x_D8C.o
00000038 l       .vector	00000000 _vector_base
00000000 l    df *ABS*	00000000 ch32v30x_usbhs_device.c
000002a8 l     F .text	00000032 NVIC_EnableIRQ
000002da l     F .text	00000032 NVIC_DisableIRQ
00000000 l    df *ABS*	00000000 UART.c
0000135c l     F .text	00000032 NVIC_EnableIRQ
00000000 l    df *ABS*	00000000 cdc_func.c
000019a0 l     F .text	00000032 NVIC_EnableIRQ
000019d2 l     F .text	00000032 NVIC_DisableIRQ
00000000 l    df *ABS*	00000000 ch32v30x_it.c
2000013d l     O .bss	00000001 tog.5606
00000000 l    df *ABS*	00000000 main.c
00000000 l    df *ABS*	00000000 system_ch32v30x.c
00001e70 l     F .text	00000014 SetSysClock
00001e84 l     F .text	00000114 SetSysClockTo96_HSE
00000000 l    df *ABS*	00000000 ch32v30x_dbgmcu.c
00000000 l    df *ABS*	00000000 ch32v30x_dma.c
00000000 l    df *ABS*	00000000 ch32v30x_gpio.c
00000000 l    df *ABS*	00000000 ch32v30x_rcc.c
20000098 l     O .data	00000010 APBAHBPrescTable
2000010c l     O .data	00000004 ADCPrescTable
00000000 l    df *ABS*	00000000 ch32v30x_tim.c
00000000 l    df *ABS*	00000000 ch32v30x_usart.c
00000000 l    df *ABS*	00000000 debug.c
2000013e l     O .bss	00000001 p_us
20000140 l     O .bss	00000002 p_ms
20000110 l     O .data	00000004 curbrk.5218
00000000 l    df *ABS*	00000000 memcpy.c
00000000 l    df *ABS*	00000000 printf.c
00000000 l    df *ABS*	00000000 puts.c
00000000 l    df *ABS*	00000000 strcpy.c
00000000 l    df *ABS*	00000000 strlen.c
00000000 l    df *ABS*	00000000 wbuf.c
00000000 l    df *ABS*	00000000 wsetup.c
00000000 l    df *ABS*	00000000 fflush.c
00000000 l    df *ABS*	00000000 findfp.c
00003bbc l     F .text	00000066 std
00000000 l    df *ABS*	00000000 fwalk.c
00000000 l    df *ABS*	00000000 makebuf.c
00000000 l    df *ABS*	00000000 nano-mallocr.c
00000000 l    df *ABS*	00000000 nano-mallocr.c
00000000 l    df *ABS*	00000000 nano-vfprintf.c
00004042 l     F .text	00000028 __sfputc_r
00000000 l    df *ABS*	00000000 nano-vfprintf_i.c
00000000 l    df *ABS*	00000000 sbrkr.c
00000000 l    df *ABS*	00000000 stdio.c
00000000 l    df *ABS*	00000000 writer.c
00000000 l    df *ABS*	00000000 closer.c
00000000 l    df *ABS*	00000000 fstatr.c
00000000 l    df *ABS*	00000000 isattyr.c
00000000 l    df *ABS*	00000000 lseekr.c
00000000 l    df *ABS*	00000000 memchr.c
00000000 l    df *ABS*	00000000 mlock.c
00000000 l    df *ABS*	00000000 readr.c
00000000 l    df *ABS*	00000000 close.c
00000000 l    df *ABS*	00000000 fstat.c
00000000 l    df *ABS*	00000000 isatty.c
00000000 l    df *ABS*	00000000 lseek.c
00000000 l    df *ABS*	00000000 read.c
00000000 l    df *ABS*	00000000 usb_desc.c
00000000 l    df *ABS*	00000000 impure.c
200000a8 l     O .data	00000060 impure_data
00000000 l    df *ABS*	00000000 reent.c
00001fb6  w      .text	00000000 EXTI2_IRQHandler
00002000  w      .text	00000000 TIM8_TRG_COM_IRQHandler
00002002  w      .text	00000000 TIM8_CC_IRQHandler
00004852 g     F .text	00000030 _isatty_r
00004af0 g     O .text	00000016 MySerNumInfo
0000384e g     F .text	00000010 strcpy
00003770 g     F .text	000000d4 _puts_r
00004882 g     F .text	00000034 _lseek_r
000024b6 g     F .text	00000040 DMA_Cmd
00002038  w      .text	00000000 UART8_IRQHandler
20000120 g     O .bss	00000004 pUSBHS_Descr
00003730 g     F .text	00000040 printf
20000908 g       .data	00000000 __global_pointer$
00001fdc  w      .text	00000000 TIM1_CC_IRQHandler
00004784 g     F .text	00000030 __sseek
00003c72 g     F .text	00000066 __sinit
00003870 g     F .text	000000bc __swbuf_r
00001b5a g     F .text	00000012 HardFault_Handler
200009c8 g     O .bss	00000800 UART2_Rx_Buf
00003c2c g     F .text	00000046 __sfmoreglue
000048d0 g     F .text	00000002 __malloc_unlock
00002012  w      .text	00000000 TIM6_IRQHandler
00001fa2  w      .text	00000000 SysTick_Handler
00001fa8  w      .text	00000000 PVD_IRQHandler
00002008  w      .text	00000000 SDIO_IRQHandler
0000203a  w      .text	00000000 TIM9_BRK_IRQHandler
0000204e  w      .text	00000000 DMA2_Channel8_IRQHandler
00001aa0 g     F .text	00000010 NMI_Handler
00002cda g     F .text	00000040 RCC_USBHSPHYPLLALIVEcmd
00002028  w      .text	00000000 CAN2_RX1_IRQHandler
00001fb8  w      .text	00000000 EXTI3_IRQHandler
000020e4 g     F .text	00000018 DBGMCU_GetCHIPID
00000532 g     F .text	00000e2a USBHS_IRQHandler
20000130 g     O .bss	00000001 USBHS_DevSpeed
000033f0 g     F .text	00000044 USART_GetFlagStatus
00002050  w      .text	00000000 DMA2_Channel9_IRQHandler
00004820 g     F .text	00000032 _fstat_r
00002048  w      .text	00000000 TIM10_CC_IRQHandler
200021c8 g     O .bss	00000004 errno
20000000 g     O .data	00000043 TAB_USB_FS_OSC_DESC
20000120 g       .bss	00000000 _sbss
00000800 g       *ABS*	00000000 __stack_size
0000352a g     F .text	00000084 USART_Printf_Init
0000240e g     F .text	000000a8 DMA_Init
00002d1a g     F .text	0000003e RCC_USBCLK48MConfig
2000014c g     O .bss	00000040 USBHS_EP0_Buf
00004a2c g     O .text	00000012 MyDevDescr
0000367e g     F .text	000000b2 memcpy
00003c22 g     F .text	0000000a _cleanup_r
00001fb2  w      .text	00000000 EXTI0_IRQHandler
00001fe8  w      .text	00000000 I2C2_EV_IRQHandler
00002046  w      .text	00000000 TIM10_TRG_COM_IRQHandler
00003008 g     F .text	00000050 TIM_Cmd
00003844 g     F .text	0000000a puts
20000108 g     O .data	00000004 SystemCoreClock
2000012c g     O .bss	00000001 USBHS_DevConfig
000030c0 g     F .text	0000002c TIM_ClearFlag
20000044 g     O .data	00000043 TAB_USB_HS_OSC_DESC
00004916 g     F .text	00000010 _fstat
00000038 g       .init	00000000 _einit
00002c62 g     F .text	0000003c RCC_USBHSPLLCLKConfig
000016f8 g     F .text	00000136 UART2_DMAInit
20000125 g     O .bss	00000001 USBHS_SetupReqType
00002b0e g     F .text	00000046 RCC_APB2PeriphClockCmd
0000202a  w      .text	00000000 CAN2_SCE_IRQHandler
00001fca  w      .text	00000000 ADC1_2_IRQHandler
000024f6 g     F .text	00000222 GPIO_Init
00001fa0  w      .text	00000000 Break_Point_Handler
00001fec  w      .text	00000000 SPI1_IRQHandler
00003304 g     F .text	00000058 USART_Cmd
000046de g     F .text	00000032 _sbrk_r
0000182e g     F .text	000000a0 UART2_Init
00001faa  w      .text	00000000 TAMPER_IRQHandler
20000118 g     O .data	00000004 MyLangDescr
000048d2 g     F .text	00000034 _read_r
00002026  w      .text	00000000 CAN2_RX0_IRQHandler
00001ffe  w      .text	00000000 TIM8_UP_IRQHandler
00002d58 g     F .text	00000148 TIM_DeInit
00002b54 g     F .text	00000046 RCC_APB1PeriphClockCmd
00001f9c  w      .text	00000000 Ecall_M_Mode_Handler
20000134 g     O .bss	00000004 UARTx_Rx_DMACurCount
20007800 g       .stack	00000000 _heap_end
00004926 g     F .text	00000010 _isatty
000034a6 g     F .text	00000084 Delay_Us
2000011c g     O .data	00000004 _global_impure_ptr
200019c8 g     O .bss	00000800 USB_rx_Buf
00002018  w      .text	00000000 DMA2_Channel2_IRQHandler
00002ac8 g     F .text	00000046 RCC_AHBPeriphClockCmd
00001fc2  w      .text	00000000 DMA1_Channel4_IRQHandler
2000013c g     O .bss	00000001 usb_rx_flg1
00003620 g     F .text	0000005e _sbrk
00004ac8 g     O .text	0000000e MyManuInfo
20000126 g     O .bss	00000002 USBHS_SetupReqValue
20000128 g     O .bss	00000002 USBHS_SetupReqIndex
2000012d g     O .bss	00000001 USBHS_DevAddr
0000203c  w      .text	00000000 TIM9_UP_IRQHandler
00001ff4  w      .text	00000000 USART3_IRQHandler
00001fac  w      .text	00000000 RTC_IRQHandler
200021cc g       .bss	00000000 _ebss
00001fc8  w      .text	00000000 DMA1_Channel7_IRQHandler
00002c9e g     F .text	0000003c RCC_USBHSPLLCKREFCLKConfig
00001fd0  w      .text	00000000 CAN1_RX1_IRQHandler
00003460 g     F .text	00000046 Delay_Init
00002032  w      .text	00000000 DVP_IRQHandler
00002010  w      .text	00000000 UART5_IRQHandler
00002718 g     F .text	00000022 GPIO_SetBits
00001fe2  w      .text	00000000 TIM4_IRQHandler
00002016  w      .text	00000000 DMA2_Channel1_IRQHandler
00004b14 g     O .text	00000020 __sf_fake_stderr
00001fe4  w      .text	00000000 I2C1_EV_IRQHandler
0000030c g     F .text	0000003c USBHS_RCC_Init
0000273a g     F .text	0000038e RCC_GetClocksFreq
00001fc6  w      .text	00000000 DMA1_Channel6_IRQHandler
0000406a g     F .text	00000040 __sfputs_r
0000200e  w      .text	00000000 UART4_IRQHandler
0000201c  w      .text	00000000 DMA2_Channel4_IRQHandler
000048b6 g     F .text	00000018 memchr
000030ec g     F .text	00000218 USART_Init
00003ec6 g     F .text	000000a8 _free_r
00001fe0  w      .text	00000000 TIM3_IRQHandler
00001fb0  w      .text	00000000 RCC_IRQHandler
2000059c g     O .bss	0000002a Uart
20000124 g     O .bss	00000001 USBHS_SetupReqCode
00004b08 g     O .text	0000000a MyQuaDesc
00001fda  w      .text	00000000 TIM1_TRG_COM_IRQHandler
00001fbc  w      .text	00000000 DMA1_Channel1_IRQHandler
00000000 g       .init	00000000 _start
0000204c  w      .text	00000000 DMA2_Channel7_IRQHandler
20000088 g     O .data	00000010 AHBPrescTable
00004936 g     F .text	00000010 _lseek
00001ff6  w      .text	00000000 EXTI15_10_IRQHandler
00003058 g     F .text	00000068 TIM_ITConfig
00002c26 g     F .text	0000003c RCC_USBHSConfig
2000018c g     O .bss	00000200 USBHS_EP2_Tx_Buf
00002014  w      .text	00000000 TIM7_IRQHandler
000047f0 g     F .text	00000030 _close_r
00002024  w      .text	00000000 CAN2_TX_IRQHandler
20000000 g       .dalign	00000000 _data_vma
0000200a  w      .text	00000000 TIM5_IRQHandler
00004a84 g     O .text	00000043 MyCfgDescr_HS
00000470 g     F .text	000000c2 USBHS_Device_Init
0000392c g     F .text	000000fc __swsetup_r
00001fd4  w      .text	00000000 EXTI9_5_IRQHandler
00003cd8 g     F .text	0000009c __sfp
00004710 g     F .text	0000002c __sread
00002022  w      .text	00000000 ETH_WKUP_IRQHandler
000048ce g     F .text	00000002 __malloc_lock
00003b58 g     F .text	00000064 _fflush_r
00001fee  w      .text	00000000 SPI2_IRQHandler
2000012e g     O .bss	00000002 USBHS_DevMaxPackLen
00004b34 g     O .text	00000020 __sf_fake_stdin
000015f0 g     F .text	00000108 UART2_ParaInit
00000200 g     F .text	000000a8 memset
00001b6c g     F .text	0000009e main
00002042  w      .text	00000000 TIM10_BRK_IRQHandler
000018ce g     F .text	000000d2 UART2_USB_Init
00002040  w      .text	00000000 TIM9_CC_IRQHandler
000047b4 g     F .text	00000006 __sclose
0000201e  w      .text	00000000 DMA2_Channel5_IRQHandler
00003f6e g     F .text	000000d4 _malloc_r
00001fc4  w      .text	00000000 DMA1_Channel5_IRQHandler
00001fba  w      .text	00000000 EXTI4_IRQHandler
00001fce  w      .text	00000000 USB_LP_CAN1_RX0_IRQHandler
00004ad8 g     O .text	00000016 MyProdInfo
00003434 g     F .text	0000002c USART_ClearFlag
00004a40 g     O .text	00000043 MyCfgDescr_FS
00001c0a g     F .text	00000098 SystemInit
00002004  w      .text	00000000 RNG_IRQHandler
2000012a g     O .bss	00000002 USBHS_SetupReqLen
00003730 g     F .text	00000040 iprintf
0000138e g     F .text	00000036 RCC_Configuration
20000131 g     O .bss	00000001 USBHS_DevSleepStatus
00001fcc  w      .text	00000000 USB_HP_CAN1_TX_IRQHandler
00000000 g       .init	00000000 _sinit
000047ba g     F .text	00000036 _write_r
00001fc0  w      .text	00000000 DMA1_Channel3_IRQHandler
00002006  w      .text	00000000 FSMC_IRQHandler
00002020  w      .text	00000000 ETH_IRQHandler
00004330 g     F .text	0000010c _printf_common
20000114 g     O .data	00000004 _impure_ptr
00001fd8  w      .text	00000000 TIM1_UP_IRQHandler
00003a28 g     F .text	00000130 __sflush_r
2000038c g     O .bss	00000200 USBHS_EP3_Tx_Buf
00001fa6  w      .text	00000000 WWDG_IRQHandler
0000202e  w      .text	00000000 USBHSWakeup_IRQHandler
00002054  w      .text	00000000 DMA2_Channel11_IRQHandler
00002be0 g     F .text	00000046 RCC_APB1PeriphResetCmd
00001f9e  w      .text	00000000 Ecall_U_Mode_Handler
0000204a  w      .text	00000000 DMA2_Channel6_IRQHandler
00001ab0 g     F .text	000000aa TIM2_IRQHandler
20008000 g       .stack	00000000 _eusrstack
00001fa4  w      .text	00000000 SW_Handler
00001fd6  w      .text	00000000 TIM1_BRK_IRQHandler
00003dde g     F .text	00000058 __swhatbuf_r
000033c4 g     F .text	0000002c USART_SendData
00002052  w      .text	00000000 DMA2_Channel10_IRQHandler
00001fb4  w      .text	00000000 EXTI1_IRQHandler
000035ae g     F .text	00000072 _write
20000120 g       .data	00000000 _edata
200021cc g       .bss	00000000 _end
00002ea0 g     F .text	00000168 TIM_TimeBaseInit
00001ff8  w      .text	00000000 RTCAlarm_IRQHandler
00000348 g     F .text	00000128 USBHS_Device_Endp_Init
200005c8 g     O .bss	00000400 UART2_Tx_Buf
00004bb0 g       .dlalign	00000000 _data_lma
00002044  w      .text	00000000 TIM10_UP_IRQHandler
0000203e  w      .text	00000000 TIM9_TRG_COM_IRQHandler
00002036  w      .text	00000000 UART7_IRQHandler
00001ff2  w      .text	00000000 USART2_IRQHandler
00002034  w      .text	00000000 UART6_IRQHandler
0000473c g     F .text	00000048 __swrite
00001a04 g     F .text	0000009c usb_send
000040aa g     F .text	00000286 _vfiprintf_r
00003d74 g     F .text	0000006a _fwalk_reent
00001ca2 g     F .text	000001ce SystemCoreClockUpdate
00001fea  w      .text	00000000 I2C2_ER_IRQHandler
00001fbe  w      .text	00000000 DMA1_Channel2_IRQHandler
00004b54 g     O .text	00000020 __sf_fake_stdout
20000138 g     O .bss	00000004 UARTx_Rx_DMALastCount
00001ffc  w      .text	00000000 TIM8_BRK_IRQHandler
00004946 g     F .text	00000010 _read
00002056  w      .text	00000000 handle_reset
00001fd2  w      .text	00000000 CAN1_SCE_IRQHandler
00001fae  w      .text	00000000 FLASH_IRQHandler
200011c8 g     O .bss	00000800 USB_tx_Buf
000013c4 g     F .text	0000008c TIM2_Init
00001ff0  w      .text	00000000 USART1_IRQHandler
00003e36 g     F .text	00000090 __smakebuf_r
0000385e g     F .text	00000012 strlen
0000202c  w      .text	00000000 OTG_FS_IRQHandler
0000443c g     F .text	000002a2 _printf_i
0000200c  w      .text	00000000 SPI3_IRQHandler
20000148 g     O .bss	00000004 __malloc_sbrk_start
00002b9a g     F .text	00000046 RCC_APB2PeriphResetCmd
00001fe6  w      .text	00000000 I2C1_ER_IRQHandler
000020fc g     F .text	00000312 DMA_DeInit
20000132 g     O .bss	00000001 USBHS_DevEnumStatus
00001450 g     F .text	000001a0 UART2_CfgInit
20000144 g     O .bss	00000004 __malloc_free_list
2000058c g     O .bss	00000010 USBHS_Endp_Busy
000040aa g     F .text	00000286 _vfprintf_r
0000335c g     F .text	00000068 USART_DMACmd
00001ffa  w      .text	00000000 USBWakeUp_IRQHandler
00004906 g     F .text	00000010 _close
0000201a  w      .text	00000000 DMA2_Channel3_IRQHandler



Disassembly of section .init:

00000000 <_sinit>:
   0:	0560206f          	j	2056 <handle_reset>
   4:	00000013          	nop
   8:	00000013          	nop
   c:	00000013          	nop
  10:	00000013          	nop
  14:	00000013          	nop
  18:	00000013          	nop
  1c:	00000013          	nop
  20:	00000013          	nop
  24:	00000013          	nop
  28:	00000013          	nop
  2c:	00000013          	nop
  30:	00000013          	nop
  34:	00100073          	ebreak

Disassembly of section .vector:

00000038 <_vector_base>:
	...
  40:	1aa0                	addi	s0,sp,376
  42:	0000                	unimp
  44:	1b5a                	slli	s6,s6,0x36
  46:	0000                	unimp
  48:	0000                	unimp
  4a:	0000                	unimp
  4c:	1f9c                	addi	a5,sp,1008
	...
  56:	0000                	unimp
  58:	1f9e                	slli	t6,t6,0x27
  5a:	0000                	unimp
  5c:	1fa0                	addi	s0,sp,1016
	...
  66:	0000                	unimp
  68:	1fa2                	slli	t6,t6,0x28
  6a:	0000                	unimp
  6c:	0000                	unimp
  6e:	0000                	unimp
  70:	1fa4                	addi	s1,sp,1016
  72:	0000                	unimp
  74:	0000                	unimp
  76:	0000                	unimp
  78:	1fa6                	slli	t6,t6,0x29
  7a:	0000                	unimp
  7c:	1fa8                	addi	a0,sp,1016
  7e:	0000                	unimp
  80:	1faa                	slli	t6,t6,0x2a
  82:	0000                	unimp
  84:	1fac                	addi	a1,sp,1016
  86:	0000                	unimp
  88:	1fae                	slli	t6,t6,0x2b
  8a:	0000                	unimp
  8c:	1fb0                	addi	a2,sp,1016
  8e:	0000                	unimp
  90:	1fb2                	slli	t6,t6,0x2c
  92:	0000                	unimp
  94:	1fb4                	addi	a3,sp,1016
  96:	0000                	unimp
  98:	1fb6                	slli	t6,t6,0x2d
  9a:	0000                	unimp
  9c:	1fb8                	addi	a4,sp,1016
  9e:	0000                	unimp
  a0:	1fba                	slli	t6,t6,0x2e
  a2:	0000                	unimp
  a4:	1fbc                	addi	a5,sp,1016
  a6:	0000                	unimp
  a8:	1fbe                	slli	t6,t6,0x2f
  aa:	0000                	unimp
  ac:	1fc0                	addi	s0,sp,1012
  ae:	0000                	unimp
  b0:	1fc2                	slli	t6,t6,0x30
  b2:	0000                	unimp
  b4:	1fc4                	addi	s1,sp,1012
  b6:	0000                	unimp
  b8:	1fc6                	slli	t6,t6,0x31
  ba:	0000                	unimp
  bc:	1fc8                	addi	a0,sp,1012
  be:	0000                	unimp
  c0:	1fca                	slli	t6,t6,0x32
  c2:	0000                	unimp
  c4:	1fcc                	addi	a1,sp,1012
  c6:	0000                	unimp
  c8:	1fce                	slli	t6,t6,0x33
  ca:	0000                	unimp
  cc:	1fd0                	addi	a2,sp,1012
  ce:	0000                	unimp
  d0:	1fd2                	slli	t6,t6,0x34
  d2:	0000                	unimp
  d4:	1fd4                	addi	a3,sp,1012
  d6:	0000                	unimp
  d8:	1fd6                	slli	t6,t6,0x35
  da:	0000                	unimp
  dc:	1fd8                	addi	a4,sp,1012
  de:	0000                	unimp
  e0:	1fda                	slli	t6,t6,0x36
  e2:	0000                	unimp
  e4:	1fdc                	addi	a5,sp,1012
  e6:	0000                	unimp
  e8:	1ab0                	addi	a2,sp,376
  ea:	0000                	unimp
  ec:	1fe0                	addi	s0,sp,1020
  ee:	0000                	unimp
  f0:	1fe2                	slli	t6,t6,0x38
  f2:	0000                	unimp
  f4:	1fe4                	addi	s1,sp,1020
  f6:	0000                	unimp
  f8:	1fe6                	slli	t6,t6,0x39
  fa:	0000                	unimp
  fc:	1fe8                	addi	a0,sp,1020
  fe:	0000                	unimp
 100:	1fea                	slli	t6,t6,0x3a
 102:	0000                	unimp
 104:	1fec                	addi	a1,sp,1020
 106:	0000                	unimp
 108:	1fee                	slli	t6,t6,0x3b
 10a:	0000                	unimp
 10c:	1ff0                	addi	a2,sp,1020
 10e:	0000                	unimp
 110:	1ff2                	slli	t6,t6,0x3c
 112:	0000                	unimp
 114:	1ff4                	addi	a3,sp,1020
 116:	0000                	unimp
 118:	1ff6                	slli	t6,t6,0x3d
 11a:	0000                	unimp
 11c:	1ff8                	addi	a4,sp,1020
 11e:	0000                	unimp
 120:	1ffa                	slli	t6,t6,0x3e
 122:	0000                	unimp
 124:	1ffc                	addi	a5,sp,1020
 126:	0000                	unimp
 128:	1ffe                	slli	t6,t6,0x3f
 12a:	0000                	unimp
 12c:	2000                	lbu	s0,0(s0)
 12e:	0000                	unimp
 130:	2002                	lhu	s0,0(s0)
 132:	0000                	unimp
 134:	2004                	lbu	s1,0(s0)
 136:	0000                	unimp
 138:	2006                	lhu	s1,0(s0)
 13a:	0000                	unimp
 13c:	2008                	lbu	a0,0(s0)
 13e:	0000                	unimp
 140:	200a                	lhu	a0,0(s0)
 142:	0000                	unimp
 144:	200c                	lbu	a1,0(s0)
 146:	0000                	unimp
 148:	200e                	lhu	a1,0(s0)
 14a:	0000                	unimp
 14c:	2010                	lbu	a2,0(s0)
 14e:	0000                	unimp
 150:	2012                	lhu	a2,0(s0)
 152:	0000                	unimp
 154:	2014                	lbu	a3,0(s0)
 156:	0000                	unimp
 158:	2016                	lhu	a3,0(s0)
 15a:	0000                	unimp
 15c:	2018                	lbu	a4,0(s0)
 15e:	0000                	unimp
 160:	201a                	lhu	a4,0(s0)
 162:	0000                	unimp
 164:	201c                	lbu	a5,0(s0)
 166:	0000                	unimp
 168:	201e                	lhu	a5,0(s0)
 16a:	0000                	unimp
 16c:	2020                	lbu	s0,2(s0)
 16e:	0000                	unimp
 170:	2022                	lhu	s0,2(s0)
 172:	0000                	unimp
 174:	2024                	lbu	s1,2(s0)
 176:	0000                	unimp
 178:	2026                	lhu	s1,2(s0)
 17a:	0000                	unimp
 17c:	2028                	lbu	a0,2(s0)
 17e:	0000                	unimp
 180:	202a                	lhu	a0,2(s0)
 182:	0000                	unimp
 184:	202c                	lbu	a1,2(s0)
 186:	0000                	unimp
 188:	202e                	lhu	a1,2(s0)
 18a:	0000                	unimp
 18c:	0532                	slli	a0,a0,0xc
 18e:	0000                	unimp
 190:	2032                	lhu	a2,2(s0)
 192:	0000                	unimp
 194:	2034                	lbu	a3,2(s0)
 196:	0000                	unimp
 198:	2036                	lhu	a3,2(s0)
 19a:	0000                	unimp
 19c:	2038                	lbu	a4,2(s0)
 19e:	0000                	unimp
 1a0:	203a                	lhu	a4,2(s0)
 1a2:	0000                	unimp
 1a4:	203c                	lbu	a5,2(s0)
 1a6:	0000                	unimp
 1a8:	203e                	lhu	a5,2(s0)
 1aa:	0000                	unimp
 1ac:	2040                	lbu	s0,4(s0)
 1ae:	0000                	unimp
 1b0:	2042                	lhu	s0,4(s0)
 1b2:	0000                	unimp
 1b4:	2044                	lbu	s1,4(s0)
 1b6:	0000                	unimp
 1b8:	2046                	lhu	s1,4(s0)
 1ba:	0000                	unimp
 1bc:	2048                	lbu	a0,4(s0)
 1be:	0000                	unimp
 1c0:	204a                	lhu	a0,4(s0)
 1c2:	0000                	unimp
 1c4:	204c                	lbu	a1,4(s0)
 1c6:	0000                	unimp
 1c8:	204e                	lhu	a1,4(s0)
 1ca:	0000                	unimp
 1cc:	2050                	lbu	a2,4(s0)
 1ce:	0000                	unimp
 1d0:	2052                	lhu	a2,4(s0)
 1d2:	0000                	unimp
 1d4:	2054                	lbu	a3,4(s0)
	...

Disassembly of section .text:

00000200 <memset>:
     200:	433d                	li	t1,15
     202:	872a                	mv	a4,a0
     204:	02c37363          	bgeu	t1,a2,22a <memset+0x2a>
     208:	00f77793          	andi	a5,a4,15
     20c:	efbd                	bnez	a5,28a <memset+0x8a>
     20e:	e5ad                	bnez	a1,278 <memset+0x78>
     210:	ff067693          	andi	a3,a2,-16
     214:	8a3d                	andi	a2,a2,15
     216:	96ba                	add	a3,a3,a4
     218:	c30c                	sw	a1,0(a4)
     21a:	c34c                	sw	a1,4(a4)
     21c:	c70c                	sw	a1,8(a4)
     21e:	c74c                	sw	a1,12(a4)
     220:	0741                	addi	a4,a4,16
     222:	fed76be3          	bltu	a4,a3,218 <memset+0x18>
     226:	e211                	bnez	a2,22a <memset+0x2a>
     228:	8082                	ret
     22a:	40c306b3          	sub	a3,t1,a2
     22e:	068a                	slli	a3,a3,0x2
     230:	00000297          	auipc	t0,0x0
     234:	9696                	add	a3,a3,t0
     236:	00a68067          	jr	10(a3)
     23a:	00b70723          	sb	a1,14(a4)
     23e:	00b706a3          	sb	a1,13(a4)
     242:	00b70623          	sb	a1,12(a4)
     246:	00b705a3          	sb	a1,11(a4)
     24a:	00b70523          	sb	a1,10(a4)
     24e:	00b704a3          	sb	a1,9(a4)
     252:	00b70423          	sb	a1,8(a4)
     256:	00b703a3          	sb	a1,7(a4)
     25a:	00b70323          	sb	a1,6(a4)
     25e:	00b702a3          	sb	a1,5(a4)
     262:	00b70223          	sb	a1,4(a4)
     266:	00b701a3          	sb	a1,3(a4)
     26a:	00b70123          	sb	a1,2(a4)
     26e:	00b700a3          	sb	a1,1(a4)
     272:	00b70023          	sb	a1,0(a4)
     276:	8082                	ret
     278:	0ff5f593          	andi	a1,a1,255
     27c:	00859693          	slli	a3,a1,0x8
     280:	8dd5                	or	a1,a1,a3
     282:	01059693          	slli	a3,a1,0x10
     286:	8dd5                	or	a1,a1,a3
     288:	b761                	j	210 <memset+0x10>
     28a:	00279693          	slli	a3,a5,0x2
     28e:	00000297          	auipc	t0,0x0
     292:	9696                	add	a3,a3,t0
     294:	8286                	mv	t0,ra
     296:	fa8680e7          	jalr	-88(a3)
     29a:	8096                	mv	ra,t0
     29c:	17c1                	addi	a5,a5,-16
     29e:	8f1d                	sub	a4,a4,a5
     2a0:	963e                	add	a2,a2,a5
     2a2:	f8c374e3          	bgeu	t1,a2,22a <memset+0x2a>
     2a6:	b7a5                	j	20e <memset+0xe>

000002a8 <NVIC_EnableIRQ>:
     2a8:	1101                	addi	sp,sp,-32
     2aa:	ce22                	sw	s0,28(sp)
     2ac:	1000                	addi	s0,sp,32
     2ae:	fea42623          	sw	a0,-20(s0)
     2b2:	fec42783          	lw	a5,-20(s0)
     2b6:	8bfd                	andi	a5,a5,31
     2b8:	4705                	li	a4,1
     2ba:	00f716b3          	sll	a3,a4,a5
     2be:	e000e737          	lui	a4,0xe000e
     2c2:	fec42783          	lw	a5,-20(s0)
     2c6:	8395                	srli	a5,a5,0x5
     2c8:	04078793          	addi	a5,a5,64
     2cc:	078a                	slli	a5,a5,0x2
     2ce:	97ba                	add	a5,a5,a4
     2d0:	c394                	sw	a3,0(a5)
     2d2:	0001                	nop
     2d4:	4472                	lw	s0,28(sp)
     2d6:	6105                	addi	sp,sp,32
     2d8:	8082                	ret

000002da <NVIC_DisableIRQ>:
     2da:	1101                	addi	sp,sp,-32
     2dc:	ce22                	sw	s0,28(sp)
     2de:	1000                	addi	s0,sp,32
     2e0:	fea42623          	sw	a0,-20(s0)
     2e4:	fec42783          	lw	a5,-20(s0)
     2e8:	8bfd                	andi	a5,a5,31
     2ea:	4705                	li	a4,1
     2ec:	00f716b3          	sll	a3,a4,a5
     2f0:	e000e737          	lui	a4,0xe000e
     2f4:	fec42783          	lw	a5,-20(s0)
     2f8:	8395                	srli	a5,a5,0x5
     2fa:	06078793          	addi	a5,a5,96
     2fe:	078a                	slli	a5,a5,0x2
     300:	97ba                	add	a5,a5,a4
     302:	c394                	sw	a3,0(a5)
     304:	0001                	nop
     306:	4472                	lw	s0,28(sp)
     308:	6105                	addi	sp,sp,32
     30a:	8082                	ret

0000030c <USBHS_RCC_Init>:
     30c:	1141                	addi	sp,sp,-16
     30e:	c606                	sw	ra,12(sp)
     310:	c422                	sw	s0,8(sp)
     312:	0800                	addi	s0,sp,16
     314:	4505                	li	a0,1
     316:	205020ef          	jal	ra,2d1a <RCC_USBCLK48MConfig>
     31a:	4501                	li	a0,0
     31c:	147020ef          	jal	ra,2c62 <RCC_USBHSPLLCLKConfig>
     320:	4505                	li	a0,1
     322:	105020ef          	jal	ra,2c26 <RCC_USBHSConfig>
     326:	4505                	li	a0,1
     328:	177020ef          	jal	ra,2c9e <RCC_USBHSPLLCKREFCLKConfig>
     32c:	4505                	li	a0,1
     32e:	1ad020ef          	jal	ra,2cda <RCC_USBHSPHYPLLALIVEcmd>
     332:	4585                	li	a1,1
     334:	6785                	lui	a5,0x1
     336:	80078513          	addi	a0,a5,-2048 # 800 <__stack_size>
     33a:	78e020ef          	jal	ra,2ac8 <RCC_AHBPeriphClockCmd>
     33e:	0001                	nop
     340:	40b2                	lw	ra,12(sp)
     342:	4422                	lw	s0,8(sp)
     344:	0141                	addi	sp,sp,16
     346:	8082                	ret

00000348 <USBHS_Device_Endp_Init>:
     348:	1101                	addi	sp,sp,-32
     34a:	ce22                	sw	s0,28(sp)
     34c:	1000                	addi	s0,sp,32
     34e:	400237b7          	lui	a5,0x40023
     352:	40078793          	addi	a5,a5,1024 # 40023400 <_eusrstack+0x2001b400>
     356:	000c0737          	lui	a4,0xc0
     35a:	0731                	addi	a4,a4,12
     35c:	cb98                	sw	a4,16(a5)
     35e:	400237b7          	lui	a5,0x40023
     362:	40078793          	addi	a5,a5,1024 # 40023400 <_eusrstack+0x2001b400>
     366:	04000713          	li	a4,64
     36a:	08e79c23          	sh	a4,152(a5)
     36e:	400237b7          	lui	a5,0x40023
     372:	40078793          	addi	a5,a5,1024 # 40023400 <_eusrstack+0x2001b400>
     376:	20000713          	li	a4,512
     37a:	0ae79023          	sh	a4,160(a5)
     37e:	400237b7          	lui	a5,0x40023
     382:	40078793          	addi	a5,a5,1024 # 40023400 <_eusrstack+0x2001b400>
     386:	20000713          	li	a4,512
     38a:	0ae79223          	sh	a4,164(a5)
     38e:	400237b7          	lui	a5,0x40023
     392:	40078793          	addi	a5,a5,1024 # 40023400 <_eusrstack+0x2001b400>
     396:	20000737          	lui	a4,0x20000
     39a:	14c70713          	addi	a4,a4,332 # 2000014c <USBHS_EP0_Buf>
     39e:	cfd8                	sw	a4,28(a5)
     3a0:	400237b7          	lui	a5,0x40023
     3a4:	40078793          	addi	a5,a5,1024 # 40023400 <_eusrstack+0x2001b400>
     3a8:	a8418713          	addi	a4,gp,-1404 # 2000038c <USBHS_EP3_Tx_Buf>
     3ac:	d798                	sw	a4,40(a5)
     3ae:	400237b7          	lui	a5,0x40023
     3b2:	40078793          	addi	a5,a5,1024 # 40023400 <_eusrstack+0x2001b400>
     3b6:	cc018713          	addi	a4,gp,-832 # 200005c8 <UART2_Tx_Buf>
     3ba:	d3d8                	sw	a4,36(a5)
     3bc:	400237b7          	lui	a5,0x40023
     3c0:	40078793          	addi	a5,a5,1024 # 40023400 <_eusrstack+0x2001b400>
     3c4:	20000737          	lui	a4,0x20000
     3c8:	18c70713          	addi	a4,a4,396 # 2000018c <USBHS_EP2_Tx_Buf>
     3cc:	d3b8                	sw	a4,96(a5)
     3ce:	400237b7          	lui	a5,0x40023
     3d2:	40078793          	addi	a5,a5,1024 # 40023400 <_eusrstack+0x2001b400>
     3d6:	0c079c23          	sh	zero,216(a5)
     3da:	400237b7          	lui	a5,0x40023
     3de:	40078793          	addi	a5,a5,1024 # 40023400 <_eusrstack+0x2001b400>
     3e2:	4709                	li	a4,2
     3e4:	0ce78d23          	sb	a4,218(a5)
     3e8:	400237b7          	lui	a5,0x40023
     3ec:	40078793          	addi	a5,a5,1024 # 40023400 <_eusrstack+0x2001b400>
     3f0:	0c078da3          	sb	zero,219(a5)
     3f4:	400237b7          	lui	a5,0x40023
     3f8:	40078793          	addi	a5,a5,1024 # 40023400 <_eusrstack+0x2001b400>
     3fc:	0e079023          	sh	zero,224(a5)
     400:	400237b7          	lui	a5,0x40023
     404:	40078793          	addi	a5,a5,1024 # 40023400 <_eusrstack+0x2001b400>
     408:	4709                	li	a4,2
     40a:	0ee78123          	sb	a4,226(a5)
     40e:	400237b7          	lui	a5,0x40023
     412:	40078793          	addi	a5,a5,1024 # 40023400 <_eusrstack+0x2001b400>
     416:	0e0781a3          	sb	zero,227(a5)
     41a:	400237b7          	lui	a5,0x40023
     41e:	40078793          	addi	a5,a5,1024 # 40023400 <_eusrstack+0x2001b400>
     422:	0e079223          	sh	zero,228(a5)
     426:	400237b7          	lui	a5,0x40023
     42a:	40078793          	addi	a5,a5,1024 # 40023400 <_eusrstack+0x2001b400>
     42e:	4709                	li	a4,2
     430:	0ee78323          	sb	a4,230(a5)
     434:	400237b7          	lui	a5,0x40023
     438:	40078793          	addi	a5,a5,1024 # 40023400 <_eusrstack+0x2001b400>
     43c:	0e0783a3          	sb	zero,231(a5)
     440:	fe0407a3          	sb	zero,-17(s0)
     444:	a829                	j	45e <USBHS_Device_Endp_Init+0x116>
     446:	fef44703          	lbu	a4,-17(s0)
     44a:	c8418793          	addi	a5,gp,-892 # 2000058c <USBHS_Endp_Busy>
     44e:	97ba                	add	a5,a5,a4
     450:	00078023          	sb	zero,0(a5)
     454:	fef44783          	lbu	a5,-17(s0)
     458:	0785                	addi	a5,a5,1
     45a:	fef407a3          	sb	a5,-17(s0)
     45e:	fef44703          	lbu	a4,-17(s0)
     462:	47bd                	li	a5,15
     464:	fee7f1e3          	bgeu	a5,a4,446 <USBHS_Device_Endp_Init+0xfe>
     468:	0001                	nop
     46a:	4472                	lw	s0,28(sp)
     46c:	6105                	addi	sp,sp,32
     46e:	8082                	ret

00000470 <USBHS_Device_Init>:
     470:	1101                	addi	sp,sp,-32
     472:	ce06                	sw	ra,28(sp)
     474:	cc22                	sw	s0,24(sp)
     476:	1000                	addi	s0,sp,32
     478:	fea42623          	sw	a0,-20(s0)
     47c:	fec42783          	lw	a5,-20(s0)
     480:	c3d1                	beqz	a5,504 <USBHS_Device_Init+0x94>
     482:	400237b7          	lui	a5,0x40023
     486:	40078793          	addi	a5,a5,1024 # 40023400 <_eusrstack+0x2001b400>
     48a:	4719                	li	a4,6
     48c:	a398                	sb	a4,0(a5)
     48e:	4529                	li	a0,10
     490:	016030ef          	jal	ra,34a6 <Delay_Us>
     494:	400237b7          	lui	a5,0x40023
     498:	40078793          	addi	a5,a5,1024 # 40023400 <_eusrstack+0x2001b400>
     49c:	239c                	lbu	a5,0(a5)
     49e:	0ff7f713          	andi	a4,a5,255
     4a2:	400237b7          	lui	a5,0x40023
     4a6:	40078793          	addi	a5,a5,1024 # 40023400 <_eusrstack+0x2001b400>
     4aa:	9b6d                	andi	a4,a4,-5
     4ac:	0ff77713          	andi	a4,a4,255
     4b0:	a398                	sb	a4,0(a5)
     4b2:	400237b7          	lui	a5,0x40023
     4b6:	40078793          	addi	a5,a5,1024 # 40023400 <_eusrstack+0x2001b400>
     4ba:	4741                	li	a4,16
     4bc:	b398                	sb	a4,1(a5)
     4be:	400237b7          	lui	a5,0x40023
     4c2:	40078793          	addi	a5,a5,1024 # 40023400 <_eusrstack+0x2001b400>
     4c6:	02900713          	li	a4,41
     4ca:	a398                	sb	a4,0(a5)
     4cc:	400237b7          	lui	a5,0x40023
     4d0:	40078793          	addi	a5,a5,1024 # 40023400 <_eusrstack+0x2001b400>
     4d4:	02700713          	li	a4,39
     4d8:	a3b8                	sb	a4,2(a5)
     4da:	35bd                	jal	348 <USBHS_Device_Endp_Init>
     4dc:	400237b7          	lui	a5,0x40023
     4e0:	40078793          	addi	a5,a5,1024 # 40023400 <_eusrstack+0x2001b400>
     4e4:	239c                	lbu	a5,0(a5)
     4e6:	0ff7f713          	andi	a4,a5,255
     4ea:	400237b7          	lui	a5,0x40023
     4ee:	40078793          	addi	a5,a5,1024 # 40023400 <_eusrstack+0x2001b400>
     4f2:	01076713          	ori	a4,a4,16
     4f6:	0ff77713          	andi	a4,a4,255
     4fa:	a398                	sb	a4,0(a5)
     4fc:	05500513          	li	a0,85
     500:	3365                	jal	2a8 <NVIC_EnableIRQ>
     502:	a01d                	j	528 <USBHS_Device_Init+0xb8>
     504:	400237b7          	lui	a5,0x40023
     508:	40078793          	addi	a5,a5,1024 # 40023400 <_eusrstack+0x2001b400>
     50c:	4719                	li	a4,6
     50e:	a398                	sb	a4,0(a5)
     510:	4529                	li	a0,10
     512:	795020ef          	jal	ra,34a6 <Delay_Us>
     516:	400237b7          	lui	a5,0x40023
     51a:	40078793          	addi	a5,a5,1024 # 40023400 <_eusrstack+0x2001b400>
     51e:	00078023          	sb	zero,0(a5)
     522:	05500513          	li	a0,85
     526:	3b55                	jal	2da <NVIC_DisableIRQ>
     528:	0001                	nop
     52a:	40f2                	lw	ra,28(sp)
     52c:	4462                	lw	s0,24(sp)
     52e:	6105                	addi	sp,sp,32
     530:	8082                	ret

00000532 <USBHS_IRQHandler>:
     532:	1101                	addi	sp,sp,-32
     534:	ce22                	sw	s0,28(sp)
     536:	1000                	addi	s0,sp,32
     538:	400237b7          	lui	a5,0x40023
     53c:	40078793          	addi	a5,a5,1024 # 40023400 <_eusrstack+0x2001b400>
     540:	27bc                	lbu	a5,10(a5)
     542:	fef405a3          	sb	a5,-21(s0)
     546:	400237b7          	lui	a5,0x40023
     54a:	40078793          	addi	a5,a5,1024 # 40023400 <_eusrstack+0x2001b400>
     54e:	37bc                	lbu	a5,11(a5)
     550:	fef40523          	sb	a5,-22(s0)
     554:	feb44783          	lbu	a5,-21(s0)
     558:	8b89                	andi	a5,a5,2
     55a:	48078d63          	beqz	a5,9f4 <__stack_size+0x1f4>
     55e:	fea44783          	lbu	a5,-22(s0)
     562:	0307f793          	andi	a5,a5,48
     566:	4741                	li	a4,16
     568:	46e78d63          	beq	a5,a4,9e2 <__stack_size+0x1e2>
     56c:	02000713          	li	a4,32
     570:	00e78563          	beq	a5,a4,57a <USBHS_IRQHandler+0x48>
     574:	20078963          	beqz	a5,786 <USBHS_IRQHandler+0x254>
     578:	a1b5                	j	9e4 <__stack_size+0x1e4>
     57a:	fea44783          	lbu	a5,-22(s0)
     57e:	03f7f793          	andi	a5,a5,63
     582:	02200713          	li	a4,34
     586:	10e78863          	beq	a5,a4,696 <USBHS_IRQHandler+0x164>
     58a:	02300713          	li	a4,35
     58e:	18e78063          	beq	a5,a4,70e <USBHS_IRQHandler+0x1dc>
     592:	02000713          	li	a4,32
     596:	1ee79463          	bne	a5,a4,77e <USBHS_IRQHandler+0x24c>
     59a:	8221d783          	lhu	a5,-2014(gp) # 2000012a <USBHS_SetupReqLen>
     59e:	07c2                	slli	a5,a5,0x10
     5a0:	83c1                	srli	a5,a5,0x10
     5a2:	eb81                	bnez	a5,5b2 <USBHS_IRQHandler+0x80>
     5a4:	400237b7          	lui	a5,0x40023
     5a8:	40078793          	addi	a5,a5,1024 # 40023400 <_eusrstack+0x2001b400>
     5ac:	4721                	li	a4,8
     5ae:	0ce78da3          	sb	a4,219(a5)
     5b2:	81d1c783          	lbu	a5,-2019(gp) # 20000125 <USBHS_SetupReqType>
     5b6:	0ff7f793          	andi	a5,a5,255
     5ba:	0607f793          	andi	a5,a5,96
     5be:	1c079263          	bnez	a5,782 <USBHS_IRQHandler+0x250>
     5c2:	81c1c783          	lbu	a5,-2020(gp) # 20000124 <USBHS_SetupReqCode>
     5c6:	0ff7f793          	andi	a5,a5,255
     5ca:	4715                	li	a4,5
     5cc:	0ae78363          	beq	a5,a4,672 <USBHS_IRQHandler+0x140>
     5d0:	4719                	li	a4,6
     5d2:	0ae79a63          	bne	a5,a4,686 <USBHS_IRQHandler+0x154>
     5d6:	8221d783          	lhu	a5,-2014(gp) # 2000012a <USBHS_SetupReqLen>
     5da:	01079713          	slli	a4,a5,0x10
     5de:	8341                	srli	a4,a4,0x10
     5e0:	03f00793          	li	a5,63
     5e4:	00e7e763          	bltu	a5,a4,5f2 <USBHS_IRQHandler+0xc0>
     5e8:	8221d783          	lhu	a5,-2014(gp) # 2000012a <USBHS_SetupReqLen>
     5ec:	07c2                	slli	a5,a5,0x10
     5ee:	83c1                	srli	a5,a5,0x10
     5f0:	a019                	j	5f6 <USBHS_IRQHandler+0xc4>
     5f2:	04000793          	li	a5,64
     5f6:	fef41623          	sh	a5,-20(s0)
     5fa:	8181a783          	lw	a5,-2024(gp) # 20000120 <_edata>
     5fe:	fec45703          	lhu	a4,-20(s0)
     602:	863a                	mv	a2,a4
     604:	85be                	mv	a1,a5
     606:	200007b7          	lui	a5,0x20000
     60a:	14c78513          	addi	a0,a5,332 # 2000014c <USBHS_EP0_Buf>
     60e:	070030ef          	jal	ra,367e <memcpy>
     612:	8221d783          	lhu	a5,-2014(gp) # 2000012a <USBHS_SetupReqLen>
     616:	01079713          	slli	a4,a5,0x10
     61a:	8341                	srli	a4,a4,0x10
     61c:	fec45783          	lhu	a5,-20(s0)
     620:	40f707b3          	sub	a5,a4,a5
     624:	01079713          	slli	a4,a5,0x10
     628:	8341                	srli	a4,a4,0x10
     62a:	82e19123          	sh	a4,-2014(gp) # 2000012a <USBHS_SetupReqLen>
     62e:	8181a703          	lw	a4,-2024(gp) # 20000120 <_edata>
     632:	fec45783          	lhu	a5,-20(s0)
     636:	973e                	add	a4,a4,a5
     638:	80e1ac23          	sw	a4,-2024(gp) # 20000120 <_edata>
     63c:	400237b7          	lui	a5,0x40023
     640:	40078793          	addi	a5,a5,1024 # 40023400 <_eusrstack+0x2001b400>
     644:	fec45703          	lhu	a4,-20(s0)
     648:	0ce79c23          	sh	a4,216(a5)
     64c:	400237b7          	lui	a5,0x40023
     650:	40078793          	addi	a5,a5,1024 # 40023400 <_eusrstack+0x2001b400>
     654:	0da7c783          	lbu	a5,218(a5)
     658:	0ff7f713          	andi	a4,a5,255
     65c:	400237b7          	lui	a5,0x40023
     660:	40078793          	addi	a5,a5,1024 # 40023400 <_eusrstack+0x2001b400>
     664:	00874713          	xori	a4,a4,8
     668:	0ff77713          	andi	a4,a4,255
     66c:	0ce78d23          	sb	a4,218(a5)
     670:	a015                	j	694 <USBHS_IRQHandler+0x162>
     672:	400237b7          	lui	a5,0x40023
     676:	40078793          	addi	a5,a5,1024 # 40023400 <_eusrstack+0x2001b400>
     67a:	8251c703          	lbu	a4,-2011(gp) # 2000012d <USBHS_DevAddr>
     67e:	0ff77713          	andi	a4,a4,255
     682:	b3b8                	sb	a4,3(a5)
     684:	a801                	j	694 <USBHS_IRQHandler+0x162>
     686:	400237b7          	lui	a5,0x40023
     68a:	40078793          	addi	a5,a5,1024 # 40023400 <_eusrstack+0x2001b400>
     68e:	0c079c23          	sh	zero,216(a5)
     692:	0001                	nop
     694:	a0fd                	j	782 <USBHS_IRQHandler+0x250>
     696:	400237b7          	lui	a5,0x40023
     69a:	40078793          	addi	a5,a5,1024 # 40023400 <_eusrstack+0x2001b400>
     69e:	0e27c783          	lbu	a5,226(a5)
     6a2:	0ff7f793          	andi	a5,a5,255
     6a6:	07e2                	slli	a5,a5,0x18
     6a8:	87e1                	srai	a5,a5,0x18
     6aa:	9bf1                	andi	a5,a5,-4
     6ac:	07e2                	slli	a5,a5,0x18
     6ae:	87e1                	srai	a5,a5,0x18
     6b0:	0027e793          	ori	a5,a5,2
     6b4:	01879713          	slli	a4,a5,0x18
     6b8:	8761                	srai	a4,a4,0x18
     6ba:	400237b7          	lui	a5,0x40023
     6be:	40078793          	addi	a5,a5,1024 # 40023400 <_eusrstack+0x2001b400>
     6c2:	0ff77713          	andi	a4,a4,255
     6c6:	0ee78123          	sb	a4,226(a5)
     6ca:	400237b7          	lui	a5,0x40023
     6ce:	40078793          	addi	a5,a5,1024 # 40023400 <_eusrstack+0x2001b400>
     6d2:	0e27c783          	lbu	a5,226(a5)
     6d6:	0ff7f713          	andi	a4,a5,255
     6da:	400237b7          	lui	a5,0x40023
     6de:	40078793          	addi	a5,a5,1024 # 40023400 <_eusrstack+0x2001b400>
     6e2:	00874713          	xori	a4,a4,8
     6e6:	0ff77713          	andi	a4,a4,255
     6ea:	0ee78123          	sb	a4,226(a5)
     6ee:	c8418793          	addi	a5,gp,-892 # 2000058c <USBHS_Endp_Busy>
     6f2:	23bc                	lbu	a5,2(a5)
     6f4:	0ff7f793          	andi	a5,a5,255
     6f8:	9bf9                	andi	a5,a5,-2
     6fa:	0ff7f713          	andi	a4,a5,255
     6fe:	c8418793          	addi	a5,gp,-892 # 2000058c <USBHS_Endp_Busy>
     702:	a3b8                	sb	a4,2(a5)
     704:	c9418793          	addi	a5,gp,-876 # 2000059c <Uart>
     708:	00078c23          	sb	zero,24(a5)
     70c:	a8a5                	j	784 <USBHS_IRQHandler+0x252>
     70e:	400237b7          	lui	a5,0x40023
     712:	40078793          	addi	a5,a5,1024 # 40023400 <_eusrstack+0x2001b400>
     716:	0e67c783          	lbu	a5,230(a5)
     71a:	0ff7f793          	andi	a5,a5,255
     71e:	07e2                	slli	a5,a5,0x18
     720:	87e1                	srai	a5,a5,0x18
     722:	9bf1                	andi	a5,a5,-4
     724:	07e2                	slli	a5,a5,0x18
     726:	87e1                	srai	a5,a5,0x18
     728:	0027e793          	ori	a5,a5,2
     72c:	01879713          	slli	a4,a5,0x18
     730:	8761                	srai	a4,a4,0x18
     732:	400237b7          	lui	a5,0x40023
     736:	40078793          	addi	a5,a5,1024 # 40023400 <_eusrstack+0x2001b400>
     73a:	0ff77713          	andi	a4,a4,255
     73e:	0ee78323          	sb	a4,230(a5)
     742:	400237b7          	lui	a5,0x40023
     746:	40078793          	addi	a5,a5,1024 # 40023400 <_eusrstack+0x2001b400>
     74a:	0e67c783          	lbu	a5,230(a5)
     74e:	0ff7f713          	andi	a4,a5,255
     752:	400237b7          	lui	a5,0x40023
     756:	40078793          	addi	a5,a5,1024 # 40023400 <_eusrstack+0x2001b400>
     75a:	00874713          	xori	a4,a4,8
     75e:	0ff77713          	andi	a4,a4,255
     762:	0ee78323          	sb	a4,230(a5)
     766:	c8418793          	addi	a5,gp,-892 # 2000058c <USBHS_Endp_Busy>
     76a:	33bc                	lbu	a5,3(a5)
     76c:	0ff7f793          	andi	a5,a5,255
     770:	9bf9                	andi	a5,a5,-2
     772:	0ff7f713          	andi	a4,a5,255
     776:	c8418793          	addi	a5,gp,-892 # 2000058c <USBHS_Endp_Busy>
     77a:	b3b8                	sb	a4,3(a5)
     77c:	a021                	j	784 <USBHS_IRQHandler+0x252>
     77e:	0001                	nop
     780:	a495                	j	9e4 <__stack_size+0x1e4>
     782:	0001                	nop
     784:	a485                	j	9e4 <__stack_size+0x1e4>
     786:	fea44783          	lbu	a5,-22(s0)
     78a:	03f7f793          	andi	a5,a5,63
     78e:	c789                	beqz	a5,798 <USBHS_IRQHandler+0x266>
     790:	4709                	li	a4,2
     792:	16e78063          	beq	a5,a4,8f2 <__stack_size+0xf2>
     796:	a481                	j	9d6 <__stack_size+0x1d6>
     798:	400237b7          	lui	a5,0x40023
     79c:	40078793          	addi	a5,a5,1024 # 40023400 <_eusrstack+0x2001b400>
     7a0:	27d8                	lbu	a4,12(a5)
     7a2:	0ff77713          	andi	a4,a4,255
     7a6:	37dc                	lbu	a5,13(a5)
     7a8:	0ff7f793          	andi	a5,a5,255
     7ac:	07a2                	slli	a5,a5,0x8
     7ae:	8fd9                	or	a5,a5,a4
     7b0:	fef41623          	sh	a5,-20(s0)
     7b4:	fea44783          	lbu	a5,-22(s0)
     7b8:	0407f793          	andi	a5,a5,64
     7bc:	22078163          	beqz	a5,9de <__stack_size+0x1de>
     7c0:	81d1c783          	lbu	a5,-2019(gp) # 20000125 <USBHS_SetupReqType>
     7c4:	0ff7f793          	andi	a5,a5,255
     7c8:	0607f793          	andi	a5,a5,96
     7cc:	0e078f63          	beqz	a5,8ca <__stack_size+0xca>
     7d0:	82019123          	sh	zero,-2014(gp) # 2000012a <USBHS_SetupReqLen>
     7d4:	81c1c783          	lbu	a5,-2020(gp) # 20000124 <USBHS_SetupReqCode>
     7d8:	0ff7f713          	andi	a4,a5,255
     7dc:	02000793          	li	a5,32
     7e0:	0ef71563          	bne	a4,a5,8ca <__stack_size+0xca>
     7e4:	200007b7          	lui	a5,0x20000
     7e8:	14c7c703          	lbu	a4,332(a5) # 2000014c <USBHS_EP0_Buf>
     7ec:	c9418793          	addi	a5,gp,-876 # 2000059c <Uart>
     7f0:	aff8                	sb	a4,30(a5)
     7f2:	200007b7          	lui	a5,0x20000
     7f6:	14c78793          	addi	a5,a5,332 # 2000014c <USBHS_EP0_Buf>
     7fa:	3398                	lbu	a4,1(a5)
     7fc:	c9418793          	addi	a5,gp,-876 # 2000059c <Uart>
     800:	bff8                	sb	a4,31(a5)
     802:	200007b7          	lui	a5,0x20000
     806:	14c78793          	addi	a5,a5,332 # 2000014c <USBHS_EP0_Buf>
     80a:	23b8                	lbu	a4,2(a5)
     80c:	c9418793          	addi	a5,gp,-876 # 2000059c <Uart>
     810:	02e78023          	sb	a4,32(a5)
     814:	200007b7          	lui	a5,0x20000
     818:	14c78793          	addi	a5,a5,332 # 2000014c <USBHS_EP0_Buf>
     81c:	33b8                	lbu	a4,3(a5)
     81e:	c9418793          	addi	a5,gp,-876 # 2000059c <Uart>
     822:	02e780a3          	sb	a4,33(a5)
     826:	200007b7          	lui	a5,0x20000
     82a:	14c78793          	addi	a5,a5,332 # 2000014c <USBHS_EP0_Buf>
     82e:	23d8                	lbu	a4,4(a5)
     830:	c9418793          	addi	a5,gp,-876 # 2000059c <Uart>
     834:	02e78123          	sb	a4,34(a5)
     838:	200007b7          	lui	a5,0x20000
     83c:	14c78793          	addi	a5,a5,332 # 2000014c <USBHS_EP0_Buf>
     840:	33d8                	lbu	a4,5(a5)
     842:	c9418793          	addi	a5,gp,-876 # 2000059c <Uart>
     846:	02e781a3          	sb	a4,35(a5)
     84a:	200007b7          	lui	a5,0x20000
     84e:	14c78793          	addi	a5,a5,332 # 2000014c <USBHS_EP0_Buf>
     852:	23f8                	lbu	a4,6(a5)
     854:	c9418793          	addi	a5,gp,-876 # 2000059c <Uart>
     858:	02e78223          	sb	a4,36(a5)
     85c:	c9418793          	addi	a5,gp,-876 # 2000059c <Uart>
     860:	4779                	li	a4,30
     862:	02e782a3          	sb	a4,37(a5)
     866:	200007b7          	lui	a5,0x20000
     86a:	14c7c783          	lbu	a5,332(a5) # 2000014c <USBHS_EP0_Buf>
     86e:	fef42223          	sw	a5,-28(s0)
     872:	200007b7          	lui	a5,0x20000
     876:	14c78793          	addi	a5,a5,332 # 2000014c <USBHS_EP0_Buf>
     87a:	339c                	lbu	a5,1(a5)
     87c:	07a2                	slli	a5,a5,0x8
     87e:	fe442703          	lw	a4,-28(s0)
     882:	97ba                	add	a5,a5,a4
     884:	fef42223          	sw	a5,-28(s0)
     888:	200007b7          	lui	a5,0x20000
     88c:	14c78793          	addi	a5,a5,332 # 2000014c <USBHS_EP0_Buf>
     890:	23bc                	lbu	a5,2(a5)
     892:	07c2                	slli	a5,a5,0x10
     894:	fe442703          	lw	a4,-28(s0)
     898:	97ba                	add	a5,a5,a4
     89a:	fef42223          	sw	a5,-28(s0)
     89e:	200007b7          	lui	a5,0x20000
     8a2:	14c78793          	addi	a5,a5,332 # 2000014c <USBHS_EP0_Buf>
     8a6:	33bc                	lbu	a5,3(a5)
     8a8:	07e2                	slli	a5,a5,0x18
     8aa:	fe442703          	lw	a4,-28(s0)
     8ae:	97ba                	add	a5,a5,a4
     8b0:	fef42223          	sw	a5,-28(s0)
     8b4:	c9418793          	addi	a5,gp,-876 # 2000059c <Uart>
     8b8:	33fc                	lbu	a5,7(a5)
     8ba:	0ff7f713          	andi	a4,a5,255
     8be:	c9418793          	addi	a5,gp,-876 # 2000059c <Uart>
     8c2:	02e782a3          	sb	a4,37(a5)
     8c6:	008010ef          	jal	ra,18ce <UART2_USB_Init>
     8ca:	8221d783          	lhu	a5,-2014(gp) # 2000012a <USBHS_SetupReqLen>
     8ce:	07c2                	slli	a5,a5,0x10
     8d0:	83c1                	srli	a5,a5,0x10
     8d2:	10079663          	bnez	a5,9de <__stack_size+0x1de>
     8d6:	400237b7          	lui	a5,0x40023
     8da:	40078793          	addi	a5,a5,1024 # 40023400 <_eusrstack+0x2001b400>
     8de:	0c079c23          	sh	zero,216(a5)
     8e2:	400237b7          	lui	a5,0x40023
     8e6:	40078793          	addi	a5,a5,1024 # 40023400 <_eusrstack+0x2001b400>
     8ea:	4721                	li	a4,8
     8ec:	0ce78d23          	sb	a4,218(a5)
     8f0:	a0fd                	j	9de <__stack_size+0x1de>
     8f2:	400237b7          	lui	a5,0x40023
     8f6:	40078793          	addi	a5,a5,1024 # 40023400 <_eusrstack+0x2001b400>
     8fa:	0e37c783          	lbu	a5,227(a5)
     8fe:	0ff7f713          	andi	a4,a5,255
     902:	400237b7          	lui	a5,0x40023
     906:	40078793          	addi	a5,a5,1024 # 40023400 <_eusrstack+0x2001b400>
     90a:	00874713          	xori	a4,a4,8
     90e:	0ff77713          	andi	a4,a4,255
     912:	0ee781a3          	sb	a4,227(a5)
     916:	400237b7          	lui	a5,0x40023
     91a:	40078713          	addi	a4,a5,1024 # 40023400 <_eusrstack+0x2001b400>
     91e:	c9418693          	addi	a3,gp,-876 # 2000059c <Uart>
     922:	2694                	lbu	a3,8(a3)
     924:	0ff6f693          	andi	a3,a3,255
     928:	c9418793          	addi	a5,gp,-876 # 2000059c <Uart>
     92c:	379c                	lbu	a5,9(a5)
     92e:	0ff7f793          	andi	a5,a5,255
     932:	07a2                	slli	a5,a5,0x8
     934:	8fd5                	or	a5,a5,a3
     936:	07c2                	slli	a5,a5,0x10
     938:	83c1                	srli	a5,a5,0x10
     93a:	86be                	mv	a3,a5
     93c:	275e                	lhu	a5,12(a4)
     93e:	01079713          	slli	a4,a5,0x10
     942:	8341                	srli	a4,a4,0x10
     944:	0686                	slli	a3,a3,0x1
     946:	c9418793          	addi	a5,gp,-876 # 2000059c <Uart>
     94a:	97b6                	add	a5,a5,a3
     94c:	0ff77593          	andi	a1,a4,255
     950:	27f4                	lbu	a3,14(a5)
     952:	8a81                	andi	a3,a3,0
     954:	8636                	mv	a2,a3
     956:	86ae                	mv	a3,a1
     958:	8ed1                	or	a3,a3,a2
     95a:	a7f4                	sb	a3,14(a5)
     95c:	8321                	srli	a4,a4,0x8
     95e:	01071613          	slli	a2,a4,0x10
     962:	8241                	srli	a2,a2,0x10
     964:	37f8                	lbu	a4,15(a5)
     966:	8b01                	andi	a4,a4,0
     968:	86ba                	mv	a3,a4
     96a:	8732                	mv	a4,a2
     96c:	8f55                	or	a4,a4,a3
     96e:	b7f8                	sb	a4,15(a5)
     970:	c9418713          	addi	a4,gp,-876 # 2000059c <Uart>
     974:	2718                	lbu	a4,8(a4)
     976:	0ff77713          	andi	a4,a4,255
     97a:	c9418793          	addi	a5,gp,-876 # 2000059c <Uart>
     97e:	379c                	lbu	a5,9(a5)
     980:	0ff7f793          	andi	a5,a5,255
     984:	07a2                	slli	a5,a5,0x8
     986:	8fd9                	or	a5,a5,a4
     988:	07c2                	slli	a5,a5,0x10
     98a:	83c1                	srli	a5,a5,0x10
     98c:	0785                	addi	a5,a5,1
     98e:	01079713          	slli	a4,a5,0x10
     992:	8341                	srli	a4,a4,0x10
     994:	c9418793          	addi	a5,gp,-876 # 2000059c <Uart>
     998:	0ff77593          	andi	a1,a4,255
     99c:	2794                	lbu	a3,8(a5)
     99e:	8a81                	andi	a3,a3,0
     9a0:	8636                	mv	a2,a3
     9a2:	86ae                	mv	a3,a1
     9a4:	8ed1                	or	a3,a3,a2
     9a6:	a794                	sb	a3,8(a5)
     9a8:	8321                	srli	a4,a4,0x8
     9aa:	01071613          	slli	a2,a4,0x10
     9ae:	8241                	srli	a2,a2,0x10
     9b0:	3798                	lbu	a4,9(a5)
     9b2:	8b01                	andi	a4,a4,0
     9b4:	86ba                	mv	a3,a4
     9b6:	8732                	mv	a4,a2
     9b8:	8f55                	or	a4,a4,a3
     9ba:	b798                	sb	a4,9(a5)
     9bc:	400237b7          	lui	a5,0x40023
     9c0:	40078793          	addi	a5,a5,1024 # 40023400 <_eusrstack+0x2001b400>
     9c4:	20002737          	lui	a4,0x20002
     9c8:	9c870713          	addi	a4,a4,-1592 # 200019c8 <USB_rx_Buf>
     9cc:	d3d8                	sw	a4,36(a5)
     9ce:	4705                	li	a4,1
     9d0:	82e18a23          	sb	a4,-1996(gp) # 2000013c <usb_rx_flg1>
     9d4:	a031                	j	9e0 <__stack_size+0x1e0>
     9d6:	57fd                	li	a5,-1
     9d8:	fef407a3          	sb	a5,-17(s0)
     9dc:	a011                	j	9e0 <__stack_size+0x1e0>
     9de:	0001                	nop
     9e0:	a011                	j	9e4 <__stack_size+0x1e4>
     9e2:	0001                	nop
     9e4:	400237b7          	lui	a5,0x40023
     9e8:	40078793          	addi	a5,a5,1024 # 40023400 <_eusrstack+0x2001b400>
     9ec:	4709                	li	a4,2
     9ee:	a7b8                	sb	a4,10(a5)
     9f0:	1630006f          	j	1352 <__stack_size+0xb52>
     9f4:	feb44783          	lbu	a5,-21(s0)
     9f8:	0207f793          	andi	a5,a5,32
     9fc:	0a078de3          	beqz	a5,12b6 <__stack_size+0xab6>
     a00:	400237b7          	lui	a5,0x40023
     a04:	40078793          	addi	a5,a5,1024 # 40023400 <_eusrstack+0x2001b400>
     a08:	4729                	li	a4,10
     a0a:	0ce78d23          	sb	a4,218(a5)
     a0e:	400237b7          	lui	a5,0x40023
     a12:	40078793          	addi	a5,a5,1024 # 40023400 <_eusrstack+0x2001b400>
     a16:	4729                	li	a4,10
     a18:	0ce78da3          	sb	a4,219(a5)
     a1c:	200007b7          	lui	a5,0x20000
     a20:	14c78793          	addi	a5,a5,332 # 2000014c <USBHS_EP0_Buf>
     a24:	2398                	lbu	a4,0(a5)
     a26:	80e18ea3          	sb	a4,-2019(gp) # 20000125 <USBHS_SetupReqType>
     a2a:	200007b7          	lui	a5,0x20000
     a2e:	14c78793          	addi	a5,a5,332 # 2000014c <USBHS_EP0_Buf>
     a32:	3398                	lbu	a4,1(a5)
     a34:	80e18e23          	sb	a4,-2020(gp) # 20000124 <USBHS_SetupReqCode>
     a38:	200007b7          	lui	a5,0x20000
     a3c:	14c78793          	addi	a5,a5,332 # 2000014c <USBHS_EP0_Buf>
     a40:	23f8                	lbu	a4,6(a5)
     a42:	33fc                	lbu	a5,7(a5)
     a44:	07a2                	slli	a5,a5,0x8
     a46:	8fd9                	or	a5,a5,a4
     a48:	01079713          	slli	a4,a5,0x10
     a4c:	8341                	srli	a4,a4,0x10
     a4e:	82e19123          	sh	a4,-2014(gp) # 2000012a <USBHS_SetupReqLen>
     a52:	200007b7          	lui	a5,0x20000
     a56:	14c78793          	addi	a5,a5,332 # 2000014c <USBHS_EP0_Buf>
     a5a:	23b8                	lbu	a4,2(a5)
     a5c:	33bc                	lbu	a5,3(a5)
     a5e:	07a2                	slli	a5,a5,0x8
     a60:	8fd9                	or	a5,a5,a4
     a62:	01079713          	slli	a4,a5,0x10
     a66:	8341                	srli	a4,a4,0x10
     a68:	80e19f23          	sh	a4,-2018(gp) # 20000126 <USBHS_SetupReqValue>
     a6c:	200007b7          	lui	a5,0x20000
     a70:	14c78793          	addi	a5,a5,332 # 2000014c <USBHS_EP0_Buf>
     a74:	23d8                	lbu	a4,4(a5)
     a76:	33dc                	lbu	a5,5(a5)
     a78:	07a2                	slli	a5,a5,0x8
     a7a:	8fd9                	or	a5,a5,a4
     a7c:	01079713          	slli	a4,a5,0x10
     a80:	8341                	srli	a4,a4,0x10
     a82:	82e19023          	sh	a4,-2016(gp) # 20000128 <USBHS_SetupReqIndex>
     a86:	fe041623          	sh	zero,-20(s0)
     a8a:	fe0407a3          	sb	zero,-17(s0)
     a8e:	81d1c783          	lbu	a5,-2019(gp) # 20000125 <USBHS_SetupReqType>
     a92:	0ff7f793          	andi	a5,a5,255
     a96:	0607f793          	andi	a5,a5,96
     a9a:	c7e9                	beqz	a5,b64 <__stack_size+0x364>
     a9c:	81d1c783          	lbu	a5,-2019(gp) # 20000125 <USBHS_SetupReqType>
     aa0:	0ff7f793          	andi	a5,a5,255
     aa4:	0207f793          	andi	a5,a5,32
     aa8:	cba1                	beqz	a5,af8 <__stack_size+0x2f8>
     aaa:	81c1c783          	lbu	a5,-2020(gp) # 20000124 <USBHS_SetupReqCode>
     aae:	0ff7f793          	andi	a5,a5,255
     ab2:	02100713          	li	a4,33
     ab6:	02e78463          	beq	a5,a4,ade <__stack_size+0x2de>
     aba:	02100713          	li	a4,33
     abe:	00f74763          	blt	a4,a5,acc <__stack_size+0x2cc>
     ac2:	02000713          	li	a4,32
     ac6:	04e78463          	beq	a5,a4,b0e <__stack_size+0x30e>
     aca:	a015                	j	aee <__stack_size+0x2ee>
     acc:	02200713          	li	a4,34
     ad0:	04e78163          	beq	a5,a4,b12 <__stack_size+0x312>
     ad4:	02300713          	li	a4,35
     ad8:	02e78f63          	beq	a5,a4,b16 <__stack_size+0x316>
     adc:	a809                	j	aee <__stack_size+0x2ee>
     ade:	cb218713          	addi	a4,gp,-846 # 200005ba <Uart+0x1e>
     ae2:	80e1ac23          	sw	a4,-2024(gp) # 20000120 <_edata>
     ae6:	479d                	li	a5,7
     ae8:	fef41623          	sh	a5,-20(s0)
     aec:	a035                	j	b18 <__stack_size+0x318>
     aee:	57fd                	li	a5,-1
     af0:	fef407a3          	sb	a5,-17(s0)
     af4:	0001                	nop
     af6:	a00d                	j	b18 <__stack_size+0x318>
     af8:	81d1c783          	lbu	a5,-2019(gp) # 20000125 <USBHS_SetupReqType>
     afc:	0ff7f793          	andi	a5,a5,255
     b00:	0407f793          	andi	a5,a5,64
     b04:	eb91                	bnez	a5,b18 <__stack_size+0x318>
     b06:	57fd                	li	a5,-1
     b08:	fef407a3          	sb	a5,-17(s0)
     b0c:	a031                	j	b18 <__stack_size+0x318>
     b0e:	0001                	nop
     b10:	a021                	j	b18 <__stack_size+0x318>
     b12:	0001                	nop
     b14:	a011                	j	b18 <__stack_size+0x318>
     b16:	0001                	nop
     b18:	8221d783          	lhu	a5,-2014(gp) # 2000012a <USBHS_SetupReqLen>
     b1c:	01079713          	slli	a4,a5,0x10
     b20:	8341                	srli	a4,a4,0x10
     b22:	03f00793          	li	a5,63
     b26:	00e7e763          	bltu	a5,a4,b34 <__stack_size+0x334>
     b2a:	8221d783          	lhu	a5,-2014(gp) # 2000012a <USBHS_SetupReqLen>
     b2e:	07c2                	slli	a5,a5,0x10
     b30:	83c1                	srli	a5,a5,0x10
     b32:	a019                	j	b38 <__stack_size+0x338>
     b34:	04000793          	li	a5,64
     b38:	fef41623          	sh	a5,-20(s0)
     b3c:	8181a783          	lw	a5,-2024(gp) # 20000120 <_edata>
     b40:	fec45703          	lhu	a4,-20(s0)
     b44:	863a                	mv	a2,a4
     b46:	85be                	mv	a1,a5
     b48:	200007b7          	lui	a5,0x20000
     b4c:	14c78513          	addi	a0,a5,332 # 2000014c <USBHS_EP0_Buf>
     b50:	32f020ef          	jal	ra,367e <memcpy>
     b54:	8181a703          	lw	a4,-2024(gp) # 20000120 <_edata>
     b58:	fec45783          	lhu	a5,-20(s0)
     b5c:	973e                	add	a4,a4,a5
     b5e:	80e1ac23          	sw	a4,-2024(gp) # 20000120 <_edata>
     b62:	ad9d                	j	11d8 <__stack_size+0x9d8>
     b64:	81c1c783          	lbu	a5,-2020(gp) # 20000124 <USBHS_SetupReqCode>
     b68:	0ff7f793          	andi	a5,a5,255
     b6c:	472d                	li	a4,11
     b6e:	64f76a63          	bltu	a4,a5,11c2 <__stack_size+0x9c2>
     b72:	00279713          	slli	a4,a5,0x2
     b76:	6795                	lui	a5,0x5
     b78:	9bc78793          	addi	a5,a5,-1604 # 49bc <_read+0x76>
     b7c:	97ba                	add	a5,a5,a4
     b7e:	439c                	lw	a5,0(a5)
     b80:	8782                	jr	a5
     b82:	81e1d783          	lhu	a5,-2018(gp) # 20000126 <USBHS_SetupReqValue>
     b86:	07c2                	slli	a5,a5,0x10
     b88:	83c1                	srli	a5,a5,0x10
     b8a:	83a1                	srli	a5,a5,0x8
     b8c:	07c2                	slli	a5,a5,0x10
     b8e:	83c1                	srli	a5,a5,0x10
     b90:	0ff7f793          	andi	a5,a5,255
     b94:	473d                	li	a4,15
     b96:	26f76363          	bltu	a4,a5,dfc <__stack_size+0x5fc>
     b9a:	00279713          	slli	a4,a5,0x2
     b9e:	6795                	lui	a5,0x5
     ba0:	9ec78793          	addi	a5,a5,-1556 # 49ec <_read+0xa6>
     ba4:	97ba                	add	a5,a5,a4
     ba6:	439c                	lw	a5,0(a5)
     ba8:	8782                	jr	a5
     baa:	6715                	lui	a4,0x5
     bac:	a2c70713          	addi	a4,a4,-1492 # 4a2c <MyDevDescr>
     bb0:	80e1ac23          	sw	a4,-2024(gp) # 20000120 <_edata>
     bb4:	6795                	lui	a5,0x5
     bb6:	a2c7c783          	lbu	a5,-1492(a5) # 4a2c <MyDevDescr>
     bba:	fef41623          	sh	a5,-20(s0)
     bbe:	a499                	j	e04 <__stack_size+0x604>
     bc0:	400237b7          	lui	a5,0x40023
     bc4:	40078793          	addi	a5,a5,1024 # 40023400 <_eusrstack+0x2001b400>
     bc8:	279c                	lbu	a5,8(a5)
     bca:	0ff7f793          	andi	a5,a5,255
     bce:	0037f713          	andi	a4,a5,3
     bd2:	4785                	li	a5,1
     bd4:	00f71a63          	bne	a4,a5,be8 <__stack_size+0x3e8>
     bd8:	4705                	li	a4,1
     bda:	82e18423          	sb	a4,-2008(gp) # 20000130 <USBHS_DevSpeed>
     bde:	20000713          	li	a4,512
     be2:	82e19323          	sh	a4,-2010(gp) # 2000012e <USBHS_DevMaxPackLen>
     be6:	a039                	j	bf4 <__stack_size+0x3f4>
     be8:	82018423          	sb	zero,-2008(gp) # 20000130 <USBHS_DevSpeed>
     bec:	04000713          	li	a4,64
     bf0:	82e19323          	sh	a4,-2010(gp) # 2000012e <USBHS_DevMaxPackLen>
     bf4:	8281c783          	lbu	a5,-2008(gp) # 20000130 <USBHS_DevSpeed>
     bf8:	0ff7f713          	andi	a4,a5,255
     bfc:	4785                	li	a5,1
     bfe:	02f71b63          	bne	a4,a5,c34 <__stack_size+0x434>
     c02:	6715                	lui	a4,0x5
     c04:	a8470713          	addi	a4,a4,-1404 # 4a84 <MyCfgDescr_HS>
     c08:	80e1ac23          	sw	a4,-2024(gp) # 20000120 <_edata>
     c0c:	6795                	lui	a5,0x5
     c0e:	a8478793          	addi	a5,a5,-1404 # 4a84 <MyCfgDescr_HS>
     c12:	23bc                	lbu	a5,2(a5)
     c14:	01079713          	slli	a4,a5,0x10
     c18:	8341                	srli	a4,a4,0x10
     c1a:	6795                	lui	a5,0x5
     c1c:	a8478793          	addi	a5,a5,-1404 # 4a84 <MyCfgDescr_HS>
     c20:	33bc                	lbu	a5,3(a5)
     c22:	07c2                	slli	a5,a5,0x10
     c24:	83c1                	srli	a5,a5,0x10
     c26:	07a2                	slli	a5,a5,0x8
     c28:	07c2                	slli	a5,a5,0x10
     c2a:	83c1                	srli	a5,a5,0x10
     c2c:	97ba                	add	a5,a5,a4
     c2e:	fef41623          	sh	a5,-20(s0)
     c32:	aac9                	j	e04 <__stack_size+0x604>
     c34:	6715                	lui	a4,0x5
     c36:	a4070713          	addi	a4,a4,-1472 # 4a40 <MyCfgDescr_FS>
     c3a:	80e1ac23          	sw	a4,-2024(gp) # 20000120 <_edata>
     c3e:	6795                	lui	a5,0x5
     c40:	a4078793          	addi	a5,a5,-1472 # 4a40 <MyCfgDescr_FS>
     c44:	23bc                	lbu	a5,2(a5)
     c46:	01079713          	slli	a4,a5,0x10
     c4a:	8341                	srli	a4,a4,0x10
     c4c:	6795                	lui	a5,0x5
     c4e:	a4078793          	addi	a5,a5,-1472 # 4a40 <MyCfgDescr_FS>
     c52:	33bc                	lbu	a5,3(a5)
     c54:	07c2                	slli	a5,a5,0x10
     c56:	83c1                	srli	a5,a5,0x10
     c58:	07a2                	slli	a5,a5,0x8
     c5a:	07c2                	slli	a5,a5,0x10
     c5c:	83c1                	srli	a5,a5,0x10
     c5e:	97ba                	add	a5,a5,a4
     c60:	fef41623          	sh	a5,-20(s0)
     c64:	a245                	j	e04 <__stack_size+0x604>
     c66:	81e1d783          	lhu	a5,-2018(gp) # 20000126 <USBHS_SetupReqValue>
     c6a:	07c2                	slli	a5,a5,0x10
     c6c:	83c1                	srli	a5,a5,0x10
     c6e:	0ff7f793          	andi	a5,a5,255
     c72:	4705                	li	a4,1
     c74:	02e78763          	beq	a5,a4,ca2 <__stack_size+0x4a2>
     c78:	4705                	li	a4,1
     c7a:	00f74463          	blt	a4,a5,c82 <__stack_size+0x482>
     c7e:	cb89                	beqz	a5,c90 <__stack_size+0x490>
     c80:	a095                	j	ce4 <__stack_size+0x4e4>
     c82:	4709                	li	a4,2
     c84:	02e78a63          	beq	a5,a4,cb8 <__stack_size+0x4b8>
     c88:	470d                	li	a4,3
     c8a:	04e78263          	beq	a5,a4,cce <__stack_size+0x4ce>
     c8e:	a899                	j	ce4 <__stack_size+0x4e4>
     c90:	81018713          	addi	a4,gp,-2032 # 20000118 <MyLangDescr>
     c94:	80e1ac23          	sw	a4,-2024(gp) # 20000120 <_edata>
     c98:	8101c783          	lbu	a5,-2032(gp) # 20000118 <MyLangDescr>
     c9c:	fef41623          	sh	a5,-20(s0)
     ca0:	a0b1                	j	cec <__stack_size+0x4ec>
     ca2:	6715                	lui	a4,0x5
     ca4:	ac870713          	addi	a4,a4,-1336 # 4ac8 <MyManuInfo>
     ca8:	80e1ac23          	sw	a4,-2024(gp) # 20000120 <_edata>
     cac:	6795                	lui	a5,0x5
     cae:	ac87c783          	lbu	a5,-1336(a5) # 4ac8 <MyManuInfo>
     cb2:	fef41623          	sh	a5,-20(s0)
     cb6:	a81d                	j	cec <__stack_size+0x4ec>
     cb8:	6715                	lui	a4,0x5
     cba:	ad870713          	addi	a4,a4,-1320 # 4ad8 <MyProdInfo>
     cbe:	80e1ac23          	sw	a4,-2024(gp) # 20000120 <_edata>
     cc2:	6795                	lui	a5,0x5
     cc4:	ad87c783          	lbu	a5,-1320(a5) # 4ad8 <MyProdInfo>
     cc8:	fef41623          	sh	a5,-20(s0)
     ccc:	a005                	j	cec <__stack_size+0x4ec>
     cce:	6715                	lui	a4,0x5
     cd0:	af070713          	addi	a4,a4,-1296 # 4af0 <MySerNumInfo>
     cd4:	80e1ac23          	sw	a4,-2024(gp) # 20000120 <_edata>
     cd8:	6795                	lui	a5,0x5
     cda:	af07c783          	lbu	a5,-1296(a5) # 4af0 <MySerNumInfo>
     cde:	fef41623          	sh	a5,-20(s0)
     ce2:	a029                	j	cec <__stack_size+0x4ec>
     ce4:	57fd                	li	a5,-1
     ce6:	fef407a3          	sb	a5,-17(s0)
     cea:	0001                	nop
     cec:	aa21                	j	e04 <__stack_size+0x604>
     cee:	6715                	lui	a4,0x5
     cf0:	b0870713          	addi	a4,a4,-1272 # 4b08 <MyQuaDesc>
     cf4:	80e1ac23          	sw	a4,-2024(gp) # 20000120 <_edata>
     cf8:	6795                	lui	a5,0x5
     cfa:	b087c783          	lbu	a5,-1272(a5) # 4b08 <MyQuaDesc>
     cfe:	fef41623          	sh	a5,-20(s0)
     d02:	a209                	j	e04 <__stack_size+0x604>
     d04:	57fd                	li	a5,-1
     d06:	fef407a3          	sb	a5,-17(s0)
     d0a:	a8ed                	j	e04 <__stack_size+0x604>
     d0c:	8281c783          	lbu	a5,-2008(gp) # 20000130 <USBHS_DevSpeed>
     d10:	0ff7f713          	andi	a4,a5,255
     d14:	4785                	li	a5,1
     d16:	06f71663          	bne	a4,a5,d82 <__stack_size+0x582>
     d1a:	6795                	lui	a5,0x5
     d1c:	a4078793          	addi	a5,a5,-1472 # 4a40 <MyCfgDescr_FS>
     d20:	23bc                	lbu	a5,2(a5)
     d22:	873e                	mv	a4,a5
     d24:	6795                	lui	a5,0x5
     d26:	a4078793          	addi	a5,a5,-1472 # 4a40 <MyCfgDescr_FS>
     d2a:	33bc                	lbu	a5,3(a5)
     d2c:	07c2                	slli	a5,a5,0x10
     d2e:	83c1                	srli	a5,a5,0x10
     d30:	07a2                	slli	a5,a5,0x8
     d32:	07c2                	slli	a5,a5,0x10
     d34:	83c1                	srli	a5,a5,0x10
     d36:	97ba                	add	a5,a5,a4
     d38:	17f9                	addi	a5,a5,-2
     d3a:	863e                	mv	a2,a5
     d3c:	6795                	lui	a5,0x5
     d3e:	a4278593          	addi	a1,a5,-1470 # 4a42 <MyCfgDescr_FS+0x2>
     d42:	200007b7          	lui	a5,0x20000
     d46:	04678513          	addi	a0,a5,70 # 20000046 <TAB_USB_HS_OSC_DESC+0x2>
     d4a:	135020ef          	jal	ra,367e <memcpy>
     d4e:	20000737          	lui	a4,0x20000
     d52:	04470713          	addi	a4,a4,68 # 20000044 <TAB_USB_HS_OSC_DESC>
     d56:	80e1ac23          	sw	a4,-2024(gp) # 20000120 <_edata>
     d5a:	6795                	lui	a5,0x5
     d5c:	a4078793          	addi	a5,a5,-1472 # 4a40 <MyCfgDescr_FS>
     d60:	23bc                	lbu	a5,2(a5)
     d62:	01079713          	slli	a4,a5,0x10
     d66:	8341                	srli	a4,a4,0x10
     d68:	6795                	lui	a5,0x5
     d6a:	a4078793          	addi	a5,a5,-1472 # 4a40 <MyCfgDescr_FS>
     d6e:	33bc                	lbu	a5,3(a5)
     d70:	07c2                	slli	a5,a5,0x10
     d72:	83c1                	srli	a5,a5,0x10
     d74:	07a2                	slli	a5,a5,0x8
     d76:	07c2                	slli	a5,a5,0x10
     d78:	83c1                	srli	a5,a5,0x10
     d7a:	97ba                	add	a5,a5,a4
     d7c:	fef41623          	sh	a5,-20(s0)
     d80:	a051                	j	e04 <__stack_size+0x604>
     d82:	8281c783          	lbu	a5,-2008(gp) # 20000130 <USBHS_DevSpeed>
     d86:	0ff7f793          	andi	a5,a5,255
     d8a:	e7ad                	bnez	a5,df4 <__stack_size+0x5f4>
     d8c:	6795                	lui	a5,0x5
     d8e:	a8478793          	addi	a5,a5,-1404 # 4a84 <MyCfgDescr_HS>
     d92:	23bc                	lbu	a5,2(a5)
     d94:	873e                	mv	a4,a5
     d96:	6795                	lui	a5,0x5
     d98:	a8478793          	addi	a5,a5,-1404 # 4a84 <MyCfgDescr_HS>
     d9c:	33bc                	lbu	a5,3(a5)
     d9e:	07c2                	slli	a5,a5,0x10
     da0:	83c1                	srli	a5,a5,0x10
     da2:	07a2                	slli	a5,a5,0x8
     da4:	07c2                	slli	a5,a5,0x10
     da6:	83c1                	srli	a5,a5,0x10
     da8:	97ba                	add	a5,a5,a4
     daa:	17f9                	addi	a5,a5,-2
     dac:	863e                	mv	a2,a5
     dae:	6795                	lui	a5,0x5
     db0:	a8678593          	addi	a1,a5,-1402 # 4a86 <MyCfgDescr_HS+0x2>
     db4:	200007b7          	lui	a5,0x20000
     db8:	00278513          	addi	a0,a5,2 # 20000002 <_data_vma+0x2>
     dbc:	0c3020ef          	jal	ra,367e <memcpy>
     dc0:	20000737          	lui	a4,0x20000
     dc4:	00070713          	mv	a4,a4
     dc8:	80e1ac23          	sw	a4,-2024(gp) # 20000120 <_edata>
     dcc:	6795                	lui	a5,0x5
     dce:	a8478793          	addi	a5,a5,-1404 # 4a84 <MyCfgDescr_HS>
     dd2:	23bc                	lbu	a5,2(a5)
     dd4:	01079713          	slli	a4,a5,0x10
     dd8:	8341                	srli	a4,a4,0x10
     dda:	6795                	lui	a5,0x5
     ddc:	a8478793          	addi	a5,a5,-1404 # 4a84 <MyCfgDescr_HS>
     de0:	33bc                	lbu	a5,3(a5)
     de2:	07c2                	slli	a5,a5,0x10
     de4:	83c1                	srli	a5,a5,0x10
     de6:	07a2                	slli	a5,a5,0x8
     de8:	07c2                	slli	a5,a5,0x10
     dea:	83c1                	srli	a5,a5,0x10
     dec:	97ba                	add	a5,a5,a4
     dee:	fef41623          	sh	a5,-20(s0)
     df2:	a809                	j	e04 <__stack_size+0x604>
     df4:	57fd                	li	a5,-1
     df6:	fef407a3          	sb	a5,-17(s0)
     dfa:	a029                	j	e04 <__stack_size+0x604>
     dfc:	57fd                	li	a5,-1
     dfe:	fef407a3          	sb	a5,-17(s0)
     e02:	0001                	nop
     e04:	8221d783          	lhu	a5,-2014(gp) # 2000012a <USBHS_SetupReqLen>
     e08:	07c2                	slli	a5,a5,0x10
     e0a:	83c1                	srli	a5,a5,0x10
     e0c:	fec45703          	lhu	a4,-20(s0)
     e10:	00f77663          	bgeu	a4,a5,e1c <__stack_size+0x61c>
     e14:	fec45703          	lhu	a4,-20(s0)
     e18:	82e19123          	sh	a4,-2014(gp) # 2000012a <USBHS_SetupReqLen>
     e1c:	8221d783          	lhu	a5,-2014(gp) # 2000012a <USBHS_SetupReqLen>
     e20:	01079713          	slli	a4,a5,0x10
     e24:	8341                	srli	a4,a4,0x10
     e26:	03f00793          	li	a5,63
     e2a:	00e7e763          	bltu	a5,a4,e38 <__stack_size+0x638>
     e2e:	8221d783          	lhu	a5,-2014(gp) # 2000012a <USBHS_SetupReqLen>
     e32:	07c2                	slli	a5,a5,0x10
     e34:	83c1                	srli	a5,a5,0x10
     e36:	a019                	j	e3c <__stack_size+0x63c>
     e38:	04000793          	li	a5,64
     e3c:	fef41623          	sh	a5,-20(s0)
     e40:	8181a783          	lw	a5,-2024(gp) # 20000120 <_edata>
     e44:	fec45703          	lhu	a4,-20(s0)
     e48:	863a                	mv	a2,a4
     e4a:	85be                	mv	a1,a5
     e4c:	200007b7          	lui	a5,0x20000
     e50:	14c78513          	addi	a0,a5,332 # 2000014c <USBHS_EP0_Buf>
     e54:	02b020ef          	jal	ra,367e <memcpy>
     e58:	8181a703          	lw	a4,-2024(gp) # 20000120 <_edata>
     e5c:	fec45783          	lhu	a5,-20(s0)
     e60:	973e                	add	a4,a4,a5
     e62:	80e1ac23          	sw	a4,-2024(gp) # 20000120 <_edata>
     e66:	ae8d                	j	11d8 <__stack_size+0x9d8>
     e68:	81e1d783          	lhu	a5,-2018(gp) # 20000126 <USBHS_SetupReqValue>
     e6c:	07c2                	slli	a5,a5,0x10
     e6e:	83c1                	srli	a5,a5,0x10
     e70:	0ff7f713          	andi	a4,a5,255
     e74:	82e182a3          	sb	a4,-2011(gp) # 2000012d <USBHS_DevAddr>
     e78:	a685                	j	11d8 <__stack_size+0x9d8>
     e7a:	8241c783          	lbu	a5,-2012(gp) # 2000012c <USBHS_DevConfig>
     e7e:	0ff7f713          	andi	a4,a5,255
     e82:	200007b7          	lui	a5,0x20000
     e86:	14e78623          	sb	a4,332(a5) # 2000014c <USBHS_EP0_Buf>
     e8a:	8221d783          	lhu	a5,-2014(gp) # 2000012a <USBHS_SetupReqLen>
     e8e:	01079713          	slli	a4,a5,0x10
     e92:	8341                	srli	a4,a4,0x10
     e94:	4785                	li	a5,1
     e96:	32e7fc63          	bgeu	a5,a4,11ce <__stack_size+0x9ce>
     e9a:	4705                	li	a4,1
     e9c:	82e19123          	sh	a4,-2014(gp) # 2000012a <USBHS_SetupReqLen>
     ea0:	a63d                	j	11ce <__stack_size+0x9ce>
     ea2:	81e1d783          	lhu	a5,-2018(gp) # 20000126 <USBHS_SetupReqValue>
     ea6:	07c2                	slli	a5,a5,0x10
     ea8:	83c1                	srli	a5,a5,0x10
     eaa:	0ff7f713          	andi	a4,a5,255
     eae:	82e18223          	sb	a4,-2012(gp) # 2000012c <USBHS_DevConfig>
     eb2:	4705                	li	a4,1
     eb4:	82e18523          	sb	a4,-2006(gp) # 20000132 <USBHS_DevEnumStatus>
     eb8:	a605                	j	11d8 <__stack_size+0x9d8>
     eba:	81d1c783          	lbu	a5,-2019(gp) # 20000125 <USBHS_SetupReqType>
     ebe:	0ff7f793          	andi	a5,a5,255
     ec2:	8bfd                	andi	a5,a5,31
     ec4:	eb85                	bnez	a5,ef4 <__stack_size+0x6f4>
     ec6:	81e1d783          	lhu	a5,-2018(gp) # 20000126 <USBHS_SetupReqValue>
     eca:	07c2                	slli	a5,a5,0x10
     ecc:	83c1                	srli	a5,a5,0x10
     ece:	0ff7f713          	andi	a4,a5,255
     ed2:	4785                	li	a5,1
     ed4:	00f71c63          	bne	a4,a5,eec <__stack_size+0x6ec>
     ed8:	8291c783          	lbu	a5,-2007(gp) # 20000131 <USBHS_DevSleepStatus>
     edc:	0ff7f793          	andi	a5,a5,255
     ee0:	9bf9                	andi	a5,a5,-2
     ee2:	0ff7f713          	andi	a4,a5,255
     ee6:	82e184a3          	sb	a4,-2007(gp) # 20000131 <USBHS_DevSleepStatus>
     eea:	a4fd                	j	11d8 <__stack_size+0x9d8>
     eec:	57fd                	li	a5,-1
     eee:	fef407a3          	sb	a5,-17(s0)
     ef2:	a4dd                	j	11d8 <__stack_size+0x9d8>
     ef4:	81d1c783          	lbu	a5,-2019(gp) # 20000125 <USBHS_SetupReqType>
     ef8:	0ff7f793          	andi	a5,a5,255
     efc:	01f7f713          	andi	a4,a5,31
     f00:	4789                	li	a5,2
     f02:	06f71b63          	bne	a4,a5,f78 <__stack_size+0x778>
     f06:	81e1d783          	lhu	a5,-2018(gp) # 20000126 <USBHS_SetupReqValue>
     f0a:	07c2                	slli	a5,a5,0x10
     f0c:	83c1                	srli	a5,a5,0x10
     f0e:	0ff7f793          	andi	a5,a5,255
     f12:	efb9                	bnez	a5,f70 <__stack_size+0x770>
     f14:	8201d783          	lhu	a5,-2016(gp) # 20000128 <USBHS_SetupReqIndex>
     f18:	07c2                	slli	a5,a5,0x10
     f1a:	83c1                	srli	a5,a5,0x10
     f1c:	0ff7f793          	andi	a5,a5,255
     f20:	08200713          	li	a4,130
     f24:	00e78a63          	beq	a5,a4,f38 <__stack_size+0x738>
     f28:	08300713          	li	a4,131
     f2c:	02e78563          	beq	a5,a4,f56 <__stack_size+0x756>
     f30:	4709                	li	a4,2
     f32:	00e78b63          	beq	a5,a4,f48 <__stack_size+0x748>
     f36:	a805                	j	f66 <__stack_size+0x766>
     f38:	400237b7          	lui	a5,0x40023
     f3c:	40078793          	addi	a5,a5,1024 # 40023400 <_eusrstack+0x2001b400>
     f40:	4709                	li	a4,2
     f42:	0ee78123          	sb	a4,226(a5)
     f46:	a82d                	j	f80 <__stack_size+0x780>
     f48:	400237b7          	lui	a5,0x40023
     f4c:	40078793          	addi	a5,a5,1024 # 40023400 <_eusrstack+0x2001b400>
     f50:	0e0781a3          	sb	zero,227(a5)
     f54:	a035                	j	f80 <__stack_size+0x780>
     f56:	400237b7          	lui	a5,0x40023
     f5a:	40078793          	addi	a5,a5,1024 # 40023400 <_eusrstack+0x2001b400>
     f5e:	4709                	li	a4,2
     f60:	0ee78323          	sb	a4,230(a5)
     f64:	a831                	j	f80 <__stack_size+0x780>
     f66:	57fd                	li	a5,-1
     f68:	fef407a3          	sb	a5,-17(s0)
     f6c:	0001                	nop
     f6e:	a809                	j	f80 <__stack_size+0x780>
     f70:	57fd                	li	a5,-1
     f72:	fef407a3          	sb	a5,-17(s0)
     f76:	a48d                	j	11d8 <__stack_size+0x9d8>
     f78:	57fd                	li	a5,-1
     f7a:	fef407a3          	sb	a5,-17(s0)
     f7e:	aca9                	j	11d8 <__stack_size+0x9d8>
     f80:	aca1                	j	11d8 <__stack_size+0x9d8>
     f82:	81d1c783          	lbu	a5,-2019(gp) # 20000125 <USBHS_SetupReqType>
     f86:	0ff7f793          	andi	a5,a5,255
     f8a:	8bfd                	andi	a5,a5,31
     f8c:	e7a1                	bnez	a5,fd4 <__stack_size+0x7d4>
     f8e:	81e1d783          	lhu	a5,-2018(gp) # 20000126 <USBHS_SetupReqValue>
     f92:	07c2                	slli	a5,a5,0x10
     f94:	83c1                	srli	a5,a5,0x10
     f96:	0ff7f713          	andi	a4,a5,255
     f9a:	4785                	li	a5,1
     f9c:	02f71863          	bne	a4,a5,fcc <__stack_size+0x7cc>
     fa0:	6795                	lui	a5,0x5
     fa2:	a4078793          	addi	a5,a5,-1472 # 4a40 <MyCfgDescr_FS>
     fa6:	33fc                	lbu	a5,7(a5)
     fa8:	0207f793          	andi	a5,a5,32
     fac:	cf81                	beqz	a5,fc4 <__stack_size+0x7c4>
     fae:	8291c783          	lbu	a5,-2007(gp) # 20000131 <USBHS_DevSleepStatus>
     fb2:	0ff7f793          	andi	a5,a5,255
     fb6:	0017e793          	ori	a5,a5,1
     fba:	0ff7f713          	andi	a4,a5,255
     fbe:	82e184a3          	sb	a4,-2007(gp) # 20000131 <USBHS_DevSleepStatus>
     fc2:	ac19                	j	11d8 <__stack_size+0x9d8>
     fc4:	57fd                	li	a5,-1
     fc6:	fef407a3          	sb	a5,-17(s0)
     fca:	a439                	j	11d8 <__stack_size+0x9d8>
     fcc:	57fd                	li	a5,-1
     fce:	fef407a3          	sb	a5,-17(s0)
     fd2:	a419                	j	11d8 <__stack_size+0x9d8>
     fd4:	81d1c783          	lbu	a5,-2019(gp) # 20000125 <USBHS_SetupReqType>
     fd8:	0ff7f793          	andi	a5,a5,255
     fdc:	01f7f713          	andi	a4,a5,31
     fe0:	4789                	li	a5,2
     fe2:	0af71863          	bne	a4,a5,1092 <__stack_size+0x892>
     fe6:	81e1d783          	lhu	a5,-2018(gp) # 20000126 <USBHS_SetupReqValue>
     fea:	07c2                	slli	a5,a5,0x10
     fec:	83c1                	srli	a5,a5,0x10
     fee:	0ff7f793          	andi	a5,a5,255
     ff2:	e3c5                	bnez	a5,1092 <__stack_size+0x892>
     ff4:	8201d783          	lhu	a5,-2016(gp) # 20000128 <USBHS_SetupReqIndex>
     ff8:	07c2                	slli	a5,a5,0x10
     ffa:	83c1                	srli	a5,a5,0x10
     ffc:	0ff7f793          	andi	a5,a5,255
    1000:	08200713          	li	a4,130
    1004:	00e78a63          	beq	a5,a4,1018 <__stack_size+0x818>
    1008:	08300713          	li	a4,131
    100c:	04e78c63          	beq	a5,a4,1064 <__stack_size+0x864>
    1010:	4709                	li	a4,2
    1012:	02e78663          	beq	a5,a4,103e <__stack_size+0x83e>
    1016:	a895                	j	108a <__stack_size+0x88a>
    1018:	400237b7          	lui	a5,0x40023
    101c:	40078793          	addi	a5,a5,1024 # 40023400 <_eusrstack+0x2001b400>
    1020:	0e27c783          	lbu	a5,226(a5)
    1024:	0ff7f713          	andi	a4,a5,255
    1028:	400237b7          	lui	a5,0x40023
    102c:	40078793          	addi	a5,a5,1024 # 40023400 <_eusrstack+0x2001b400>
    1030:	00376713          	ori	a4,a4,3
    1034:	0ff77713          	andi	a4,a4,255
    1038:	0ee78123          	sb	a4,226(a5)
    103c:	a8a1                	j	1094 <__stack_size+0x894>
    103e:	400237b7          	lui	a5,0x40023
    1042:	40078793          	addi	a5,a5,1024 # 40023400 <_eusrstack+0x2001b400>
    1046:	0e37c783          	lbu	a5,227(a5)
    104a:	0ff7f713          	andi	a4,a5,255
    104e:	400237b7          	lui	a5,0x40023
    1052:	40078793          	addi	a5,a5,1024 # 40023400 <_eusrstack+0x2001b400>
    1056:	00376713          	ori	a4,a4,3
    105a:	0ff77713          	andi	a4,a4,255
    105e:	0ee781a3          	sb	a4,227(a5)
    1062:	a80d                	j	1094 <__stack_size+0x894>
    1064:	400237b7          	lui	a5,0x40023
    1068:	40078793          	addi	a5,a5,1024 # 40023400 <_eusrstack+0x2001b400>
    106c:	0e67c783          	lbu	a5,230(a5)
    1070:	0ff7f713          	andi	a4,a5,255
    1074:	400237b7          	lui	a5,0x40023
    1078:	40078793          	addi	a5,a5,1024 # 40023400 <_eusrstack+0x2001b400>
    107c:	00376713          	ori	a4,a4,3
    1080:	0ff77713          	andi	a4,a4,255
    1084:	0ee78323          	sb	a4,230(a5)
    1088:	a031                	j	1094 <__stack_size+0x894>
    108a:	57fd                	li	a5,-1
    108c:	fef407a3          	sb	a5,-17(s0)
    1090:	a011                	j	1094 <__stack_size+0x894>
    1092:	0001                	nop
    1094:	a291                	j	11d8 <__stack_size+0x9d8>
    1096:	200007b7          	lui	a5,0x20000
    109a:	14078623          	sb	zero,332(a5) # 2000014c <USBHS_EP0_Buf>
    109e:	8221d783          	lhu	a5,-2014(gp) # 2000012a <USBHS_SetupReqLen>
    10a2:	01079713          	slli	a4,a5,0x10
    10a6:	8341                	srli	a4,a4,0x10
    10a8:	4785                	li	a5,1
    10aa:	12e7f463          	bgeu	a5,a4,11d2 <__stack_size+0x9d2>
    10ae:	4705                	li	a4,1
    10b0:	82e19123          	sh	a4,-2014(gp) # 2000012a <USBHS_SetupReqLen>
    10b4:	aa39                	j	11d2 <__stack_size+0x9d2>
    10b6:	200007b7          	lui	a5,0x20000
    10ba:	14078623          	sb	zero,332(a5) # 2000014c <USBHS_EP0_Buf>
    10be:	200007b7          	lui	a5,0x20000
    10c2:	14c78793          	addi	a5,a5,332 # 2000014c <USBHS_EP0_Buf>
    10c6:	000780a3          	sb	zero,1(a5)
    10ca:	81d1c783          	lbu	a5,-2019(gp) # 20000125 <USBHS_SetupReqType>
    10ce:	0ff7f793          	andi	a5,a5,255
    10d2:	01f7f713          	andi	a4,a5,31
    10d6:	4789                	li	a5,2
    10d8:	0af71263          	bne	a4,a5,117c <__stack_size+0x97c>
    10dc:	8201d783          	lhu	a5,-2016(gp) # 20000128 <USBHS_SetupReqIndex>
    10e0:	07c2                	slli	a5,a5,0x10
    10e2:	83c1                	srli	a5,a5,0x10
    10e4:	0ff7f793          	andi	a5,a5,255
    10e8:	08200713          	li	a4,130
    10ec:	00e78a63          	beq	a5,a4,1100 <__stack_size+0x900>
    10f0:	08300713          	li	a4,131
    10f4:	04e78c63          	beq	a5,a4,114c <__stack_size+0x94c>
    10f8:	4709                	li	a4,2
    10fa:	02e78663          	beq	a5,a4,1126 <__stack_size+0x926>
    10fe:	a895                	j	1172 <__stack_size+0x972>
    1100:	400237b7          	lui	a5,0x40023
    1104:	40078793          	addi	a5,a5,1024 # 40023400 <_eusrstack+0x2001b400>
    1108:	0e27c783          	lbu	a5,226(a5)
    110c:	0ff7f793          	andi	a5,a5,255
    1110:	0037f713          	andi	a4,a5,3
    1114:	478d                	li	a5,3
    1116:	08f71563          	bne	a4,a5,11a0 <__stack_size+0x9a0>
    111a:	200007b7          	lui	a5,0x20000
    111e:	4705                	li	a4,1
    1120:	14e78623          	sb	a4,332(a5) # 2000014c <USBHS_EP0_Buf>
    1124:	a8b5                	j	11a0 <__stack_size+0x9a0>
    1126:	400237b7          	lui	a5,0x40023
    112a:	40078793          	addi	a5,a5,1024 # 40023400 <_eusrstack+0x2001b400>
    112e:	0e37c783          	lbu	a5,227(a5)
    1132:	0ff7f793          	andi	a5,a5,255
    1136:	0037f713          	andi	a4,a5,3
    113a:	478d                	li	a5,3
    113c:	06f71463          	bne	a4,a5,11a4 <__stack_size+0x9a4>
    1140:	200007b7          	lui	a5,0x20000
    1144:	4705                	li	a4,1
    1146:	14e78623          	sb	a4,332(a5) # 2000014c <USBHS_EP0_Buf>
    114a:	a8a9                	j	11a4 <__stack_size+0x9a4>
    114c:	400237b7          	lui	a5,0x40023
    1150:	40078793          	addi	a5,a5,1024 # 40023400 <_eusrstack+0x2001b400>
    1154:	0e67c783          	lbu	a5,230(a5)
    1158:	0ff7f793          	andi	a5,a5,255
    115c:	0037f713          	andi	a4,a5,3
    1160:	478d                	li	a5,3
    1162:	04f71363          	bne	a4,a5,11a8 <__stack_size+0x9a8>
    1166:	200007b7          	lui	a5,0x20000
    116a:	4705                	li	a4,1
    116c:	14e78623          	sb	a4,332(a5) # 2000014c <USBHS_EP0_Buf>
    1170:	a825                	j	11a8 <__stack_size+0x9a8>
    1172:	57fd                	li	a5,-1
    1174:	fef407a3          	sb	a5,-17(s0)
    1178:	0001                	nop
    117a:	a805                	j	11aa <__stack_size+0x9aa>
    117c:	81d1c783          	lbu	a5,-2019(gp) # 20000125 <USBHS_SetupReqType>
    1180:	0ff7f793          	andi	a5,a5,255
    1184:	8bfd                	andi	a5,a5,31
    1186:	e395                	bnez	a5,11aa <__stack_size+0x9aa>
    1188:	8291c783          	lbu	a5,-2007(gp) # 20000131 <USBHS_DevSleepStatus>
    118c:	0ff7f793          	andi	a5,a5,255
    1190:	8b85                	andi	a5,a5,1
    1192:	cf81                	beqz	a5,11aa <__stack_size+0x9aa>
    1194:	200007b7          	lui	a5,0x20000
    1198:	4709                	li	a4,2
    119a:	14e78623          	sb	a4,332(a5) # 2000014c <USBHS_EP0_Buf>
    119e:	a031                	j	11aa <__stack_size+0x9aa>
    11a0:	0001                	nop
    11a2:	a021                	j	11aa <__stack_size+0x9aa>
    11a4:	0001                	nop
    11a6:	a011                	j	11aa <__stack_size+0x9aa>
    11a8:	0001                	nop
    11aa:	8221d783          	lhu	a5,-2014(gp) # 2000012a <USBHS_SetupReqLen>
    11ae:	01079713          	slli	a4,a5,0x10
    11b2:	8341                	srli	a4,a4,0x10
    11b4:	4789                	li	a5,2
    11b6:	02e7f063          	bgeu	a5,a4,11d6 <__stack_size+0x9d6>
    11ba:	4709                	li	a4,2
    11bc:	82e19123          	sh	a4,-2014(gp) # 2000012a <USBHS_SetupReqLen>
    11c0:	a819                	j	11d6 <__stack_size+0x9d6>
    11c2:	57fd                	li	a5,-1
    11c4:	fef407a3          	sb	a5,-17(s0)
    11c8:	a801                	j	11d8 <__stack_size+0x9d8>
    11ca:	0001                	nop
    11cc:	a031                	j	11d8 <__stack_size+0x9d8>
    11ce:	0001                	nop
    11d0:	a021                	j	11d8 <__stack_size+0x9d8>
    11d2:	0001                	nop
    11d4:	a011                	j	11d8 <__stack_size+0x9d8>
    11d6:	0001                	nop
    11d8:	fef44703          	lbu	a4,-17(s0)
    11dc:	0ff00793          	li	a5,255
    11e0:	02f71163          	bne	a4,a5,1202 <__stack_size+0xa02>
    11e4:	400237b7          	lui	a5,0x40023
    11e8:	40078793          	addi	a5,a5,1024 # 40023400 <_eusrstack+0x2001b400>
    11ec:	472d                	li	a4,11
    11ee:	0ce78d23          	sb	a4,218(a5)
    11f2:	400237b7          	lui	a5,0x40023
    11f6:	40078793          	addi	a5,a5,1024 # 40023400 <_eusrstack+0x2001b400>
    11fa:	472d                	li	a4,11
    11fc:	0ce78da3          	sb	a4,219(a5)
    1200:	a05d                	j	12a6 <__stack_size+0xaa6>
    1202:	81d1c783          	lbu	a5,-2019(gp) # 20000125 <USBHS_SetupReqType>
    1206:	0ff7f793          	andi	a5,a5,255
    120a:	07e2                	slli	a5,a5,0x18
    120c:	87e1                	srai	a5,a5,0x18
    120e:	0607d263          	bgez	a5,1272 <__stack_size+0xa72>
    1212:	8221d783          	lhu	a5,-2014(gp) # 2000012a <USBHS_SetupReqLen>
    1216:	01079713          	slli	a4,a5,0x10
    121a:	8341                	srli	a4,a4,0x10
    121c:	04000793          	li	a5,64
    1220:	00e7e763          	bltu	a5,a4,122e <__stack_size+0xa2e>
    1224:	8221d783          	lhu	a5,-2014(gp) # 2000012a <USBHS_SetupReqLen>
    1228:	07c2                	slli	a5,a5,0x10
    122a:	83c1                	srli	a5,a5,0x10
    122c:	a019                	j	1232 <__stack_size+0xa32>
    122e:	04000793          	li	a5,64
    1232:	fef41623          	sh	a5,-20(s0)
    1236:	8221d783          	lhu	a5,-2014(gp) # 2000012a <USBHS_SetupReqLen>
    123a:	01079713          	slli	a4,a5,0x10
    123e:	8341                	srli	a4,a4,0x10
    1240:	fec45783          	lhu	a5,-20(s0)
    1244:	40f707b3          	sub	a5,a4,a5
    1248:	01079713          	slli	a4,a5,0x10
    124c:	8341                	srli	a4,a4,0x10
    124e:	82e19123          	sh	a4,-2014(gp) # 2000012a <USBHS_SetupReqLen>
    1252:	400237b7          	lui	a5,0x40023
    1256:	40078793          	addi	a5,a5,1024 # 40023400 <_eusrstack+0x2001b400>
    125a:	fec45703          	lhu	a4,-20(s0)
    125e:	0ce79c23          	sh	a4,216(a5)
    1262:	400237b7          	lui	a5,0x40023
    1266:	40078793          	addi	a5,a5,1024 # 40023400 <_eusrstack+0x2001b400>
    126a:	4721                	li	a4,8
    126c:	0ce78d23          	sb	a4,218(a5)
    1270:	a81d                	j	12a6 <__stack_size+0xaa6>
    1272:	8221d783          	lhu	a5,-2014(gp) # 2000012a <USBHS_SetupReqLen>
    1276:	07c2                	slli	a5,a5,0x10
    1278:	83c1                	srli	a5,a5,0x10
    127a:	ef99                	bnez	a5,1298 <__stack_size+0xa98>
    127c:	400237b7          	lui	a5,0x40023
    1280:	40078793          	addi	a5,a5,1024 # 40023400 <_eusrstack+0x2001b400>
    1284:	0c079c23          	sh	zero,216(a5)
    1288:	400237b7          	lui	a5,0x40023
    128c:	40078793          	addi	a5,a5,1024 # 40023400 <_eusrstack+0x2001b400>
    1290:	4721                	li	a4,8
    1292:	0ce78d23          	sb	a4,218(a5)
    1296:	a801                	j	12a6 <__stack_size+0xaa6>
    1298:	400237b7          	lui	a5,0x40023
    129c:	40078793          	addi	a5,a5,1024 # 40023400 <_eusrstack+0x2001b400>
    12a0:	4721                	li	a4,8
    12a2:	0ce78da3          	sb	a4,219(a5)
    12a6:	400237b7          	lui	a5,0x40023
    12aa:	40078793          	addi	a5,a5,1024 # 40023400 <_eusrstack+0x2001b400>
    12ae:	02000713          	li	a4,32
    12b2:	a7b8                	sb	a4,10(a5)
    12b4:	a879                	j	1352 <__stack_size+0xb52>
    12b6:	feb44783          	lbu	a5,-21(s0)
    12ba:	8b85                	andi	a5,a5,1
    12bc:	cb95                	beqz	a5,12f0 <__stack_size+0xaf0>
    12be:	82018223          	sb	zero,-2012(gp) # 2000012c <USBHS_DevConfig>
    12c2:	820182a3          	sb	zero,-2011(gp) # 2000012d <USBHS_DevAddr>
    12c6:	820184a3          	sb	zero,-2007(gp) # 20000131 <USBHS_DevSleepStatus>
    12ca:	82018523          	sb	zero,-2006(gp) # 20000132 <USBHS_DevEnumStatus>
    12ce:	400237b7          	lui	a5,0x40023
    12d2:	40078793          	addi	a5,a5,1024 # 40023400 <_eusrstack+0x2001b400>
    12d6:	000781a3          	sb	zero,3(a5)
    12da:	86eff0ef          	jal	ra,348 <USBHS_Device_Endp_Init>
    12de:	4505                	li	a0,1
    12e0:	2e01                	jal	15f0 <UART2_ParaInit>
    12e2:	400237b7          	lui	a5,0x40023
    12e6:	40078793          	addi	a5,a5,1024 # 40023400 <_eusrstack+0x2001b400>
    12ea:	4705                	li	a4,1
    12ec:	a7b8                	sb	a4,10(a5)
    12ee:	a095                	j	1352 <__stack_size+0xb52>
    12f0:	feb44783          	lbu	a5,-21(s0)
    12f4:	8b91                	andi	a5,a5,4
    12f6:	c7b9                	beqz	a5,1344 <__stack_size+0xb44>
    12f8:	400237b7          	lui	a5,0x40023
    12fc:	40078793          	addi	a5,a5,1024 # 40023400 <_eusrstack+0x2001b400>
    1300:	4711                	li	a4,4
    1302:	a7b8                	sb	a4,10(a5)
    1304:	400237b7          	lui	a5,0x40023
    1308:	40078793          	addi	a5,a5,1024 # 40023400 <_eusrstack+0x2001b400>
    130c:	379c                	lbu	a5,9(a5)
    130e:	0ff7f793          	andi	a5,a5,255
    1312:	8b91                	andi	a5,a5,4
    1314:	cf91                	beqz	a5,1330 <__stack_size+0xb30>
    1316:	8291c783          	lbu	a5,-2007(gp) # 20000131 <USBHS_DevSleepStatus>
    131a:	0ff7f793          	andi	a5,a5,255
    131e:	0027e793          	ori	a5,a5,2
    1322:	0ff7f713          	andi	a4,a5,255
    1326:	82e184a3          	sb	a4,-2007(gp) # 20000131 <USBHS_DevSleepStatus>
    132a:	8291c783          	lbu	a5,-2007(gp) # 20000131 <USBHS_DevSleepStatus>
    132e:	a015                	j	1352 <__stack_size+0xb52>
    1330:	8291c783          	lbu	a5,-2007(gp) # 20000131 <USBHS_DevSleepStatus>
    1334:	0ff7f793          	andi	a5,a5,255
    1338:	9bf5                	andi	a5,a5,-3
    133a:	0ff7f713          	andi	a4,a5,255
    133e:	82e184a3          	sb	a4,-2007(gp) # 20000131 <USBHS_DevSleepStatus>
    1342:	a801                	j	1352 <__stack_size+0xb52>
    1344:	400237b7          	lui	a5,0x40023
    1348:	40078793          	addi	a5,a5,1024 # 40023400 <_eusrstack+0x2001b400>
    134c:	feb44703          	lbu	a4,-21(s0)
    1350:	a7b8                	sb	a4,10(a5)
    1352:	0001                	nop
    1354:	4472                	lw	s0,28(sp)
    1356:	6105                	addi	sp,sp,32
    1358:	30200073          	mret

0000135c <NVIC_EnableIRQ>:
    135c:	1101                	addi	sp,sp,-32
    135e:	ce22                	sw	s0,28(sp)
    1360:	1000                	addi	s0,sp,32
    1362:	fea42623          	sw	a0,-20(s0)
    1366:	fec42783          	lw	a5,-20(s0)
    136a:	8bfd                	andi	a5,a5,31
    136c:	4705                	li	a4,1
    136e:	00f716b3          	sll	a3,a4,a5
    1372:	e000e737          	lui	a4,0xe000e
    1376:	fec42783          	lw	a5,-20(s0)
    137a:	8395                	srli	a5,a5,0x5
    137c:	04078793          	addi	a5,a5,64
    1380:	078a                	slli	a5,a5,0x2
    1382:	97ba                	add	a5,a5,a4
    1384:	c394                	sw	a3,0(a5)
    1386:	0001                	nop
    1388:	4472                	lw	s0,28(sp)
    138a:	6105                	addi	sp,sp,32
    138c:	8082                	ret

0000138e <RCC_Configuration>:
    138e:	1141                	addi	sp,sp,-16
    1390:	c606                	sw	ra,12(sp)
    1392:	c422                	sw	s0,8(sp)
    1394:	0800                	addi	s0,sp,16
    1396:	4585                	li	a1,1
    1398:	4511                	li	a0,4
    139a:	774010ef          	jal	ra,2b0e <RCC_APB2PeriphClockCmd>
    139e:	4585                	li	a1,1
    13a0:	00020537          	lui	a0,0x20
    13a4:	7b0010ef          	jal	ra,2b54 <RCC_APB1PeriphClockCmd>
    13a8:	4585                	li	a1,1
    13aa:	4505                	li	a0,1
    13ac:	7a8010ef          	jal	ra,2b54 <RCC_APB1PeriphClockCmd>
    13b0:	4585                	li	a1,1
    13b2:	4505                	li	a0,1
    13b4:	714010ef          	jal	ra,2ac8 <RCC_AHBPeriphClockCmd>
    13b8:	4781                	li	a5,0
    13ba:	853e                	mv	a0,a5
    13bc:	40b2                	lw	ra,12(sp)
    13be:	4422                	lw	s0,8(sp)
    13c0:	0141                	addi	sp,sp,16
    13c2:	8082                	ret

000013c4 <TIM2_Init>:
    13c4:	1101                	addi	sp,sp,-32
    13c6:	ce06                	sw	ra,28(sp)
    13c8:	cc22                	sw	s0,24(sp)
    13ca:	1000                	addi	s0,sp,32
    13cc:	fe042223          	sw	zero,-28(s0)
    13d0:	fe042423          	sw	zero,-24(s0)
    13d4:	fe041623          	sh	zero,-20(s0)
    13d8:	40000537          	lui	a0,0x40000
    13dc:	17d010ef          	jal	ra,2d58 <TIM_DeInit>
    13e0:	06300793          	li	a5,99
    13e4:	fef41423          	sh	a5,-24(s0)
    13e8:	200007b7          	lui	a5,0x20000
    13ec:	1087a703          	lw	a4,264(a5) # 20000108 <SystemCoreClock>
    13f0:	000f47b7          	lui	a5,0xf4
    13f4:	24078793          	addi	a5,a5,576 # f4240 <_data_lma+0xef690>
    13f8:	02f757b3          	divu	a5,a4,a5
    13fc:	07c2                	slli	a5,a5,0x10
    13fe:	83c1                	srli	a5,a5,0x10
    1400:	17fd                	addi	a5,a5,-1
    1402:	07c2                	slli	a5,a5,0x10
    1404:	83c1                	srli	a5,a5,0x10
    1406:	fef41223          	sh	a5,-28(s0)
    140a:	fe041523          	sh	zero,-22(s0)
    140e:	fe041323          	sh	zero,-26(s0)
    1412:	fe440793          	addi	a5,s0,-28
    1416:	85be                	mv	a1,a5
    1418:	40000537          	lui	a0,0x40000
    141c:	285010ef          	jal	ra,2ea0 <TIM_TimeBaseInit>
    1420:	4585                	li	a1,1
    1422:	40000537          	lui	a0,0x40000
    1426:	49b010ef          	jal	ra,30c0 <TIM_ClearFlag>
    142a:	4605                	li	a2,1
    142c:	4585                	li	a1,1
    142e:	40000537          	lui	a0,0x40000
    1432:	427010ef          	jal	ra,3058 <TIM_ITConfig>
    1436:	02c00513          	li	a0,44
    143a:	370d                	jal	135c <NVIC_EnableIRQ>
    143c:	4585                	li	a1,1
    143e:	40000537          	lui	a0,0x40000
    1442:	3c7010ef          	jal	ra,3008 <TIM_Cmd>
    1446:	0001                	nop
    1448:	40f2                	lw	ra,28(sp)
    144a:	4462                	lw	s0,24(sp)
    144c:	6105                	addi	sp,sp,32
    144e:	8082                	ret

00001450 <UART2_CfgInit>:
    1450:	7139                	addi	sp,sp,-64
    1452:	de06                	sw	ra,60(sp)
    1454:	dc22                	sw	s0,56(sp)
    1456:	0080                	addi	s0,sp,64
    1458:	fca42623          	sw	a0,-52(s0)
    145c:	87ae                	mv	a5,a1
    145e:	8732                	mv	a4,a2
    1460:	fcf405a3          	sb	a5,-53(s0)
    1464:	87ba                	mv	a5,a4
    1466:	fcf40523          	sb	a5,-54(s0)
    146a:	fc042e23          	sw	zero,-36(s0)
    146e:	fe042023          	sw	zero,-32(s0)
    1472:	fe042223          	sw	zero,-28(s0)
    1476:	fe042423          	sw	zero,-24(s0)
    147a:	fc042823          	sw	zero,-48(s0)
    147e:	fc042a23          	sw	zero,-44(s0)
    1482:	fc042c23          	sw	zero,-40(s0)
    1486:	4591                	li	a1,4
    1488:	400117b7          	lui	a5,0x40011
    148c:	80078513          	addi	a0,a5,-2048 # 40010800 <_eusrstack+0x20008800>
    1490:	288010ef          	jal	ra,2718 <GPIO_SetBits>
    1494:	4791                	li	a5,4
    1496:	fcf41823          	sh	a5,-48(s0)
    149a:	478d                	li	a5,3
    149c:	fcf42a23          	sw	a5,-44(s0)
    14a0:	47c1                	li	a5,16
    14a2:	fcf42c23          	sw	a5,-40(s0)
    14a6:	fd040793          	addi	a5,s0,-48
    14aa:	85be                	mv	a1,a5
    14ac:	400117b7          	lui	a5,0x40011
    14b0:	80078513          	addi	a0,a5,-2048 # 40010800 <_eusrstack+0x20008800>
    14b4:	042010ef          	jal	ra,24f6 <GPIO_Init>
    14b8:	400047b7          	lui	a5,0x40004
    14bc:	40078793          	addi	a5,a5,1024 # 40004400 <_eusrstack+0x1fffc400>
    14c0:	27de                	lhu	a5,12(a5)
    14c2:	01079713          	slli	a4,a5,0x10
    14c6:	8341                	srli	a4,a4,0x10
    14c8:	400047b7          	lui	a5,0x40004
    14cc:	40078793          	addi	a5,a5,1024 # 40004400 <_eusrstack+0x1fffc400>
    14d0:	9b4d                	andi	a4,a4,-13
    14d2:	0742                	slli	a4,a4,0x10
    14d4:	8341                	srli	a4,a4,0x10
    14d6:	a7da                	sh	a4,12(a5)
    14d8:	47a1                	li	a5,8
    14da:	fcf41823          	sh	a5,-48(s0)
    14de:	04800793          	li	a5,72
    14e2:	fcf42c23          	sw	a5,-40(s0)
    14e6:	fd040793          	addi	a5,s0,-48
    14ea:	85be                	mv	a1,a5
    14ec:	400117b7          	lui	a5,0x40011
    14f0:	80078513          	addi	a0,a5,-2048 # 40010800 <_eusrstack+0x20008800>
    14f4:	002010ef          	jal	ra,24f6 <GPIO_Init>
    14f8:	4791                	li	a5,4
    14fa:	fcf41823          	sh	a5,-48(s0)
    14fe:	478d                	li	a5,3
    1500:	fcf42a23          	sw	a5,-44(s0)
    1504:	47e1                	li	a5,24
    1506:	fcf42c23          	sw	a5,-40(s0)
    150a:	fd040793          	addi	a5,s0,-48
    150e:	85be                	mv	a1,a5
    1510:	400117b7          	lui	a5,0x40011
    1514:	80078513          	addi	a0,a5,-2048 # 40010800 <_eusrstack+0x20008800>
    1518:	7df000ef          	jal	ra,24f6 <GPIO_Init>
    151c:	77e1                	lui	a5,0xffff8
    151e:	fcf41823          	sh	a5,-48(s0)
    1522:	478d                	li	a5,3
    1524:	fcf42a23          	sw	a5,-44(s0)
    1528:	47c1                	li	a5,16
    152a:	fcf42c23          	sw	a5,-40(s0)
    152e:	fd040793          	addi	a5,s0,-48
    1532:	85be                	mv	a1,a5
    1534:	400117b7          	lui	a5,0x40011
    1538:	80078513          	addi	a0,a5,-2048 # 40010800 <_eusrstack+0x20008800>
    153c:	7bb000ef          	jal	ra,24f6 <GPIO_Init>
    1540:	fcc42783          	lw	a5,-52(s0)
    1544:	fcf42e23          	sw	a5,-36(s0)
    1548:	fe041023          	sh	zero,-32(s0)
    154c:	fcb44703          	lbu	a4,-53(s0)
    1550:	4785                	li	a5,1
    1552:	00f71663          	bne	a4,a5,155e <UART2_CfgInit+0x10e>
    1556:	678d                	lui	a5,0x3
    1558:	fef41123          	sh	a5,-30(s0)
    155c:	a821                	j	1574 <UART2_CfgInit+0x124>
    155e:	fcb44703          	lbu	a4,-53(s0)
    1562:	4789                	li	a5,2
    1564:	00f71663          	bne	a4,a5,1570 <UART2_CfgInit+0x120>
    1568:	6789                	lui	a5,0x2
    156a:	fef41123          	sh	a5,-30(s0)
    156e:	a019                	j	1574 <UART2_CfgInit+0x124>
    1570:	fe041123          	sh	zero,-30(s0)
    1574:	fca44703          	lbu	a4,-54(s0)
    1578:	4785                	li	a5,1
    157a:	00f71a63          	bne	a4,a5,158e <UART2_CfgInit+0x13e>
    157e:	60000793          	li	a5,1536
    1582:	fef41223          	sh	a5,-28(s0)
    1586:	6785                	lui	a5,0x1
    1588:	fef41023          	sh	a5,-32(s0)
    158c:	a005                	j	15ac <UART2_CfgInit+0x15c>
    158e:	fca44703          	lbu	a4,-54(s0)
    1592:	4789                	li	a5,2
    1594:	00f71a63          	bne	a4,a5,15a8 <UART2_CfgInit+0x158>
    1598:	40000793          	li	a5,1024
    159c:	fef41223          	sh	a5,-28(s0)
    15a0:	6785                	lui	a5,0x1
    15a2:	fef41023          	sh	a5,-32(s0)
    15a6:	a019                	j	15ac <UART2_CfgInit+0x15c>
    15a8:	fe041223          	sh	zero,-28(s0)
    15ac:	fe041423          	sh	zero,-24(s0)
    15b0:	47b1                	li	a5,12
    15b2:	fef41323          	sh	a5,-26(s0)
    15b6:	fdc40793          	addi	a5,s0,-36
    15ba:	85be                	mv	a1,a5
    15bc:	400047b7          	lui	a5,0x40004
    15c0:	40078513          	addi	a0,a5,1024 # 40004400 <_eusrstack+0x1fffc400>
    15c4:	329010ef          	jal	ra,30ec <USART_Init>
    15c8:	04000593          	li	a1,64
    15cc:	400047b7          	lui	a5,0x40004
    15d0:	40078513          	addi	a0,a5,1024 # 40004400 <_eusrstack+0x1fffc400>
    15d4:	661010ef          	jal	ra,3434 <USART_ClearFlag>
    15d8:	4585                	li	a1,1
    15da:	400047b7          	lui	a5,0x40004
    15de:	40078513          	addi	a0,a5,1024 # 40004400 <_eusrstack+0x1fffc400>
    15e2:	523010ef          	jal	ra,3304 <USART_Cmd>
    15e6:	0001                	nop
    15e8:	50f2                	lw	ra,60(sp)
    15ea:	5462                	lw	s0,56(sp)
    15ec:	6121                	addi	sp,sp,64
    15ee:	8082                	ret

000015f0 <UART2_ParaInit>:
    15f0:	7179                	addi	sp,sp,-48
    15f2:	d622                	sw	s0,44(sp)
    15f4:	1800                	addi	s0,sp,48
    15f6:	87aa                	mv	a5,a0
    15f8:	fcf40fa3          	sb	a5,-33(s0)
    15fc:	c8019a23          	sh	zero,-876(gp) # 2000059c <Uart>
    1600:	c9418793          	addi	a5,gp,-876 # 2000059c <Uart>
    1604:	00079123          	sh	zero,2(a5)
    1608:	c9418793          	addi	a5,gp,-876 # 2000059c <Uart>
    160c:	00079223          	sh	zero,4(a5)
    1610:	c9418793          	addi	a5,gp,-876 # 2000059c <Uart>
    1614:	00078323          	sb	zero,6(a5)
    1618:	c9418793          	addi	a5,gp,-876 # 2000059c <Uart>
    161c:	4779                	li	a4,30
    161e:	b3f8                	sb	a4,7(a5)
    1620:	c9418793          	addi	a5,gp,-876 # 2000059c <Uart>
    1624:	00079423          	sh	zero,8(a5)
    1628:	c9418793          	addi	a5,gp,-876 # 2000059c <Uart>
    162c:	00079523          	sh	zero,10(a5)
    1630:	c9418793          	addi	a5,gp,-876 # 2000059c <Uart>
    1634:	00079623          	sh	zero,12(a5)
    1638:	fe0407a3          	sb	zero,-17(s0)
    163c:	a831                	j	1658 <UART2_ParaInit+0x68>
    163e:	fef44783          	lbu	a5,-17(s0)
    1642:	c9418713          	addi	a4,gp,-876 # 2000059c <Uart>
    1646:	0786                	slli	a5,a5,0x1
    1648:	97ba                	add	a5,a5,a4
    164a:	00079723          	sh	zero,14(a5)
    164e:	fef44783          	lbu	a5,-17(s0)
    1652:	0785                	addi	a5,a5,1
    1654:	fef407a3          	sb	a5,-17(s0)
    1658:	fef44703          	lbu	a4,-17(s0)
    165c:	4785                	li	a5,1
    165e:	fee7f0e3          	bgeu	a5,a4,163e <UART2_ParaInit+0x4e>
    1662:	c9418793          	addi	a5,gp,-876 # 2000059c <Uart>
    1666:	00078923          	sb	zero,18(a5)
    166a:	c9418793          	addi	a5,gp,-876 # 2000059c <Uart>
    166e:	00079a23          	sh	zero,20(a5)
    1672:	c9418793          	addi	a5,gp,-876 # 2000059c <Uart>
    1676:	00079b23          	sh	zero,22(a5)
    167a:	c9418793          	addi	a5,gp,-876 # 2000059c <Uart>
    167e:	00078c23          	sb	zero,24(a5)
    1682:	c9418793          	addi	a5,gp,-876 # 2000059c <Uart>
    1686:	00079d23          	sh	zero,26(a5)
    168a:	c9418793          	addi	a5,gp,-876 # 2000059c <Uart>
    168e:	00078e23          	sb	zero,28(a5)
    1692:	c9418793          	addi	a5,gp,-876 # 2000059c <Uart>
    1696:	00078ea3          	sb	zero,29(a5)
    169a:	8201a623          	sw	zero,-2004(gp) # 20000134 <UARTx_Rx_DMACurCount>
    169e:	8201a823          	sw	zero,-2000(gp) # 20000138 <UARTx_Rx_DMALastCount>
    16a2:	fdf44783          	lbu	a5,-33(s0)
    16a6:	c7a9                	beqz	a5,16f0 <UART2_ParaInit+0x100>
    16a8:	c9418793          	addi	a5,gp,-876 # 2000059c <Uart>
    16ac:	00078f23          	sb	zero,30(a5)
    16b0:	c9418793          	addi	a5,gp,-876 # 2000059c <Uart>
    16b4:	fc200713          	li	a4,-62
    16b8:	bff8                	sb	a4,31(a5)
    16ba:	c9418793          	addi	a5,gp,-876 # 2000059c <Uart>
    16be:	4705                	li	a4,1
    16c0:	02e78023          	sb	a4,32(a5)
    16c4:	c9418793          	addi	a5,gp,-876 # 2000059c <Uart>
    16c8:	020780a3          	sb	zero,33(a5)
    16cc:	c9418793          	addi	a5,gp,-876 # 2000059c <Uart>
    16d0:	02078123          	sb	zero,34(a5)
    16d4:	c9418793          	addi	a5,gp,-876 # 2000059c <Uart>
    16d8:	020781a3          	sb	zero,35(a5)
    16dc:	c9418793          	addi	a5,gp,-876 # 2000059c <Uart>
    16e0:	4721                	li	a4,8
    16e2:	02e78223          	sb	a4,36(a5)
    16e6:	c9418793          	addi	a5,gp,-876 # 2000059c <Uart>
    16ea:	4779                	li	a4,30
    16ec:	02e782a3          	sb	a4,37(a5)
    16f0:	0001                	nop
    16f2:	5432                	lw	s0,44(sp)
    16f4:	6145                	addi	sp,sp,48
    16f6:	8082                	ret

000016f8 <UART2_DMAInit>:
    16f8:	715d                	addi	sp,sp,-80
    16fa:	c686                	sw	ra,76(sp)
    16fc:	c4a2                	sw	s0,72(sp)
    16fe:	0880                	addi	s0,sp,80
    1700:	87aa                	mv	a5,a0
    1702:	fab42c23          	sw	a1,-72(s0)
    1706:	fac42a23          	sw	a2,-76(s0)
    170a:	faf40fa3          	sb	a5,-65(s0)
    170e:	fc042223          	sw	zero,-60(s0)
    1712:	fc042423          	sw	zero,-56(s0)
    1716:	fc042623          	sw	zero,-52(s0)
    171a:	fc042823          	sw	zero,-48(s0)
    171e:	fc042a23          	sw	zero,-44(s0)
    1722:	fc042c23          	sw	zero,-40(s0)
    1726:	fc042e23          	sw	zero,-36(s0)
    172a:	fe042023          	sw	zero,-32(s0)
    172e:	fe042223          	sw	zero,-28(s0)
    1732:	fe042423          	sw	zero,-24(s0)
    1736:	fe042623          	sw	zero,-20(s0)
    173a:	fbf44783          	lbu	a5,-65(s0)
    173e:	ebb5                	bnez	a5,17b2 <UART2_DMAInit+0xba>
    1740:	400207b7          	lui	a5,0x40020
    1744:	08078513          	addi	a0,a5,128 # 40020080 <_eusrstack+0x20018080>
    1748:	1b5000ef          	jal	ra,20fc <DMA_DeInit>
    174c:	400047b7          	lui	a5,0x40004
    1750:	40478793          	addi	a5,a5,1028 # 40004404 <_eusrstack+0x1fffc404>
    1754:	fcf42223          	sw	a5,-60(s0)
    1758:	fb842783          	lw	a5,-72(s0)
    175c:	fcf42423          	sw	a5,-56(s0)
    1760:	47c1                	li	a5,16
    1762:	fcf42623          	sw	a5,-52(s0)
    1766:	fb442783          	lw	a5,-76(s0)
    176a:	fcf42823          	sw	a5,-48(s0)
    176e:	fc042a23          	sw	zero,-44(s0)
    1772:	08000793          	li	a5,128
    1776:	fcf42c23          	sw	a5,-40(s0)
    177a:	fc042e23          	sw	zero,-36(s0)
    177e:	fe042023          	sw	zero,-32(s0)
    1782:	fe042223          	sw	zero,-28(s0)
    1786:	6785                	lui	a5,0x1
    1788:	fef42423          	sw	a5,-24(s0)
    178c:	fe042623          	sw	zero,-20(s0)
    1790:	fc440793          	addi	a5,s0,-60
    1794:	85be                	mv	a1,a5
    1796:	400207b7          	lui	a5,0x40020
    179a:	08078513          	addi	a0,a5,128 # 40020080 <_eusrstack+0x20018080>
    179e:	471000ef          	jal	ra,240e <DMA_Init>
    17a2:	4585                	li	a1,1
    17a4:	400207b7          	lui	a5,0x40020
    17a8:	08078513          	addi	a0,a5,128 # 40020080 <_eusrstack+0x20018080>
    17ac:	50b000ef          	jal	ra,24b6 <DMA_Cmd>
    17b0:	a895                	j	1824 <UART2_DMAInit+0x12c>
    17b2:	400207b7          	lui	a5,0x40020
    17b6:	06c78513          	addi	a0,a5,108 # 4002006c <_eusrstack+0x2001806c>
    17ba:	143000ef          	jal	ra,20fc <DMA_DeInit>
    17be:	400047b7          	lui	a5,0x40004
    17c2:	40478793          	addi	a5,a5,1028 # 40004404 <_eusrstack+0x1fffc404>
    17c6:	fcf42223          	sw	a5,-60(s0)
    17ca:	fb842783          	lw	a5,-72(s0)
    17ce:	fcf42423          	sw	a5,-56(s0)
    17d2:	fc042623          	sw	zero,-52(s0)
    17d6:	fb442783          	lw	a5,-76(s0)
    17da:	fcf42823          	sw	a5,-48(s0)
    17de:	fc042a23          	sw	zero,-44(s0)
    17e2:	08000793          	li	a5,128
    17e6:	fcf42c23          	sw	a5,-40(s0)
    17ea:	fc042e23          	sw	zero,-36(s0)
    17ee:	fe042023          	sw	zero,-32(s0)
    17f2:	02000793          	li	a5,32
    17f6:	fef42223          	sw	a5,-28(s0)
    17fa:	6785                	lui	a5,0x1
    17fc:	fef42423          	sw	a5,-24(s0)
    1800:	fe042623          	sw	zero,-20(s0)
    1804:	fc440793          	addi	a5,s0,-60
    1808:	85be                	mv	a1,a5
    180a:	400207b7          	lui	a5,0x40020
    180e:	06c78513          	addi	a0,a5,108 # 4002006c <_eusrstack+0x2001806c>
    1812:	3fd000ef          	jal	ra,240e <DMA_Init>
    1816:	4585                	li	a1,1
    1818:	400207b7          	lui	a5,0x40020
    181c:	06c78513          	addi	a0,a5,108 # 4002006c <_eusrstack+0x2001806c>
    1820:	497000ef          	jal	ra,24b6 <DMA_Cmd>
    1824:	0001                	nop
    1826:	40b6                	lw	ra,76(sp)
    1828:	4426                	lw	s0,72(sp)
    182a:	6161                	addi	sp,sp,80
    182c:	8082                	ret

0000182e <UART2_Init>:
    182e:	1101                	addi	sp,sp,-32
    1830:	ce06                	sw	ra,28(sp)
    1832:	cc22                	sw	s0,24(sp)
    1834:	1000                	addi	s0,sp,32
    1836:	87aa                	mv	a5,a0
    1838:	feb42423          	sw	a1,-24(s0)
    183c:	8736                	mv	a4,a3
    183e:	fef407a3          	sb	a5,-17(s0)
    1842:	87b2                	mv	a5,a2
    1844:	fef40723          	sb	a5,-18(s0)
    1848:	87ba                	mv	a5,a4
    184a:	fef406a3          	sb	a5,-19(s0)
    184e:	4601                	li	a2,0
    1850:	04000593          	li	a1,64
    1854:	400047b7          	lui	a5,0x40004
    1858:	40078513          	addi	a0,a5,1024 # 40004400 <_eusrstack+0x1fffc400>
    185c:	301010ef          	jal	ra,335c <USART_DMACmd>
    1860:	4581                	li	a1,0
    1862:	400207b7          	lui	a5,0x40020
    1866:	06c78513          	addi	a0,a5,108 # 4002006c <_eusrstack+0x2001806c>
    186a:	44d000ef          	jal	ra,24b6 <DMA_Cmd>
    186e:	4581                	li	a1,0
    1870:	400207b7          	lui	a5,0x40020
    1874:	08078513          	addi	a0,a5,128 # 40020080 <_eusrstack+0x20018080>
    1878:	43f000ef          	jal	ra,24b6 <DMA_Cmd>
    187c:	fed44703          	lbu	a4,-19(s0)
    1880:	fee44783          	lbu	a5,-18(s0)
    1884:	863a                	mv	a2,a4
    1886:	85be                	mv	a1,a5
    1888:	fe842503          	lw	a0,-24(s0)
    188c:	36d1                	jal	1450 <UART2_CfgInit>
    188e:	4601                	li	a2,0
    1890:	cc018593          	addi	a1,gp,-832 # 200005c8 <UART2_Tx_Buf>
    1894:	4501                	li	a0,0
    1896:	358d                	jal	16f8 <UART2_DMAInit>
    1898:	6785                	lui	a5,0x1
    189a:	80078613          	addi	a2,a5,-2048 # 800 <__stack_size>
    189e:	200017b7          	lui	a5,0x20001
    18a2:	9c878593          	addi	a1,a5,-1592 # 200009c8 <UART2_Rx_Buf>
    18a6:	4505                	li	a0,1
    18a8:	3d81                	jal	16f8 <UART2_DMAInit>
    18aa:	4605                	li	a2,1
    18ac:	04000593          	li	a1,64
    18b0:	400047b7          	lui	a5,0x40004
    18b4:	40078513          	addi	a0,a5,1024 # 40004400 <_eusrstack+0x1fffc400>
    18b8:	2a5010ef          	jal	ra,335c <USART_DMACmd>
    18bc:	fef44783          	lbu	a5,-17(s0)
    18c0:	853e                	mv	a0,a5
    18c2:	333d                	jal	15f0 <UART2_ParaInit>
    18c4:	0001                	nop
    18c6:	40f2                	lw	ra,28(sp)
    18c8:	4462                	lw	s0,24(sp)
    18ca:	6105                	addi	sp,sp,32
    18cc:	8082                	ret

000018ce <UART2_USB_Init>:
    18ce:	1101                	addi	sp,sp,-32
    18d0:	ce06                	sw	ra,28(sp)
    18d2:	cc22                	sw	s0,24(sp)
    18d4:	1000                	addi	s0,sp,32
    18d6:	c9418793          	addi	a5,gp,-876 # 2000059c <Uart>
    18da:	0217c783          	lbu	a5,33(a5)
    18de:	0ff7f793          	andi	a5,a5,255
    18e2:	07e2                	slli	a5,a5,0x18
    18e4:	873e                	mv	a4,a5
    18e6:	c9418793          	addi	a5,gp,-876 # 2000059c <Uart>
    18ea:	0207c783          	lbu	a5,32(a5)
    18ee:	0ff7f793          	andi	a5,a5,255
    18f2:	07c2                	slli	a5,a5,0x10
    18f4:	97ba                	add	a5,a5,a4
    18f6:	fef42623          	sw	a5,-20(s0)
    18fa:	c9418793          	addi	a5,gp,-876 # 2000059c <Uart>
    18fe:	3ffc                	lbu	a5,31(a5)
    1900:	0ff7f793          	andi	a5,a5,255
    1904:	07a2                	slli	a5,a5,0x8
    1906:	873e                	mv	a4,a5
    1908:	c9418793          	addi	a5,gp,-876 # 2000059c <Uart>
    190c:	2ffc                	lbu	a5,30(a5)
    190e:	0ff7f793          	andi	a5,a5,255
    1912:	97ba                	add	a5,a5,a4
    1914:	fec42703          	lw	a4,-20(s0)
    1918:	97ba                	add	a5,a5,a4
    191a:	fef42623          	sw	a5,-20(s0)
    191e:	c9418793          	addi	a5,gp,-876 # 2000059c <Uart>
    1922:	0227c783          	lbu	a5,34(a5)
    1926:	fef405a3          	sb	a5,-21(s0)
    192a:	c9418793          	addi	a5,gp,-876 # 2000059c <Uart>
    192e:	0237c783          	lbu	a5,35(a5)
    1932:	fef40523          	sb	a5,-22(s0)
    1936:	fea44703          	lbu	a4,-22(s0)
    193a:	feb44783          	lbu	a5,-21(s0)
    193e:	86ba                	mv	a3,a4
    1940:	863e                	mv	a2,a5
    1942:	fec42583          	lw	a1,-20(s0)
    1946:	4501                	li	a0,0
    1948:	35dd                	jal	182e <UART2_Init>
    194a:	400237b7          	lui	a5,0x40023
    194e:	40078793          	addi	a5,a5,1024 # 40023400 <_eusrstack+0x2001b400>
    1952:	cc018713          	addi	a4,gp,-832 # 200005c8 <UART2_Tx_Buf>
    1956:	d3d8                	sw	a4,36(a5)
    1958:	400237b7          	lui	a5,0x40023
    195c:	40078793          	addi	a5,a5,1024 # 40023400 <_eusrstack+0x2001b400>
    1960:	0e37c783          	lbu	a5,227(a5)
    1964:	0ff7f713          	andi	a4,a5,255
    1968:	400237b7          	lui	a5,0x40023
    196c:	40078793          	addi	a5,a5,1024 # 40023400 <_eusrstack+0x2001b400>
    1970:	9b71                	andi	a4,a4,-4
    1972:	0ff77713          	andi	a4,a4,255
    1976:	0ee781a3          	sb	a4,227(a5)
    197a:	400237b7          	lui	a5,0x40023
    197e:	40078713          	addi	a4,a5,1024 # 40023400 <_eusrstack+0x2001b400>
    1982:	400237b7          	lui	a5,0x40023
    1986:	40078793          	addi	a5,a5,1024 # 40023400 <_eusrstack+0x2001b400>
    198a:	0e374703          	lbu	a4,227(a4) # e000e0e3 <_eusrstack+0xc00060e3>
    198e:	0ff77713          	andi	a4,a4,255
    1992:	0ee781a3          	sb	a4,227(a5)
    1996:	0001                	nop
    1998:	40f2                	lw	ra,28(sp)
    199a:	4462                	lw	s0,24(sp)
    199c:	6105                	addi	sp,sp,32
    199e:	8082                	ret

000019a0 <NVIC_EnableIRQ>:
    19a0:	1101                	addi	sp,sp,-32
    19a2:	ce22                	sw	s0,28(sp)
    19a4:	1000                	addi	s0,sp,32
    19a6:	fea42623          	sw	a0,-20(s0)
    19aa:	fec42783          	lw	a5,-20(s0)
    19ae:	8bfd                	andi	a5,a5,31
    19b0:	4705                	li	a4,1
    19b2:	00f716b3          	sll	a3,a4,a5
    19b6:	e000e737          	lui	a4,0xe000e
    19ba:	fec42783          	lw	a5,-20(s0)
    19be:	8395                	srli	a5,a5,0x5
    19c0:	04078793          	addi	a5,a5,64
    19c4:	078a                	slli	a5,a5,0x2
    19c6:	97ba                	add	a5,a5,a4
    19c8:	c394                	sw	a3,0(a5)
    19ca:	0001                	nop
    19cc:	4472                	lw	s0,28(sp)
    19ce:	6105                	addi	sp,sp,32
    19d0:	8082                	ret

000019d2 <NVIC_DisableIRQ>:
    19d2:	1101                	addi	sp,sp,-32
    19d4:	ce22                	sw	s0,28(sp)
    19d6:	1000                	addi	s0,sp,32
    19d8:	fea42623          	sw	a0,-20(s0)
    19dc:	fec42783          	lw	a5,-20(s0)
    19e0:	8bfd                	andi	a5,a5,31
    19e2:	4705                	li	a4,1
    19e4:	00f716b3          	sll	a3,a4,a5
    19e8:	e000e737          	lui	a4,0xe000e
    19ec:	fec42783          	lw	a5,-20(s0)
    19f0:	8395                	srli	a5,a5,0x5
    19f2:	06078793          	addi	a5,a5,96
    19f6:	078a                	slli	a5,a5,0x2
    19f8:	97ba                	add	a5,a5,a4
    19fa:	c394                	sw	a3,0(a5)
    19fc:	0001                	nop
    19fe:	4472                	lw	s0,28(sp)
    1a00:	6105                	addi	sp,sp,32
    1a02:	8082                	ret

00001a04 <usb_send>:
    1a04:	1101                	addi	sp,sp,-32
    1a06:	ce06                	sw	ra,28(sp)
    1a08:	cc22                	sw	s0,24(sp)
    1a0a:	1000                	addi	s0,sp,32
    1a0c:	fea42623          	sw	a0,-20(s0)
    1a10:	87ae                	mv	a5,a1
    1a12:	fef405a3          	sb	a5,-21(s0)
    1a16:	fec42583          	lw	a1,-20(s0)
    1a1a:	200017b7          	lui	a5,0x20001
    1a1e:	1c878513          	addi	a0,a5,456 # 200011c8 <USB_tx_Buf>
    1a22:	62d010ef          	jal	ra,384e <strcpy>
    1a26:	05500513          	li	a0,85
    1a2a:	3765                	jal	19d2 <NVIC_DisableIRQ>
    1a2c:	400237b7          	lui	a5,0x40023
    1a30:	40078793          	addi	a5,a5,1024 # 40023400 <_eusrstack+0x2001b400>
    1a34:	20001737          	lui	a4,0x20001
    1a38:	1c870713          	addi	a4,a4,456 # 200011c8 <USB_tx_Buf>
    1a3c:	d3b8                	sw	a4,96(a5)
    1a3e:	400237b7          	lui	a5,0x40023
    1a42:	40078793          	addi	a5,a5,1024 # 40023400 <_eusrstack+0x2001b400>
    1a46:	feb44703          	lbu	a4,-21(s0)
    1a4a:	0742                	slli	a4,a4,0x10
    1a4c:	8341                	srli	a4,a4,0x10
    1a4e:	0ee79023          	sh	a4,224(a5)
    1a52:	400237b7          	lui	a5,0x40023
    1a56:	40078793          	addi	a5,a5,1024 # 40023400 <_eusrstack+0x2001b400>
    1a5a:	0e27c783          	lbu	a5,226(a5)
    1a5e:	0ff7f713          	andi	a4,a5,255
    1a62:	400237b7          	lui	a5,0x40023
    1a66:	40078793          	addi	a5,a5,1024 # 40023400 <_eusrstack+0x2001b400>
    1a6a:	9b71                	andi	a4,a4,-4
    1a6c:	0ff77713          	andi	a4,a4,255
    1a70:	0ee78123          	sb	a4,226(a5)
    1a74:	400237b7          	lui	a5,0x40023
    1a78:	40078713          	addi	a4,a5,1024 # 40023400 <_eusrstack+0x2001b400>
    1a7c:	400237b7          	lui	a5,0x40023
    1a80:	40078793          	addi	a5,a5,1024 # 40023400 <_eusrstack+0x2001b400>
    1a84:	0e274703          	lbu	a4,226(a4)
    1a88:	0ff77713          	andi	a4,a4,255
    1a8c:	0ee78123          	sb	a4,226(a5)
    1a90:	05500513          	li	a0,85
    1a94:	3731                	jal	19a0 <NVIC_EnableIRQ>
    1a96:	0001                	nop
    1a98:	40f2                	lw	ra,28(sp)
    1a9a:	4462                	lw	s0,24(sp)
    1a9c:	6105                	addi	sp,sp,32
    1a9e:	8082                	ret

00001aa0 <NMI_Handler>:
    1aa0:	1141                	addi	sp,sp,-16
    1aa2:	c622                	sw	s0,12(sp)
    1aa4:	0800                	addi	s0,sp,16
    1aa6:	0001                	nop
    1aa8:	4432                	lw	s0,12(sp)
    1aaa:	0141                	addi	sp,sp,16
    1aac:	30200073          	mret

00001ab0 <TIM2_IRQHandler>:
    1ab0:	1141                	addi	sp,sp,-16
    1ab2:	c622                	sw	s0,12(sp)
    1ab4:	0800                	addi	s0,sp,16
    1ab6:	8351c783          	lbu	a5,-1995(gp) # 2000013d <tog.5606>
    1aba:	cb81                	beqz	a5,1aca <TIM2_IRQHandler+0x1a>
    1abc:	400117b7          	lui	a5,0x40011
    1ac0:	80078793          	addi	a5,a5,-2048 # 40010800 <_eusrstack+0x20008800>
    1ac4:	6721                	lui	a4,0x8
    1ac6:	cb98                	sw	a4,16(a5)
    1ac8:	a039                	j	1ad6 <TIM2_IRQHandler+0x26>
    1aca:	400117b7          	lui	a5,0x40011
    1ace:	80078793          	addi	a5,a5,-2048 # 40010800 <_eusrstack+0x20008800>
    1ad2:	6721                	lui	a4,0x8
    1ad4:	cbd8                	sw	a4,20(a5)
    1ad6:	8351c783          	lbu	a5,-1995(gp) # 2000013d <tog.5606>
    1ada:	0017c793          	xori	a5,a5,1
    1ade:	0ff7f713          	andi	a4,a5,255
    1ae2:	82e18aa3          	sb	a4,-1995(gp) # 2000013d <tog.5606>
    1ae6:	c9418793          	addi	a5,gp,-876 # 2000059c <Uart>
    1aea:	23fc                	lbu	a5,6(a5)
    1aec:	0ff7f793          	andi	a5,a5,255
    1af0:	0785                	addi	a5,a5,1
    1af2:	0ff7f713          	andi	a4,a5,255
    1af6:	c9418793          	addi	a5,gp,-876 # 2000059c <Uart>
    1afa:	a3f8                	sb	a4,6(a5)
    1afc:	c9418713          	addi	a4,gp,-876 # 2000059c <Uart>
    1b00:	2f38                	lbu	a4,26(a4)
    1b02:	0ff77713          	andi	a4,a4,255
    1b06:	c9418793          	addi	a5,gp,-876 # 2000059c <Uart>
    1b0a:	3fbc                	lbu	a5,27(a5)
    1b0c:	0ff7f793          	andi	a5,a5,255
    1b10:	07a2                	slli	a5,a5,0x8
    1b12:	8fd9                	or	a5,a5,a4
    1b14:	07c2                	slli	a5,a5,0x10
    1b16:	83c1                	srli	a5,a5,0x10
    1b18:	0785                	addi	a5,a5,1
    1b1a:	01079713          	slli	a4,a5,0x10
    1b1e:	8341                	srli	a4,a4,0x10
    1b20:	c9418793          	addi	a5,gp,-876 # 2000059c <Uart>
    1b24:	0ff77593          	andi	a1,a4,255
    1b28:	2fb4                	lbu	a3,26(a5)
    1b2a:	8a81                	andi	a3,a3,0
    1b2c:	8636                	mv	a2,a3
    1b2e:	86ae                	mv	a3,a1
    1b30:	8ed1                	or	a3,a3,a2
    1b32:	afb4                	sb	a3,26(a5)
    1b34:	8321                	srli	a4,a4,0x8
    1b36:	01071613          	slli	a2,a4,0x10
    1b3a:	8241                	srli	a2,a2,0x10
    1b3c:	3fb8                	lbu	a4,27(a5)
    1b3e:	8b01                	andi	a4,a4,0
    1b40:	86ba                	mv	a3,a4
    1b42:	8732                	mv	a4,a2
    1b44:	8f55                	or	a4,a4,a3
    1b46:	bfb8                	sb	a4,27(a5)
    1b48:	400007b7          	lui	a5,0x40000
    1b4c:	5779                	li	a4,-2
    1b4e:	ab9a                	sh	a4,16(a5)
    1b50:	0001                	nop
    1b52:	4432                	lw	s0,12(sp)
    1b54:	0141                	addi	sp,sp,16
    1b56:	30200073          	mret

00001b5a <HardFault_Handler>:
    1b5a:	1141                	addi	sp,sp,-16
    1b5c:	c622                	sw	s0,12(sp)
    1b5e:	0800                	addi	s0,sp,16
    1b60:	6795                	lui	a5,0x5
    1b62:	95878513          	addi	a0,a5,-1704 # 4958 <_read+0x12>
    1b66:	4df010ef          	jal	ra,3844 <puts>
    1b6a:	a001                	j	1b6a <HardFault_Handler+0x10>

00001b6c <main>:
    1b6c:	1101                	addi	sp,sp,-32
    1b6e:	ce06                	sw	ra,28(sp)
    1b70:	cc22                	sw	s0,24(sp)
    1b72:	1000                	addi	s0,sp,32
    1b74:	223d                	jal	1ca2 <SystemCoreClockUpdate>
    1b76:	0eb010ef          	jal	ra,3460 <Delay_Init>
    1b7a:	67f1                	lui	a5,0x1c
    1b7c:	20078513          	addi	a0,a5,512 # 1c200 <_data_lma+0x17650>
    1b80:	1ab010ef          	jal	ra,352a <USART_Printf_Init>
    1b84:	200007b7          	lui	a5,0x20000
    1b88:	1087a783          	lw	a5,264(a5) # 20000108 <SystemCoreClock>
    1b8c:	85be                	mv	a1,a5
    1b8e:	6795                	lui	a5,0x5
    1b90:	96478513          	addi	a0,a5,-1692 # 4964 <_read+0x1e>
    1b94:	39d010ef          	jal	ra,3730 <iprintf>
    1b98:	23b1                	jal	20e4 <DBGMCU_GetCHIPID>
    1b9a:	87aa                	mv	a5,a0
    1b9c:	85be                	mv	a1,a5
    1b9e:	6795                	lui	a5,0x5
    1ba0:	97478513          	addi	a0,a5,-1676 # 4974 <_read+0x2e>
    1ba4:	38d010ef          	jal	ra,3730 <iprintf>
    1ba8:	6795                	lui	a5,0x5
    1baa:	98478513          	addi	a0,a5,-1660 # 4984 <_read+0x3e>
    1bae:	497010ef          	jal	ra,3844 <puts>
    1bb2:	fdcff0ef          	jal	ra,138e <RCC_Configuration>
    1bb6:	80fff0ef          	jal	ra,13c4 <TIM2_Init>
    1bba:	4681                	li	a3,0
    1bbc:	4601                	li	a2,0
    1bbe:	67f1                	lui	a5,0x1c
    1bc0:	20078593          	addi	a1,a5,512 # 1c200 <_data_lma+0x17650>
    1bc4:	4505                	li	a0,1
    1bc6:	31a5                	jal	182e <UART2_Init>
    1bc8:	f44fe0ef          	jal	ra,30c <USBHS_RCC_Init>
    1bcc:	4505                	li	a0,1
    1bce:	8a3fe0ef          	jal	ra,470 <USBHS_Device_Init>
    1bd2:	fe041723          	sh	zero,-18(s0)
    1bd6:	fee45783          	lhu	a5,-18(s0)
    1bda:	0785                	addi	a5,a5,1
    1bdc:	fef41723          	sh	a5,-18(s0)
    1be0:	8341c783          	lbu	a5,-1996(gp) # 2000013c <usb_rx_flg1>
    1be4:	dbed                	beqz	a5,1bd6 <main+0x6a>
    1be6:	82018a23          	sb	zero,-1996(gp) # 2000013c <usb_rx_flg1>
    1bea:	200027b7          	lui	a5,0x20002
    1bee:	9c878513          	addi	a0,a5,-1592 # 200019c8 <USB_rx_Buf>
    1bf2:	46d010ef          	jal	ra,385e <strlen>
    1bf6:	87aa                	mv	a5,a0
    1bf8:	0ff7f793          	andi	a5,a5,255
    1bfc:	85be                	mv	a1,a5
    1bfe:	200027b7          	lui	a5,0x20002
    1c02:	9c878513          	addi	a0,a5,-1592 # 200019c8 <USB_rx_Buf>
    1c06:	3bfd                	jal	1a04 <usb_send>
    1c08:	b7f9                	j	1bd6 <main+0x6a>

00001c0a <SystemInit>:
    1c0a:	1141                	addi	sp,sp,-16
    1c0c:	c606                	sw	ra,12(sp)
    1c0e:	c422                	sw	s0,8(sp)
    1c10:	0800                	addi	s0,sp,16
    1c12:	400217b7          	lui	a5,0x40021
    1c16:	4398                	lw	a4,0(a5)
    1c18:	400217b7          	lui	a5,0x40021
    1c1c:	00176713          	ori	a4,a4,1
    1c20:	c398                	sw	a4,0(a5)
    1c22:	400217b7          	lui	a5,0x40021
    1c26:	43d4                	lw	a3,4(a5)
    1c28:	400217b7          	lui	a5,0x40021
    1c2c:	f8ff0737          	lui	a4,0xf8ff0
    1c30:	8f75                	and	a4,a4,a3
    1c32:	c3d8                	sw	a4,4(a5)
    1c34:	400217b7          	lui	a5,0x40021
    1c38:	4394                	lw	a3,0(a5)
    1c3a:	400217b7          	lui	a5,0x40021
    1c3e:	fef70737          	lui	a4,0xfef70
    1c42:	177d                	addi	a4,a4,-1
    1c44:	8f75                	and	a4,a4,a3
    1c46:	c398                	sw	a4,0(a5)
    1c48:	400217b7          	lui	a5,0x40021
    1c4c:	4394                	lw	a3,0(a5)
    1c4e:	400217b7          	lui	a5,0x40021
    1c52:	fffc0737          	lui	a4,0xfffc0
    1c56:	177d                	addi	a4,a4,-1
    1c58:	8f75                	and	a4,a4,a3
    1c5a:	c398                	sw	a4,0(a5)
    1c5c:	400217b7          	lui	a5,0x40021
    1c60:	43d4                	lw	a3,4(a5)
    1c62:	400217b7          	lui	a5,0x40021
    1c66:	ff810737          	lui	a4,0xff810
    1c6a:	177d                	addi	a4,a4,-1
    1c6c:	8f75                	and	a4,a4,a3
    1c6e:	c3d8                	sw	a4,4(a5)
    1c70:	400217b7          	lui	a5,0x40021
    1c74:	4394                	lw	a3,0(a5)
    1c76:	400217b7          	lui	a5,0x40021
    1c7a:	ec000737          	lui	a4,0xec000
    1c7e:	177d                	addi	a4,a4,-1
    1c80:	8f75                	and	a4,a4,a3
    1c82:	c398                	sw	a4,0(a5)
    1c84:	400217b7          	lui	a5,0x40021
    1c88:	00ff0737          	lui	a4,0xff0
    1c8c:	c798                	sw	a4,8(a5)
    1c8e:	400217b7          	lui	a5,0x40021
    1c92:	0207a623          	sw	zero,44(a5) # 4002102c <_eusrstack+0x2001902c>
    1c96:	2ae9                	jal	1e70 <SetSysClock>
    1c98:	0001                	nop
    1c9a:	40b2                	lw	ra,12(sp)
    1c9c:	4422                	lw	s0,8(sp)
    1c9e:	0141                	addi	sp,sp,16
    1ca0:	8082                	ret

00001ca2 <SystemCoreClockUpdate>:
    1ca2:	1101                	addi	sp,sp,-32
    1ca4:	ce22                	sw	s0,28(sp)
    1ca6:	1000                	addi	s0,sp,32
    1ca8:	fe042223          	sw	zero,-28(s0)
    1cac:	fe042623          	sw	zero,-20(s0)
    1cb0:	fe042023          	sw	zero,-32(s0)
    1cb4:	fe042423          	sw	zero,-24(s0)
    1cb8:	400217b7          	lui	a5,0x40021
    1cbc:	43dc                	lw	a5,4(a5)
    1cbe:	8bb1                	andi	a5,a5,12
    1cc0:	fef42223          	sw	a5,-28(s0)
    1cc4:	fe442703          	lw	a4,-28(s0)
    1cc8:	4791                	li	a5,4
    1cca:	02f70463          	beq	a4,a5,1cf2 <SystemCoreClockUpdate+0x50>
    1cce:	fe442703          	lw	a4,-28(s0)
    1cd2:	47a1                	li	a5,8
    1cd4:	02f70863          	beq	a4,a5,1d04 <SystemCoreClockUpdate+0x62>
    1cd8:	fe442783          	lw	a5,-28(s0)
    1cdc:	14079063          	bnez	a5,1e1c <SystemCoreClockUpdate+0x17a>
    1ce0:	200007b7          	lui	a5,0x20000
    1ce4:	007a1737          	lui	a4,0x7a1
    1ce8:	20070713          	addi	a4,a4,512 # 7a1200 <_data_lma+0x79c650>
    1cec:	10e7a423          	sw	a4,264(a5) # 20000108 <SystemCoreClock>
    1cf0:	a281                	j	1e30 <SystemCoreClockUpdate+0x18e>
    1cf2:	200007b7          	lui	a5,0x20000
    1cf6:	007a1737          	lui	a4,0x7a1
    1cfa:	20070713          	addi	a4,a4,512 # 7a1200 <_data_lma+0x79c650>
    1cfe:	10e7a423          	sw	a4,264(a5) # 20000108 <SystemCoreClock>
    1d02:	a23d                	j	1e30 <SystemCoreClockUpdate+0x18e>
    1d04:	400217b7          	lui	a5,0x40021
    1d08:	43d8                	lw	a4,4(a5)
    1d0a:	003c07b7          	lui	a5,0x3c0
    1d0e:	8ff9                	and	a5,a5,a4
    1d10:	fef42623          	sw	a5,-20(s0)
    1d14:	400217b7          	lui	a5,0x40021
    1d18:	43d8                	lw	a4,4(a5)
    1d1a:	67c1                	lui	a5,0x10
    1d1c:	8ff9                	and	a5,a5,a4
    1d1e:	fef42023          	sw	a5,-32(s0)
    1d22:	fec42783          	lw	a5,-20(s0)
    1d26:	83c9                	srli	a5,a5,0x12
    1d28:	0789                	addi	a5,a5,2
    1d2a:	fef42623          	sw	a5,-20(s0)
    1d2e:	fec42703          	lw	a4,-20(s0)
    1d32:	4789                	li	a5,2
    1d34:	00f71563          	bne	a4,a5,1d3e <SystemCoreClockUpdate+0x9c>
    1d38:	47c9                	li	a5,18
    1d3a:	fef42623          	sw	a5,-20(s0)
    1d3e:	fec42703          	lw	a4,-20(s0)
    1d42:	47bd                	li	a5,15
    1d44:	00f71863          	bne	a4,a5,1d54 <SystemCoreClockUpdate+0xb2>
    1d48:	47b5                	li	a5,13
    1d4a:	fef42623          	sw	a5,-20(s0)
    1d4e:	4785                	li	a5,1
    1d50:	fef42423          	sw	a5,-24(s0)
    1d54:	fec42703          	lw	a4,-20(s0)
    1d58:	47c1                	li	a5,16
    1d5a:	00f71563          	bne	a4,a5,1d64 <SystemCoreClockUpdate+0xc2>
    1d5e:	47bd                	li	a5,15
    1d60:	fef42623          	sw	a5,-20(s0)
    1d64:	fec42703          	lw	a4,-20(s0)
    1d68:	47c5                	li	a5,17
    1d6a:	00f71563          	bne	a4,a5,1d74 <SystemCoreClockUpdate+0xd2>
    1d6e:	47c1                	li	a5,16
    1d70:	fef42623          	sw	a5,-20(s0)
    1d74:	fe042783          	lw	a5,-32(s0)
    1d78:	e3b1                	bnez	a5,1dbc <SystemCoreClockUpdate+0x11a>
    1d7a:	400247b7          	lui	a5,0x40024
    1d7e:	80078793          	addi	a5,a5,-2048 # 40023800 <_eusrstack+0x2001b800>
    1d82:	439c                	lw	a5,0(a5)
    1d84:	8bc1                	andi	a5,a5,16
    1d86:	cf91                	beqz	a5,1da2 <SystemCoreClockUpdate+0x100>
    1d88:	fec42703          	lw	a4,-20(s0)
    1d8c:	007a17b7          	lui	a5,0x7a1
    1d90:	20078793          	addi	a5,a5,512 # 7a1200 <_data_lma+0x79c650>
    1d94:	02f70733          	mul	a4,a4,a5
    1d98:	200007b7          	lui	a5,0x20000
    1d9c:	10e7a423          	sw	a4,264(a5) # 20000108 <SystemCoreClock>
    1da0:	a8b1                	j	1dfc <SystemCoreClockUpdate+0x15a>
    1da2:	fec42703          	lw	a4,-20(s0)
    1da6:	003d17b7          	lui	a5,0x3d1
    1daa:	90078793          	addi	a5,a5,-1792 # 3d0900 <_data_lma+0x3cbd50>
    1dae:	02f70733          	mul	a4,a4,a5
    1db2:	200007b7          	lui	a5,0x20000
    1db6:	10e7a423          	sw	a4,264(a5) # 20000108 <SystemCoreClock>
    1dba:	a089                	j	1dfc <SystemCoreClockUpdate+0x15a>
    1dbc:	400217b7          	lui	a5,0x40021
    1dc0:	43d8                	lw	a4,4(a5)
    1dc2:	000207b7          	lui	a5,0x20
    1dc6:	8ff9                	and	a5,a5,a4
    1dc8:	cf91                	beqz	a5,1de4 <SystemCoreClockUpdate+0x142>
    1dca:	fec42703          	lw	a4,-20(s0)
    1dce:	003d17b7          	lui	a5,0x3d1
    1dd2:	90078793          	addi	a5,a5,-1792 # 3d0900 <_data_lma+0x3cbd50>
    1dd6:	02f70733          	mul	a4,a4,a5
    1dda:	200007b7          	lui	a5,0x20000
    1dde:	10e7a423          	sw	a4,264(a5) # 20000108 <SystemCoreClock>
    1de2:	a829                	j	1dfc <SystemCoreClockUpdate+0x15a>
    1de4:	fec42703          	lw	a4,-20(s0)
    1de8:	007a17b7          	lui	a5,0x7a1
    1dec:	20078793          	addi	a5,a5,512 # 7a1200 <_data_lma+0x79c650>
    1df0:	02f70733          	mul	a4,a4,a5
    1df4:	200007b7          	lui	a5,0x20000
    1df8:	10e7a423          	sw	a4,264(a5) # 20000108 <SystemCoreClock>
    1dfc:	fe842703          	lw	a4,-24(s0)
    1e00:	4785                	li	a5,1
    1e02:	02f71663          	bne	a4,a5,1e2e <SystemCoreClockUpdate+0x18c>
    1e06:	200007b7          	lui	a5,0x20000
    1e0a:	1087a783          	lw	a5,264(a5) # 20000108 <SystemCoreClock>
    1e0e:	0017d713          	srli	a4,a5,0x1
    1e12:	200007b7          	lui	a5,0x20000
    1e16:	10e7a423          	sw	a4,264(a5) # 20000108 <SystemCoreClock>
    1e1a:	a811                	j	1e2e <SystemCoreClockUpdate+0x18c>
    1e1c:	200007b7          	lui	a5,0x20000
    1e20:	007a1737          	lui	a4,0x7a1
    1e24:	20070713          	addi	a4,a4,512 # 7a1200 <_data_lma+0x79c650>
    1e28:	10e7a423          	sw	a4,264(a5) # 20000108 <SystemCoreClock>
    1e2c:	a011                	j	1e30 <SystemCoreClockUpdate+0x18e>
    1e2e:	0001                	nop
    1e30:	400217b7          	lui	a5,0x40021
    1e34:	43dc                	lw	a5,4(a5)
    1e36:	8391                	srli	a5,a5,0x4
    1e38:	00f7f713          	andi	a4,a5,15
    1e3c:	200007b7          	lui	a5,0x20000
    1e40:	08878793          	addi	a5,a5,136 # 20000088 <AHBPrescTable>
    1e44:	97ba                	add	a5,a5,a4
    1e46:	239c                	lbu	a5,0(a5)
    1e48:	0ff7f793          	andi	a5,a5,255
    1e4c:	fef42223          	sw	a5,-28(s0)
    1e50:	200007b7          	lui	a5,0x20000
    1e54:	1087a703          	lw	a4,264(a5) # 20000108 <SystemCoreClock>
    1e58:	fe442783          	lw	a5,-28(s0)
    1e5c:	00f75733          	srl	a4,a4,a5
    1e60:	200007b7          	lui	a5,0x20000
    1e64:	10e7a423          	sw	a4,264(a5) # 20000108 <SystemCoreClock>
    1e68:	0001                	nop
    1e6a:	4472                	lw	s0,28(sp)
    1e6c:	6105                	addi	sp,sp,32
    1e6e:	8082                	ret

00001e70 <SetSysClock>:
    1e70:	1141                	addi	sp,sp,-16
    1e72:	c606                	sw	ra,12(sp)
    1e74:	c422                	sw	s0,8(sp)
    1e76:	0800                	addi	s0,sp,16
    1e78:	2031                	jal	1e84 <SetSysClockTo96_HSE>
    1e7a:	0001                	nop
    1e7c:	40b2                	lw	ra,12(sp)
    1e7e:	4422                	lw	s0,8(sp)
    1e80:	0141                	addi	sp,sp,16
    1e82:	8082                	ret

00001e84 <SetSysClockTo96_HSE>:
    1e84:	1101                	addi	sp,sp,-32
    1e86:	ce22                	sw	s0,28(sp)
    1e88:	1000                	addi	s0,sp,32
    1e8a:	fe042623          	sw	zero,-20(s0)
    1e8e:	fe042423          	sw	zero,-24(s0)
    1e92:	400217b7          	lui	a5,0x40021
    1e96:	4394                	lw	a3,0(a5)
    1e98:	400217b7          	lui	a5,0x40021
    1e9c:	6741                	lui	a4,0x10
    1e9e:	8f55                	or	a4,a4,a3
    1ea0:	c398                	sw	a4,0(a5)
    1ea2:	400217b7          	lui	a5,0x40021
    1ea6:	4398                	lw	a4,0(a5)
    1ea8:	000207b7          	lui	a5,0x20
    1eac:	8ff9                	and	a5,a5,a4
    1eae:	fef42423          	sw	a5,-24(s0)
    1eb2:	fec42783          	lw	a5,-20(s0)
    1eb6:	0785                	addi	a5,a5,1
    1eb8:	fef42623          	sw	a5,-20(s0)
    1ebc:	fe842783          	lw	a5,-24(s0)
    1ec0:	e791                	bnez	a5,1ecc <SetSysClockTo96_HSE+0x48>
    1ec2:	fec42703          	lw	a4,-20(s0)
    1ec6:	6785                	lui	a5,0x1
    1ec8:	fcf71de3          	bne	a4,a5,1ea2 <SetSysClockTo96_HSE+0x1e>
    1ecc:	400217b7          	lui	a5,0x40021
    1ed0:	4398                	lw	a4,0(a5)
    1ed2:	000207b7          	lui	a5,0x20
    1ed6:	8ff9                	and	a5,a5,a4
    1ed8:	c789                	beqz	a5,1ee2 <SetSysClockTo96_HSE+0x5e>
    1eda:	4785                	li	a5,1
    1edc:	fef42423          	sw	a5,-24(s0)
    1ee0:	a019                	j	1ee6 <SetSysClockTo96_HSE+0x62>
    1ee2:	fe042423          	sw	zero,-24(s0)
    1ee6:	fe842703          	lw	a4,-24(s0)
    1eea:	4785                	li	a5,1
    1eec:	0af71263          	bne	a4,a5,1f90 <SetSysClockTo96_HSE+0x10c>
    1ef0:	40021737          	lui	a4,0x40021
    1ef4:	400217b7          	lui	a5,0x40021
    1ef8:	4358                	lw	a4,4(a4)
    1efa:	c3d8                	sw	a4,4(a5)
    1efc:	40021737          	lui	a4,0x40021
    1f00:	400217b7          	lui	a5,0x40021
    1f04:	4358                	lw	a4,4(a4)
    1f06:	c3d8                	sw	a4,4(a5)
    1f08:	400217b7          	lui	a5,0x40021
    1f0c:	43d8                	lw	a4,4(a5)
    1f0e:	400217b7          	lui	a5,0x40021
    1f12:	40076713          	ori	a4,a4,1024
    1f16:	c3d8                	sw	a4,4(a5)
    1f18:	400217b7          	lui	a5,0x40021
    1f1c:	43d4                	lw	a3,4(a5)
    1f1e:	400217b7          	lui	a5,0x40021
    1f22:	ffc10737          	lui	a4,0xffc10
    1f26:	177d                	addi	a4,a4,-1
    1f28:	8f75                	and	a4,a4,a3
    1f2a:	c3d8                	sw	a4,4(a5)
    1f2c:	400217b7          	lui	a5,0x40021
    1f30:	43d4                	lw	a3,4(a5)
    1f32:	400217b7          	lui	a5,0x40021
    1f36:	00290737          	lui	a4,0x290
    1f3a:	8f55                	or	a4,a4,a3
    1f3c:	c3d8                	sw	a4,4(a5)
    1f3e:	400217b7          	lui	a5,0x40021
    1f42:	4394                	lw	a3,0(a5)
    1f44:	400217b7          	lui	a5,0x40021
    1f48:	01000737          	lui	a4,0x1000
    1f4c:	8f55                	or	a4,a4,a3
    1f4e:	c398                	sw	a4,0(a5)
    1f50:	0001                	nop
    1f52:	400217b7          	lui	a5,0x40021
    1f56:	4398                	lw	a4,0(a5)
    1f58:	020007b7          	lui	a5,0x2000
    1f5c:	8ff9                	and	a5,a5,a4
    1f5e:	dbf5                	beqz	a5,1f52 <SetSysClockTo96_HSE+0xce>
    1f60:	400217b7          	lui	a5,0x40021
    1f64:	43d8                	lw	a4,4(a5)
    1f66:	400217b7          	lui	a5,0x40021
    1f6a:	9b71                	andi	a4,a4,-4
    1f6c:	c3d8                	sw	a4,4(a5)
    1f6e:	400217b7          	lui	a5,0x40021
    1f72:	43d8                	lw	a4,4(a5)
    1f74:	400217b7          	lui	a5,0x40021
    1f78:	00276713          	ori	a4,a4,2
    1f7c:	c3d8                	sw	a4,4(a5)
    1f7e:	0001                	nop
    1f80:	400217b7          	lui	a5,0x40021
    1f84:	43dc                	lw	a5,4(a5)
    1f86:	00c7f713          	andi	a4,a5,12
    1f8a:	47a1                	li	a5,8
    1f8c:	fef71ae3          	bne	a4,a5,1f80 <SetSysClockTo96_HSE+0xfc>
    1f90:	0001                	nop
    1f92:	4472                	lw	s0,28(sp)
    1f94:	6105                	addi	sp,sp,32
    1f96:	8082                	ret
    1f98:	a001                	j	1f98 <SetSysClockTo96_HSE+0x114>
    1f9a:	a001                	j	1f9a <SetSysClockTo96_HSE+0x116>

00001f9c <Ecall_M_Mode_Handler>:
    1f9c:	a001                	j	1f9c <Ecall_M_Mode_Handler>

00001f9e <Ecall_U_Mode_Handler>:
    1f9e:	a001                	j	1f9e <Ecall_U_Mode_Handler>

00001fa0 <Break_Point_Handler>:
    1fa0:	a001                	j	1fa0 <Break_Point_Handler>

00001fa2 <SysTick_Handler>:
    1fa2:	a001                	j	1fa2 <SysTick_Handler>

00001fa4 <SW_Handler>:
    1fa4:	a001                	j	1fa4 <SW_Handler>

00001fa6 <WWDG_IRQHandler>:
    1fa6:	a001                	j	1fa6 <WWDG_IRQHandler>

00001fa8 <PVD_IRQHandler>:
    1fa8:	a001                	j	1fa8 <PVD_IRQHandler>

00001faa <TAMPER_IRQHandler>:
    1faa:	a001                	j	1faa <TAMPER_IRQHandler>

00001fac <RTC_IRQHandler>:
    1fac:	a001                	j	1fac <RTC_IRQHandler>

00001fae <FLASH_IRQHandler>:
    1fae:	a001                	j	1fae <FLASH_IRQHandler>

00001fb0 <RCC_IRQHandler>:
    1fb0:	a001                	j	1fb0 <RCC_IRQHandler>

00001fb2 <EXTI0_IRQHandler>:
    1fb2:	a001                	j	1fb2 <EXTI0_IRQHandler>

00001fb4 <EXTI1_IRQHandler>:
    1fb4:	a001                	j	1fb4 <EXTI1_IRQHandler>

00001fb6 <EXTI2_IRQHandler>:
    1fb6:	a001                	j	1fb6 <EXTI2_IRQHandler>

00001fb8 <EXTI3_IRQHandler>:
    1fb8:	a001                	j	1fb8 <EXTI3_IRQHandler>

00001fba <EXTI4_IRQHandler>:
    1fba:	a001                	j	1fba <EXTI4_IRQHandler>

00001fbc <DMA1_Channel1_IRQHandler>:
    1fbc:	a001                	j	1fbc <DMA1_Channel1_IRQHandler>

00001fbe <DMA1_Channel2_IRQHandler>:
    1fbe:	a001                	j	1fbe <DMA1_Channel2_IRQHandler>

00001fc0 <DMA1_Channel3_IRQHandler>:
    1fc0:	a001                	j	1fc0 <DMA1_Channel3_IRQHandler>

00001fc2 <DMA1_Channel4_IRQHandler>:
    1fc2:	a001                	j	1fc2 <DMA1_Channel4_IRQHandler>

00001fc4 <DMA1_Channel5_IRQHandler>:
    1fc4:	a001                	j	1fc4 <DMA1_Channel5_IRQHandler>

00001fc6 <DMA1_Channel6_IRQHandler>:
    1fc6:	a001                	j	1fc6 <DMA1_Channel6_IRQHandler>

00001fc8 <DMA1_Channel7_IRQHandler>:
    1fc8:	a001                	j	1fc8 <DMA1_Channel7_IRQHandler>

00001fca <ADC1_2_IRQHandler>:
    1fca:	a001                	j	1fca <ADC1_2_IRQHandler>

00001fcc <USB_HP_CAN1_TX_IRQHandler>:
    1fcc:	a001                	j	1fcc <USB_HP_CAN1_TX_IRQHandler>

00001fce <USB_LP_CAN1_RX0_IRQHandler>:
    1fce:	a001                	j	1fce <USB_LP_CAN1_RX0_IRQHandler>

00001fd0 <CAN1_RX1_IRQHandler>:
    1fd0:	a001                	j	1fd0 <CAN1_RX1_IRQHandler>

00001fd2 <CAN1_SCE_IRQHandler>:
    1fd2:	a001                	j	1fd2 <CAN1_SCE_IRQHandler>

00001fd4 <EXTI9_5_IRQHandler>:
    1fd4:	a001                	j	1fd4 <EXTI9_5_IRQHandler>

00001fd6 <TIM1_BRK_IRQHandler>:
    1fd6:	a001                	j	1fd6 <TIM1_BRK_IRQHandler>

00001fd8 <TIM1_UP_IRQHandler>:
    1fd8:	a001                	j	1fd8 <TIM1_UP_IRQHandler>

00001fda <TIM1_TRG_COM_IRQHandler>:
    1fda:	a001                	j	1fda <TIM1_TRG_COM_IRQHandler>

00001fdc <TIM1_CC_IRQHandler>:
    1fdc:	a001                	j	1fdc <TIM1_CC_IRQHandler>
    1fde:	a001                	j	1fde <TIM1_CC_IRQHandler+0x2>

00001fe0 <TIM3_IRQHandler>:
    1fe0:	a001                	j	1fe0 <TIM3_IRQHandler>

00001fe2 <TIM4_IRQHandler>:
    1fe2:	a001                	j	1fe2 <TIM4_IRQHandler>

00001fe4 <I2C1_EV_IRQHandler>:
    1fe4:	a001                	j	1fe4 <I2C1_EV_IRQHandler>

00001fe6 <I2C1_ER_IRQHandler>:
    1fe6:	a001                	j	1fe6 <I2C1_ER_IRQHandler>

00001fe8 <I2C2_EV_IRQHandler>:
    1fe8:	a001                	j	1fe8 <I2C2_EV_IRQHandler>

00001fea <I2C2_ER_IRQHandler>:
    1fea:	a001                	j	1fea <I2C2_ER_IRQHandler>

00001fec <SPI1_IRQHandler>:
    1fec:	a001                	j	1fec <SPI1_IRQHandler>

00001fee <SPI2_IRQHandler>:
    1fee:	a001                	j	1fee <SPI2_IRQHandler>

00001ff0 <USART1_IRQHandler>:
    1ff0:	a001                	j	1ff0 <USART1_IRQHandler>

00001ff2 <USART2_IRQHandler>:
    1ff2:	a001                	j	1ff2 <USART2_IRQHandler>

00001ff4 <USART3_IRQHandler>:
    1ff4:	a001                	j	1ff4 <USART3_IRQHandler>

00001ff6 <EXTI15_10_IRQHandler>:
    1ff6:	a001                	j	1ff6 <EXTI15_10_IRQHandler>

00001ff8 <RTCAlarm_IRQHandler>:
    1ff8:	a001                	j	1ff8 <RTCAlarm_IRQHandler>

00001ffa <USBWakeUp_IRQHandler>:
    1ffa:	a001                	j	1ffa <USBWakeUp_IRQHandler>

00001ffc <TIM8_BRK_IRQHandler>:
    1ffc:	a001                	j	1ffc <TIM8_BRK_IRQHandler>

00001ffe <TIM8_UP_IRQHandler>:
    1ffe:	a001                	j	1ffe <TIM8_UP_IRQHandler>

00002000 <TIM8_TRG_COM_IRQHandler>:
    2000:	a001                	j	2000 <TIM8_TRG_COM_IRQHandler>

00002002 <TIM8_CC_IRQHandler>:
    2002:	a001                	j	2002 <TIM8_CC_IRQHandler>

00002004 <RNG_IRQHandler>:
    2004:	a001                	j	2004 <RNG_IRQHandler>

00002006 <FSMC_IRQHandler>:
    2006:	a001                	j	2006 <FSMC_IRQHandler>

00002008 <SDIO_IRQHandler>:
    2008:	a001                	j	2008 <SDIO_IRQHandler>

0000200a <TIM5_IRQHandler>:
    200a:	a001                	j	200a <TIM5_IRQHandler>

0000200c <SPI3_IRQHandler>:
    200c:	a001                	j	200c <SPI3_IRQHandler>

0000200e <UART4_IRQHandler>:
    200e:	a001                	j	200e <UART4_IRQHandler>

00002010 <UART5_IRQHandler>:
    2010:	a001                	j	2010 <UART5_IRQHandler>

00002012 <TIM6_IRQHandler>:
    2012:	a001                	j	2012 <TIM6_IRQHandler>

00002014 <TIM7_IRQHandler>:
    2014:	a001                	j	2014 <TIM7_IRQHandler>

00002016 <DMA2_Channel1_IRQHandler>:
    2016:	a001                	j	2016 <DMA2_Channel1_IRQHandler>

00002018 <DMA2_Channel2_IRQHandler>:
    2018:	a001                	j	2018 <DMA2_Channel2_IRQHandler>

0000201a <DMA2_Channel3_IRQHandler>:
    201a:	a001                	j	201a <DMA2_Channel3_IRQHandler>

0000201c <DMA2_Channel4_IRQHandler>:
    201c:	a001                	j	201c <DMA2_Channel4_IRQHandler>

0000201e <DMA2_Channel5_IRQHandler>:
    201e:	a001                	j	201e <DMA2_Channel5_IRQHandler>

00002020 <ETH_IRQHandler>:
    2020:	a001                	j	2020 <ETH_IRQHandler>

00002022 <ETH_WKUP_IRQHandler>:
    2022:	a001                	j	2022 <ETH_WKUP_IRQHandler>

00002024 <CAN2_TX_IRQHandler>:
    2024:	a001                	j	2024 <CAN2_TX_IRQHandler>

00002026 <CAN2_RX0_IRQHandler>:
    2026:	a001                	j	2026 <CAN2_RX0_IRQHandler>

00002028 <CAN2_RX1_IRQHandler>:
    2028:	a001                	j	2028 <CAN2_RX1_IRQHandler>

0000202a <CAN2_SCE_IRQHandler>:
    202a:	a001                	j	202a <CAN2_SCE_IRQHandler>

0000202c <OTG_FS_IRQHandler>:
    202c:	a001                	j	202c <OTG_FS_IRQHandler>

0000202e <USBHSWakeup_IRQHandler>:
    202e:	a001                	j	202e <USBHSWakeup_IRQHandler>
    2030:	a001                	j	2030 <USBHSWakeup_IRQHandler+0x2>

00002032 <DVP_IRQHandler>:
    2032:	a001                	j	2032 <DVP_IRQHandler>

00002034 <UART6_IRQHandler>:
    2034:	a001                	j	2034 <UART6_IRQHandler>

00002036 <UART7_IRQHandler>:
    2036:	a001                	j	2036 <UART7_IRQHandler>

00002038 <UART8_IRQHandler>:
    2038:	a001                	j	2038 <UART8_IRQHandler>

0000203a <TIM9_BRK_IRQHandler>:
    203a:	a001                	j	203a <TIM9_BRK_IRQHandler>

0000203c <TIM9_UP_IRQHandler>:
    203c:	a001                	j	203c <TIM9_UP_IRQHandler>

0000203e <TIM9_TRG_COM_IRQHandler>:
    203e:	a001                	j	203e <TIM9_TRG_COM_IRQHandler>

00002040 <TIM9_CC_IRQHandler>:
    2040:	a001                	j	2040 <TIM9_CC_IRQHandler>

00002042 <TIM10_BRK_IRQHandler>:
    2042:	a001                	j	2042 <TIM10_BRK_IRQHandler>

00002044 <TIM10_UP_IRQHandler>:
    2044:	a001                	j	2044 <TIM10_UP_IRQHandler>

00002046 <TIM10_TRG_COM_IRQHandler>:
    2046:	a001                	j	2046 <TIM10_TRG_COM_IRQHandler>

00002048 <TIM10_CC_IRQHandler>:
    2048:	a001                	j	2048 <TIM10_CC_IRQHandler>

0000204a <DMA2_Channel6_IRQHandler>:
    204a:	a001                	j	204a <DMA2_Channel6_IRQHandler>

0000204c <DMA2_Channel7_IRQHandler>:
    204c:	a001                	j	204c <DMA2_Channel7_IRQHandler>

0000204e <DMA2_Channel8_IRQHandler>:
    204e:	a001                	j	204e <DMA2_Channel8_IRQHandler>

00002050 <DMA2_Channel9_IRQHandler>:
    2050:	a001                	j	2050 <DMA2_Channel9_IRQHandler>

00002052 <DMA2_Channel10_IRQHandler>:
    2052:	a001                	j	2052 <DMA2_Channel10_IRQHandler>

00002054 <DMA2_Channel11_IRQHandler>:
    2054:	a001                	j	2054 <DMA2_Channel11_IRQHandler>

00002056 <handle_reset>:
    2056:	1ffff197          	auipc	gp,0x1ffff
    205a:	8b218193          	addi	gp,gp,-1870 # 20000908 <__global_pointer$>
    205e:	20006117          	auipc	sp,0x20006
    2062:	fa210113          	addi	sp,sp,-94 # 20008000 <_eusrstack>
    2066:	00003517          	auipc	a0,0x3
    206a:	b4a50513          	addi	a0,a0,-1206 # 4bb0 <_data_lma>
    206e:	1fffe597          	auipc	a1,0x1fffe
    2072:	f9258593          	addi	a1,a1,-110 # 20000000 <_data_vma>
    2076:	81818613          	addi	a2,gp,-2024 # 20000120 <_edata>
    207a:	00c5fa63          	bgeu	a1,a2,208e <handle_reset+0x38>
    207e:	00052283          	lw	t0,0(a0)
    2082:	0055a023          	sw	t0,0(a1)
    2086:	0511                	addi	a0,a0,4
    2088:	0591                	addi	a1,a1,4
    208a:	fec5eae3          	bltu	a1,a2,207e <handle_reset+0x28>
    208e:	81818513          	addi	a0,gp,-2024 # 20000120 <_edata>
    2092:	20000597          	auipc	a1,0x20000
    2096:	13a58593          	addi	a1,a1,314 # 200021cc <_ebss>
    209a:	00b57763          	bgeu	a0,a1,20a8 <handle_reset+0x52>
    209e:	00052023          	sw	zero,0(a0)
    20a2:	0511                	addi	a0,a0,4
    20a4:	feb56de3          	bltu	a0,a1,209e <handle_reset+0x48>
    20a8:	42fd                	li	t0,31
    20aa:	bc029073          	csrw	0xbc0,t0
    20ae:	42ad                	li	t0,11
    20b0:	80429073          	csrw	0x804,t0
    20b4:	000062b7          	lui	t0,0x6
    20b8:	08828293          	addi	t0,t0,136 # 6088 <_data_lma+0x14d8>
    20bc:	3002a073          	csrs	mstatus,t0
    20c0:	ffffe297          	auipc	t0,0xffffe
    20c4:	f7828293          	addi	t0,t0,-136 # 38 <_einit>
    20c8:	0032e293          	ori	t0,t0,3
    20cc:	30529073          	csrw	mtvec,t0
    20d0:	b3bff0ef          	jal	ra,1c0a <SystemInit>
    20d4:	00000297          	auipc	t0,0x0
    20d8:	a9828293          	addi	t0,t0,-1384 # 1b6c <main>
    20dc:	34129073          	csrw	mepc,t0
    20e0:	30200073          	mret

000020e4 <DBGMCU_GetCHIPID>:
    20e4:	1141                	addi	sp,sp,-16
    20e6:	c622                	sw	s0,12(sp)
    20e8:	0800                	addi	s0,sp,16
    20ea:	1ffff7b7          	lui	a5,0x1ffff
    20ee:	70478793          	addi	a5,a5,1796 # 1ffff704 <_data_lma+0x1fffab54>
    20f2:	439c                	lw	a5,0(a5)
    20f4:	853e                	mv	a0,a5
    20f6:	4432                	lw	s0,12(sp)
    20f8:	0141                	addi	sp,sp,16
    20fa:	8082                	ret

000020fc <DMA_DeInit>:
    20fc:	1101                	addi	sp,sp,-32
    20fe:	ce22                	sw	s0,28(sp)
    2100:	1000                	addi	s0,sp,32
    2102:	fea42623          	sw	a0,-20(s0)
    2106:	fec42783          	lw	a5,-20(s0)
    210a:	4398                	lw	a4,0(a5)
    210c:	67c1                	lui	a5,0x10
    210e:	17f9                	addi	a5,a5,-2
    2110:	8f7d                	and	a4,a4,a5
    2112:	fec42783          	lw	a5,-20(s0)
    2116:	c398                	sw	a4,0(a5)
    2118:	fec42783          	lw	a5,-20(s0)
    211c:	0007a023          	sw	zero,0(a5) # 10000 <_data_lma+0xb450>
    2120:	fec42783          	lw	a5,-20(s0)
    2124:	0007a223          	sw	zero,4(a5)
    2128:	fec42783          	lw	a5,-20(s0)
    212c:	0007a423          	sw	zero,8(a5)
    2130:	fec42783          	lw	a5,-20(s0)
    2134:	0007a623          	sw	zero,12(a5)
    2138:	fec42703          	lw	a4,-20(s0)
    213c:	400207b7          	lui	a5,0x40020
    2140:	07a1                	addi	a5,a5,8
    2142:	00f71b63          	bne	a4,a5,2158 <DMA_DeInit+0x5c>
    2146:	400207b7          	lui	a5,0x40020
    214a:	43d8                	lw	a4,4(a5)
    214c:	400207b7          	lui	a5,0x40020
    2150:	00f76713          	ori	a4,a4,15
    2154:	c3d8                	sw	a4,4(a5)
    2156:	ac45                	j	2406 <DMA_DeInit+0x30a>
    2158:	fec42703          	lw	a4,-20(s0)
    215c:	400207b7          	lui	a5,0x40020
    2160:	07f1                	addi	a5,a5,28
    2162:	00f71b63          	bne	a4,a5,2178 <DMA_DeInit+0x7c>
    2166:	400207b7          	lui	a5,0x40020
    216a:	43d8                	lw	a4,4(a5)
    216c:	400207b7          	lui	a5,0x40020
    2170:	0f076713          	ori	a4,a4,240
    2174:	c3d8                	sw	a4,4(a5)
    2176:	ac41                	j	2406 <DMA_DeInit+0x30a>
    2178:	fec42703          	lw	a4,-20(s0)
    217c:	400207b7          	lui	a5,0x40020
    2180:	03078793          	addi	a5,a5,48 # 40020030 <_eusrstack+0x20018030>
    2184:	00f71d63          	bne	a4,a5,219e <DMA_DeInit+0xa2>
    2188:	400207b7          	lui	a5,0x40020
    218c:	43d4                	lw	a3,4(a5)
    218e:	400207b7          	lui	a5,0x40020
    2192:	6705                	lui	a4,0x1
    2194:	f0070713          	addi	a4,a4,-256 # f00 <__stack_size+0x700>
    2198:	8f55                	or	a4,a4,a3
    219a:	c3d8                	sw	a4,4(a5)
    219c:	a4ad                	j	2406 <DMA_DeInit+0x30a>
    219e:	fec42703          	lw	a4,-20(s0)
    21a2:	400207b7          	lui	a5,0x40020
    21a6:	04478793          	addi	a5,a5,68 # 40020044 <_eusrstack+0x20018044>
    21aa:	00f71b63          	bne	a4,a5,21c0 <DMA_DeInit+0xc4>
    21ae:	400207b7          	lui	a5,0x40020
    21b2:	43d4                	lw	a3,4(a5)
    21b4:	400207b7          	lui	a5,0x40020
    21b8:	673d                	lui	a4,0xf
    21ba:	8f55                	or	a4,a4,a3
    21bc:	c3d8                	sw	a4,4(a5)
    21be:	a4a1                	j	2406 <DMA_DeInit+0x30a>
    21c0:	fec42703          	lw	a4,-20(s0)
    21c4:	400207b7          	lui	a5,0x40020
    21c8:	05878793          	addi	a5,a5,88 # 40020058 <_eusrstack+0x20018058>
    21cc:	00f71c63          	bne	a4,a5,21e4 <DMA_DeInit+0xe8>
    21d0:	400207b7          	lui	a5,0x40020
    21d4:	43d4                	lw	a3,4(a5)
    21d6:	400207b7          	lui	a5,0x40020
    21da:	000f0737          	lui	a4,0xf0
    21de:	8f55                	or	a4,a4,a3
    21e0:	c3d8                	sw	a4,4(a5)
    21e2:	a415                	j	2406 <DMA_DeInit+0x30a>
    21e4:	fec42703          	lw	a4,-20(s0)
    21e8:	400207b7          	lui	a5,0x40020
    21ec:	06c78793          	addi	a5,a5,108 # 4002006c <_eusrstack+0x2001806c>
    21f0:	00f71c63          	bne	a4,a5,2208 <DMA_DeInit+0x10c>
    21f4:	400207b7          	lui	a5,0x40020
    21f8:	43d4                	lw	a3,4(a5)
    21fa:	400207b7          	lui	a5,0x40020
    21fe:	00f00737          	lui	a4,0xf00
    2202:	8f55                	or	a4,a4,a3
    2204:	c3d8                	sw	a4,4(a5)
    2206:	a401                	j	2406 <DMA_DeInit+0x30a>
    2208:	fec42703          	lw	a4,-20(s0)
    220c:	400207b7          	lui	a5,0x40020
    2210:	08078793          	addi	a5,a5,128 # 40020080 <_eusrstack+0x20018080>
    2214:	00f71c63          	bne	a4,a5,222c <DMA_DeInit+0x130>
    2218:	400207b7          	lui	a5,0x40020
    221c:	43d4                	lw	a3,4(a5)
    221e:	400207b7          	lui	a5,0x40020
    2222:	0f000737          	lui	a4,0xf000
    2226:	8f55                	or	a4,a4,a3
    2228:	c3d8                	sw	a4,4(a5)
    222a:	aaf1                	j	2406 <DMA_DeInit+0x30a>
    222c:	fec42703          	lw	a4,-20(s0)
    2230:	400207b7          	lui	a5,0x40020
    2234:	40878793          	addi	a5,a5,1032 # 40020408 <_eusrstack+0x20018408>
    2238:	00f71f63          	bne	a4,a5,2256 <DMA_DeInit+0x15a>
    223c:	400207b7          	lui	a5,0x40020
    2240:	40078793          	addi	a5,a5,1024 # 40020400 <_eusrstack+0x20018400>
    2244:	43d8                	lw	a4,4(a5)
    2246:	400207b7          	lui	a5,0x40020
    224a:	40078793          	addi	a5,a5,1024 # 40020400 <_eusrstack+0x20018400>
    224e:	00f76713          	ori	a4,a4,15
    2252:	c3d8                	sw	a4,4(a5)
    2254:	aa4d                	j	2406 <DMA_DeInit+0x30a>
    2256:	fec42703          	lw	a4,-20(s0)
    225a:	400207b7          	lui	a5,0x40020
    225e:	41c78793          	addi	a5,a5,1052 # 4002041c <_eusrstack+0x2001841c>
    2262:	00f71f63          	bne	a4,a5,2280 <DMA_DeInit+0x184>
    2266:	400207b7          	lui	a5,0x40020
    226a:	40078793          	addi	a5,a5,1024 # 40020400 <_eusrstack+0x20018400>
    226e:	43d8                	lw	a4,4(a5)
    2270:	400207b7          	lui	a5,0x40020
    2274:	40078793          	addi	a5,a5,1024 # 40020400 <_eusrstack+0x20018400>
    2278:	0f076713          	ori	a4,a4,240
    227c:	c3d8                	sw	a4,4(a5)
    227e:	a261                	j	2406 <DMA_DeInit+0x30a>
    2280:	fec42703          	lw	a4,-20(s0)
    2284:	400207b7          	lui	a5,0x40020
    2288:	43078793          	addi	a5,a5,1072 # 40020430 <_eusrstack+0x20018430>
    228c:	02f71163          	bne	a4,a5,22ae <DMA_DeInit+0x1b2>
    2290:	400207b7          	lui	a5,0x40020
    2294:	40078793          	addi	a5,a5,1024 # 40020400 <_eusrstack+0x20018400>
    2298:	43d4                	lw	a3,4(a5)
    229a:	400207b7          	lui	a5,0x40020
    229e:	40078793          	addi	a5,a5,1024 # 40020400 <_eusrstack+0x20018400>
    22a2:	6705                	lui	a4,0x1
    22a4:	f0070713          	addi	a4,a4,-256 # f00 <__stack_size+0x700>
    22a8:	8f55                	or	a4,a4,a3
    22aa:	c3d8                	sw	a4,4(a5)
    22ac:	aaa9                	j	2406 <DMA_DeInit+0x30a>
    22ae:	fec42703          	lw	a4,-20(s0)
    22b2:	400207b7          	lui	a5,0x40020
    22b6:	44478793          	addi	a5,a5,1092 # 40020444 <_eusrstack+0x20018444>
    22ba:	00f71f63          	bne	a4,a5,22d8 <DMA_DeInit+0x1dc>
    22be:	400207b7          	lui	a5,0x40020
    22c2:	40078793          	addi	a5,a5,1024 # 40020400 <_eusrstack+0x20018400>
    22c6:	43d4                	lw	a3,4(a5)
    22c8:	400207b7          	lui	a5,0x40020
    22cc:	40078793          	addi	a5,a5,1024 # 40020400 <_eusrstack+0x20018400>
    22d0:	673d                	lui	a4,0xf
    22d2:	8f55                	or	a4,a4,a3
    22d4:	c3d8                	sw	a4,4(a5)
    22d6:	aa05                	j	2406 <DMA_DeInit+0x30a>
    22d8:	fec42703          	lw	a4,-20(s0)
    22dc:	400207b7          	lui	a5,0x40020
    22e0:	45878793          	addi	a5,a5,1112 # 40020458 <_eusrstack+0x20018458>
    22e4:	02f71063          	bne	a4,a5,2304 <DMA_DeInit+0x208>
    22e8:	400207b7          	lui	a5,0x40020
    22ec:	40078793          	addi	a5,a5,1024 # 40020400 <_eusrstack+0x20018400>
    22f0:	43d4                	lw	a3,4(a5)
    22f2:	400207b7          	lui	a5,0x40020
    22f6:	40078793          	addi	a5,a5,1024 # 40020400 <_eusrstack+0x20018400>
    22fa:	000f0737          	lui	a4,0xf0
    22fe:	8f55                	or	a4,a4,a3
    2300:	c3d8                	sw	a4,4(a5)
    2302:	a211                	j	2406 <DMA_DeInit+0x30a>
    2304:	fec42703          	lw	a4,-20(s0)
    2308:	400207b7          	lui	a5,0x40020
    230c:	46c78793          	addi	a5,a5,1132 # 4002046c <_eusrstack+0x2001846c>
    2310:	02f71063          	bne	a4,a5,2330 <DMA_DeInit+0x234>
    2314:	400207b7          	lui	a5,0x40020
    2318:	40078793          	addi	a5,a5,1024 # 40020400 <_eusrstack+0x20018400>
    231c:	43d4                	lw	a3,4(a5)
    231e:	400207b7          	lui	a5,0x40020
    2322:	40078793          	addi	a5,a5,1024 # 40020400 <_eusrstack+0x20018400>
    2326:	00f00737          	lui	a4,0xf00
    232a:	8f55                	or	a4,a4,a3
    232c:	c3d8                	sw	a4,4(a5)
    232e:	a8e1                	j	2406 <DMA_DeInit+0x30a>
    2330:	fec42703          	lw	a4,-20(s0)
    2334:	400207b7          	lui	a5,0x40020
    2338:	48078793          	addi	a5,a5,1152 # 40020480 <_eusrstack+0x20018480>
    233c:	02f71063          	bne	a4,a5,235c <DMA_DeInit+0x260>
    2340:	400207b7          	lui	a5,0x40020
    2344:	40078793          	addi	a5,a5,1024 # 40020400 <_eusrstack+0x20018400>
    2348:	43d4                	lw	a3,4(a5)
    234a:	400207b7          	lui	a5,0x40020
    234e:	40078793          	addi	a5,a5,1024 # 40020400 <_eusrstack+0x20018400>
    2352:	0f000737          	lui	a4,0xf000
    2356:	8f55                	or	a4,a4,a3
    2358:	c3d8                	sw	a4,4(a5)
    235a:	a075                	j	2406 <DMA_DeInit+0x30a>
    235c:	fec42703          	lw	a4,-20(s0)
    2360:	400207b7          	lui	a5,0x40020
    2364:	49078793          	addi	a5,a5,1168 # 40020490 <_eusrstack+0x20018490>
    2368:	00f71f63          	bne	a4,a5,2386 <DMA_DeInit+0x28a>
    236c:	400207b7          	lui	a5,0x40020
    2370:	4d078793          	addi	a5,a5,1232 # 400204d0 <_eusrstack+0x200184d0>
    2374:	43d8                	lw	a4,4(a5)
    2376:	400207b7          	lui	a5,0x40020
    237a:	4d078793          	addi	a5,a5,1232 # 400204d0 <_eusrstack+0x200184d0>
    237e:	00f76713          	ori	a4,a4,15
    2382:	c3d8                	sw	a4,4(a5)
    2384:	a049                	j	2406 <DMA_DeInit+0x30a>
    2386:	fec42703          	lw	a4,-20(s0)
    238a:	400207b7          	lui	a5,0x40020
    238e:	4a078793          	addi	a5,a5,1184 # 400204a0 <_eusrstack+0x200184a0>
    2392:	00f71f63          	bne	a4,a5,23b0 <DMA_DeInit+0x2b4>
    2396:	400207b7          	lui	a5,0x40020
    239a:	4d078793          	addi	a5,a5,1232 # 400204d0 <_eusrstack+0x200184d0>
    239e:	43d8                	lw	a4,4(a5)
    23a0:	400207b7          	lui	a5,0x40020
    23a4:	4d078793          	addi	a5,a5,1232 # 400204d0 <_eusrstack+0x200184d0>
    23a8:	0f076713          	ori	a4,a4,240
    23ac:	c3d8                	sw	a4,4(a5)
    23ae:	a8a1                	j	2406 <DMA_DeInit+0x30a>
    23b0:	fec42703          	lw	a4,-20(s0)
    23b4:	400207b7          	lui	a5,0x40020
    23b8:	4b078793          	addi	a5,a5,1200 # 400204b0 <_eusrstack+0x200184b0>
    23bc:	02f71163          	bne	a4,a5,23de <DMA_DeInit+0x2e2>
    23c0:	400207b7          	lui	a5,0x40020
    23c4:	4d078793          	addi	a5,a5,1232 # 400204d0 <_eusrstack+0x200184d0>
    23c8:	43d4                	lw	a3,4(a5)
    23ca:	400207b7          	lui	a5,0x40020
    23ce:	4d078793          	addi	a5,a5,1232 # 400204d0 <_eusrstack+0x200184d0>
    23d2:	6705                	lui	a4,0x1
    23d4:	f0070713          	addi	a4,a4,-256 # f00 <__stack_size+0x700>
    23d8:	8f55                	or	a4,a4,a3
    23da:	c3d8                	sw	a4,4(a5)
    23dc:	a02d                	j	2406 <DMA_DeInit+0x30a>
    23de:	fec42703          	lw	a4,-20(s0)
    23e2:	400207b7          	lui	a5,0x40020
    23e6:	4c078793          	addi	a5,a5,1216 # 400204c0 <_eusrstack+0x200184c0>
    23ea:	00f71e63          	bne	a4,a5,2406 <DMA_DeInit+0x30a>
    23ee:	400207b7          	lui	a5,0x40020
    23f2:	4d078793          	addi	a5,a5,1232 # 400204d0 <_eusrstack+0x200184d0>
    23f6:	43d4                	lw	a3,4(a5)
    23f8:	400207b7          	lui	a5,0x40020
    23fc:	4d078793          	addi	a5,a5,1232 # 400204d0 <_eusrstack+0x200184d0>
    2400:	673d                	lui	a4,0xf
    2402:	8f55                	or	a4,a4,a3
    2404:	c3d8                	sw	a4,4(a5)
    2406:	0001                	nop
    2408:	4472                	lw	s0,28(sp)
    240a:	6105                	addi	sp,sp,32
    240c:	8082                	ret

0000240e <DMA_Init>:
    240e:	7179                	addi	sp,sp,-48
    2410:	d622                	sw	s0,44(sp)
    2412:	1800                	addi	s0,sp,48
    2414:	fca42e23          	sw	a0,-36(s0)
    2418:	fcb42c23          	sw	a1,-40(s0)
    241c:	fe042623          	sw	zero,-20(s0)
    2420:	fdc42783          	lw	a5,-36(s0)
    2424:	439c                	lw	a5,0(a5)
    2426:	fef42623          	sw	a5,-20(s0)
    242a:	fec42703          	lw	a4,-20(s0)
    242e:	77e1                	lui	a5,0xffff8
    2430:	07bd                	addi	a5,a5,15
    2432:	8ff9                	and	a5,a5,a4
    2434:	fef42623          	sw	a5,-20(s0)
    2438:	fd842783          	lw	a5,-40(s0)
    243c:	4798                	lw	a4,8(a5)
    243e:	fd842783          	lw	a5,-40(s0)
    2442:	539c                	lw	a5,32(a5)
    2444:	8f5d                	or	a4,a4,a5
    2446:	fd842783          	lw	a5,-40(s0)
    244a:	4b9c                	lw	a5,16(a5)
    244c:	8f5d                	or	a4,a4,a5
    244e:	fd842783          	lw	a5,-40(s0)
    2452:	4bdc                	lw	a5,20(a5)
    2454:	8f5d                	or	a4,a4,a5
    2456:	fd842783          	lw	a5,-40(s0)
    245a:	4f9c                	lw	a5,24(a5)
    245c:	8f5d                	or	a4,a4,a5
    245e:	fd842783          	lw	a5,-40(s0)
    2462:	4fdc                	lw	a5,28(a5)
    2464:	8f5d                	or	a4,a4,a5
    2466:	fd842783          	lw	a5,-40(s0)
    246a:	53dc                	lw	a5,36(a5)
    246c:	8f5d                	or	a4,a4,a5
    246e:	fd842783          	lw	a5,-40(s0)
    2472:	579c                	lw	a5,40(a5)
    2474:	8fd9                	or	a5,a5,a4
    2476:	fec42703          	lw	a4,-20(s0)
    247a:	8fd9                	or	a5,a5,a4
    247c:	fef42623          	sw	a5,-20(s0)
    2480:	fdc42783          	lw	a5,-36(s0)
    2484:	fec42703          	lw	a4,-20(s0)
    2488:	c398                	sw	a4,0(a5)
    248a:	fd842783          	lw	a5,-40(s0)
    248e:	47d8                	lw	a4,12(a5)
    2490:	fdc42783          	lw	a5,-36(s0)
    2494:	c3d8                	sw	a4,4(a5)
    2496:	fd842783          	lw	a5,-40(s0)
    249a:	4398                	lw	a4,0(a5)
    249c:	fdc42783          	lw	a5,-36(s0)
    24a0:	c798                	sw	a4,8(a5)
    24a2:	fd842783          	lw	a5,-40(s0)
    24a6:	43d8                	lw	a4,4(a5)
    24a8:	fdc42783          	lw	a5,-36(s0)
    24ac:	c7d8                	sw	a4,12(a5)
    24ae:	0001                	nop
    24b0:	5432                	lw	s0,44(sp)
    24b2:	6145                	addi	sp,sp,48
    24b4:	8082                	ret

000024b6 <DMA_Cmd>:
    24b6:	1101                	addi	sp,sp,-32
    24b8:	ce22                	sw	s0,28(sp)
    24ba:	1000                	addi	s0,sp,32
    24bc:	fea42623          	sw	a0,-20(s0)
    24c0:	feb42423          	sw	a1,-24(s0)
    24c4:	fe842783          	lw	a5,-24(s0)
    24c8:	cb91                	beqz	a5,24dc <DMA_Cmd+0x26>
    24ca:	fec42783          	lw	a5,-20(s0)
    24ce:	439c                	lw	a5,0(a5)
    24d0:	0017e713          	ori	a4,a5,1
    24d4:	fec42783          	lw	a5,-20(s0)
    24d8:	c398                	sw	a4,0(a5)
    24da:	a811                	j	24ee <DMA_Cmd+0x38>
    24dc:	fec42783          	lw	a5,-20(s0)
    24e0:	4398                	lw	a4,0(a5)
    24e2:	67c1                	lui	a5,0x10
    24e4:	17f9                	addi	a5,a5,-2
    24e6:	8f7d                	and	a4,a4,a5
    24e8:	fec42783          	lw	a5,-20(s0)
    24ec:	c398                	sw	a4,0(a5)
    24ee:	0001                	nop
    24f0:	4472                	lw	s0,28(sp)
    24f2:	6105                	addi	sp,sp,32
    24f4:	8082                	ret

000024f6 <GPIO_Init>:
    24f6:	7139                	addi	sp,sp,-64
    24f8:	de22                	sw	s0,60(sp)
    24fa:	0080                	addi	s0,sp,64
    24fc:	fca42623          	sw	a0,-52(s0)
    2500:	fcb42423          	sw	a1,-56(s0)
    2504:	fe042623          	sw	zero,-20(s0)
    2508:	fe042023          	sw	zero,-32(s0)
    250c:	fe042423          	sw	zero,-24(s0)
    2510:	fc042e23          	sw	zero,-36(s0)
    2514:	fe042223          	sw	zero,-28(s0)
    2518:	fc042c23          	sw	zero,-40(s0)
    251c:	fc842783          	lw	a5,-56(s0)
    2520:	479c                	lw	a5,8(a5)
    2522:	8bbd                	andi	a5,a5,15
    2524:	fef42623          	sw	a5,-20(s0)
    2528:	fc842783          	lw	a5,-56(s0)
    252c:	479c                	lw	a5,8(a5)
    252e:	8bc1                	andi	a5,a5,16
    2530:	cb89                	beqz	a5,2542 <GPIO_Init+0x4c>
    2532:	fc842783          	lw	a5,-56(s0)
    2536:	43dc                	lw	a5,4(a5)
    2538:	fec42703          	lw	a4,-20(s0)
    253c:	8fd9                	or	a5,a5,a4
    253e:	fef42623          	sw	a5,-20(s0)
    2542:	fc842783          	lw	a5,-56(s0)
    2546:	239e                	lhu	a5,0(a5)
    2548:	0ff7f793          	andi	a5,a5,255
    254c:	cfe9                	beqz	a5,2626 <GPIO_Init+0x130>
    254e:	fcc42783          	lw	a5,-52(s0)
    2552:	439c                	lw	a5,0(a5)
    2554:	fef42223          	sw	a5,-28(s0)
    2558:	fe042423          	sw	zero,-24(s0)
    255c:	a85d                	j	2612 <GPIO_Init+0x11c>
    255e:	fe842783          	lw	a5,-24(s0)
    2562:	4705                	li	a4,1
    2564:	00f717b3          	sll	a5,a4,a5
    2568:	fcf42e23          	sw	a5,-36(s0)
    256c:	fc842783          	lw	a5,-56(s0)
    2570:	239e                	lhu	a5,0(a5)
    2572:	873e                	mv	a4,a5
    2574:	fdc42783          	lw	a5,-36(s0)
    2578:	8ff9                	and	a5,a5,a4
    257a:	fef42023          	sw	a5,-32(s0)
    257e:	fe042703          	lw	a4,-32(s0)
    2582:	fdc42783          	lw	a5,-36(s0)
    2586:	08f71163          	bne	a4,a5,2608 <GPIO_Init+0x112>
    258a:	fe842783          	lw	a5,-24(s0)
    258e:	078a                	slli	a5,a5,0x2
    2590:	fcf42e23          	sw	a5,-36(s0)
    2594:	fdc42783          	lw	a5,-36(s0)
    2598:	473d                	li	a4,15
    259a:	00f717b3          	sll	a5,a4,a5
    259e:	fcf42c23          	sw	a5,-40(s0)
    25a2:	fd842783          	lw	a5,-40(s0)
    25a6:	fff7c793          	not	a5,a5
    25aa:	fe442703          	lw	a4,-28(s0)
    25ae:	8ff9                	and	a5,a5,a4
    25b0:	fef42223          	sw	a5,-28(s0)
    25b4:	fdc42783          	lw	a5,-36(s0)
    25b8:	fec42703          	lw	a4,-20(s0)
    25bc:	00f717b3          	sll	a5,a4,a5
    25c0:	fe442703          	lw	a4,-28(s0)
    25c4:	8fd9                	or	a5,a5,a4
    25c6:	fef42223          	sw	a5,-28(s0)
    25ca:	fc842783          	lw	a5,-56(s0)
    25ce:	4798                	lw	a4,8(a5)
    25d0:	02800793          	li	a5,40
    25d4:	00f71b63          	bne	a4,a5,25ea <GPIO_Init+0xf4>
    25d8:	fe842783          	lw	a5,-24(s0)
    25dc:	4705                	li	a4,1
    25de:	00f71733          	sll	a4,a4,a5
    25e2:	fcc42783          	lw	a5,-52(s0)
    25e6:	cbd8                	sw	a4,20(a5)
    25e8:	a005                	j	2608 <GPIO_Init+0x112>
    25ea:	fc842783          	lw	a5,-56(s0)
    25ee:	4798                	lw	a4,8(a5)
    25f0:	04800793          	li	a5,72
    25f4:	00f71a63          	bne	a4,a5,2608 <GPIO_Init+0x112>
    25f8:	fe842783          	lw	a5,-24(s0)
    25fc:	4705                	li	a4,1
    25fe:	00f71733          	sll	a4,a4,a5
    2602:	fcc42783          	lw	a5,-52(s0)
    2606:	cb98                	sw	a4,16(a5)
    2608:	fe842783          	lw	a5,-24(s0)
    260c:	0785                	addi	a5,a5,1
    260e:	fef42423          	sw	a5,-24(s0)
    2612:	fe842703          	lw	a4,-24(s0)
    2616:	479d                	li	a5,7
    2618:	f4e7f3e3          	bgeu	a5,a4,255e <GPIO_Init+0x68>
    261c:	fcc42783          	lw	a5,-52(s0)
    2620:	fe442703          	lw	a4,-28(s0)
    2624:	c398                	sw	a4,0(a5)
    2626:	fc842783          	lw	a5,-56(s0)
    262a:	239a                	lhu	a4,0(a5)
    262c:	0ff00793          	li	a5,255
    2630:	0ee7f063          	bgeu	a5,a4,2710 <GPIO_Init+0x21a>
    2634:	fcc42783          	lw	a5,-52(s0)
    2638:	43dc                	lw	a5,4(a5)
    263a:	fef42223          	sw	a5,-28(s0)
    263e:	fe042423          	sw	zero,-24(s0)
    2642:	a86d                	j	26fc <GPIO_Init+0x206>
    2644:	fe842783          	lw	a5,-24(s0)
    2648:	07a1                	addi	a5,a5,8
    264a:	4705                	li	a4,1
    264c:	00f717b3          	sll	a5,a4,a5
    2650:	fcf42e23          	sw	a5,-36(s0)
    2654:	fc842783          	lw	a5,-56(s0)
    2658:	239e                	lhu	a5,0(a5)
    265a:	873e                	mv	a4,a5
    265c:	fdc42783          	lw	a5,-36(s0)
    2660:	8ff9                	and	a5,a5,a4
    2662:	fef42023          	sw	a5,-32(s0)
    2666:	fe042703          	lw	a4,-32(s0)
    266a:	fdc42783          	lw	a5,-36(s0)
    266e:	08f71263          	bne	a4,a5,26f2 <GPIO_Init+0x1fc>
    2672:	fe842783          	lw	a5,-24(s0)
    2676:	078a                	slli	a5,a5,0x2
    2678:	fcf42e23          	sw	a5,-36(s0)
    267c:	fdc42783          	lw	a5,-36(s0)
    2680:	473d                	li	a4,15
    2682:	00f717b3          	sll	a5,a4,a5
    2686:	fcf42c23          	sw	a5,-40(s0)
    268a:	fd842783          	lw	a5,-40(s0)
    268e:	fff7c793          	not	a5,a5
    2692:	fe442703          	lw	a4,-28(s0)
    2696:	8ff9                	and	a5,a5,a4
    2698:	fef42223          	sw	a5,-28(s0)
    269c:	fdc42783          	lw	a5,-36(s0)
    26a0:	fec42703          	lw	a4,-20(s0)
    26a4:	00f717b3          	sll	a5,a4,a5
    26a8:	fe442703          	lw	a4,-28(s0)
    26ac:	8fd9                	or	a5,a5,a4
    26ae:	fef42223          	sw	a5,-28(s0)
    26b2:	fc842783          	lw	a5,-56(s0)
    26b6:	4798                	lw	a4,8(a5)
    26b8:	02800793          	li	a5,40
    26bc:	00f71b63          	bne	a4,a5,26d2 <GPIO_Init+0x1dc>
    26c0:	fe842783          	lw	a5,-24(s0)
    26c4:	07a1                	addi	a5,a5,8
    26c6:	4705                	li	a4,1
    26c8:	00f71733          	sll	a4,a4,a5
    26cc:	fcc42783          	lw	a5,-52(s0)
    26d0:	cbd8                	sw	a4,20(a5)
    26d2:	fc842783          	lw	a5,-56(s0)
    26d6:	4798                	lw	a4,8(a5)
    26d8:	04800793          	li	a5,72
    26dc:	00f71b63          	bne	a4,a5,26f2 <GPIO_Init+0x1fc>
    26e0:	fe842783          	lw	a5,-24(s0)
    26e4:	07a1                	addi	a5,a5,8
    26e6:	4705                	li	a4,1
    26e8:	00f71733          	sll	a4,a4,a5
    26ec:	fcc42783          	lw	a5,-52(s0)
    26f0:	cb98                	sw	a4,16(a5)
    26f2:	fe842783          	lw	a5,-24(s0)
    26f6:	0785                	addi	a5,a5,1
    26f8:	fef42423          	sw	a5,-24(s0)
    26fc:	fe842703          	lw	a4,-24(s0)
    2700:	479d                	li	a5,7
    2702:	f4e7f1e3          	bgeu	a5,a4,2644 <GPIO_Init+0x14e>
    2706:	fcc42783          	lw	a5,-52(s0)
    270a:	fe442703          	lw	a4,-28(s0)
    270e:	c3d8                	sw	a4,4(a5)
    2710:	0001                	nop
    2712:	5472                	lw	s0,60(sp)
    2714:	6121                	addi	sp,sp,64
    2716:	8082                	ret

00002718 <GPIO_SetBits>:
    2718:	1101                	addi	sp,sp,-32
    271a:	ce22                	sw	s0,28(sp)
    271c:	1000                	addi	s0,sp,32
    271e:	fea42623          	sw	a0,-20(s0)
    2722:	87ae                	mv	a5,a1
    2724:	fef41523          	sh	a5,-22(s0)
    2728:	fea45703          	lhu	a4,-22(s0)
    272c:	fec42783          	lw	a5,-20(s0)
    2730:	cb98                	sw	a4,16(a5)
    2732:	0001                	nop
    2734:	4472                	lw	s0,28(sp)
    2736:	6105                	addi	sp,sp,32
    2738:	8082                	ret

0000273a <RCC_GetClocksFreq>:
    273a:	7139                	addi	sp,sp,-64
    273c:	de22                	sw	s0,60(sp)
    273e:	0080                	addi	s0,sp,64
    2740:	fca42623          	sw	a0,-52(s0)
    2744:	fe042223          	sw	zero,-28(s0)
    2748:	fe042623          	sw	zero,-20(s0)
    274c:	fe042023          	sw	zero,-32(s0)
    2750:	fc042e23          	sw	zero,-36(s0)
    2754:	fe0405a3          	sb	zero,-21(s0)
    2758:	fc040da3          	sb	zero,-37(s0)
    275c:	400217b7          	lui	a5,0x40021
    2760:	43dc                	lw	a5,4(a5)
    2762:	8bb1                	andi	a5,a5,12
    2764:	fef42223          	sw	a5,-28(s0)
    2768:	fe442703          	lw	a4,-28(s0)
    276c:	4791                	li	a5,4
    276e:	02f70363          	beq	a4,a5,2794 <RCC_GetClocksFreq+0x5a>
    2772:	fe442703          	lw	a4,-28(s0)
    2776:	47a1                	li	a5,8
    2778:	02f70663          	beq	a4,a5,27a4 <RCC_GetClocksFreq+0x6a>
    277c:	fe442783          	lw	a5,-28(s0)
    2780:	20079d63          	bnez	a5,299a <RCC_GetClocksFreq+0x260>
    2784:	fcc42783          	lw	a5,-52(s0)
    2788:	007a1737          	lui	a4,0x7a1
    278c:	20070713          	addi	a4,a4,512 # 7a1200 <_data_lma+0x79c650>
    2790:	c398                	sw	a4,0(a5)
    2792:	ac29                	j	29ac <RCC_GetClocksFreq+0x272>
    2794:	fcc42783          	lw	a5,-52(s0)
    2798:	007a1737          	lui	a4,0x7a1
    279c:	20070713          	addi	a4,a4,512 # 7a1200 <_data_lma+0x79c650>
    27a0:	c398                	sw	a4,0(a5)
    27a2:	a429                	j	29ac <RCC_GetClocksFreq+0x272>
    27a4:	400217b7          	lui	a5,0x40021
    27a8:	43d8                	lw	a4,4(a5)
    27aa:	003c07b7          	lui	a5,0x3c0
    27ae:	8ff9                	and	a5,a5,a4
    27b0:	fef42623          	sw	a5,-20(s0)
    27b4:	400217b7          	lui	a5,0x40021
    27b8:	43d8                	lw	a4,4(a5)
    27ba:	67c1                	lui	a5,0x10
    27bc:	8ff9                	and	a5,a5,a4
    27be:	fef42023          	sw	a5,-32(s0)
    27c2:	fec42783          	lw	a5,-20(s0)
    27c6:	83c9                	srli	a5,a5,0x12
    27c8:	0789                	addi	a5,a5,2
    27ca:	fef42623          	sw	a5,-20(s0)
    27ce:	1ffff7b7          	lui	a5,0x1ffff
    27d2:	70c78793          	addi	a5,a5,1804 # 1ffff70c <_data_lma+0x1fffab5c>
    27d6:	4398                	lw	a4,0(a5)
    27d8:	6791                	lui	a5,0x4
    27da:	8ff9                	and	a5,a5,a4
    27dc:	eb91                	bnez	a5,27f0 <RCC_GetClocksFreq+0xb6>
    27de:	fec42703          	lw	a4,-20(s0)
    27e2:	47c5                	li	a5,17
    27e4:	04f71963          	bne	a4,a5,2836 <RCC_GetClocksFreq+0xfc>
    27e8:	47c9                	li	a5,18
    27ea:	fef42623          	sw	a5,-20(s0)
    27ee:	a0a1                	j	2836 <RCC_GetClocksFreq+0xfc>
    27f0:	fec42703          	lw	a4,-20(s0)
    27f4:	4789                	li	a5,2
    27f6:	00f71563          	bne	a4,a5,2800 <RCC_GetClocksFreq+0xc6>
    27fa:	47c9                	li	a5,18
    27fc:	fef42623          	sw	a5,-20(s0)
    2800:	fec42703          	lw	a4,-20(s0)
    2804:	47bd                	li	a5,15
    2806:	00f71863          	bne	a4,a5,2816 <RCC_GetClocksFreq+0xdc>
    280a:	47b5                	li	a5,13
    280c:	fef42623          	sw	a5,-20(s0)
    2810:	4785                	li	a5,1
    2812:	fef405a3          	sb	a5,-21(s0)
    2816:	fec42703          	lw	a4,-20(s0)
    281a:	47c1                	li	a5,16
    281c:	00f71563          	bne	a4,a5,2826 <RCC_GetClocksFreq+0xec>
    2820:	47bd                	li	a5,15
    2822:	fef42623          	sw	a5,-20(s0)
    2826:	fec42703          	lw	a4,-20(s0)
    282a:	47c5                	li	a5,17
    282c:	00f71563          	bne	a4,a5,2836 <RCC_GetClocksFreq+0xfc>
    2830:	47c1                	li	a5,16
    2832:	fef42623          	sw	a5,-20(s0)
    2836:	fe042783          	lw	a5,-32(s0)
    283a:	e3a1                	bnez	a5,287a <RCC_GetClocksFreq+0x140>
    283c:	400247b7          	lui	a5,0x40024
    2840:	80078793          	addi	a5,a5,-2048 # 40023800 <_eusrstack+0x2001b800>
    2844:	439c                	lw	a5,0(a5)
    2846:	8bc1                	andi	a5,a5,16
    2848:	cf89                	beqz	a5,2862 <RCC_GetClocksFreq+0x128>
    284a:	fec42703          	lw	a4,-20(s0)
    284e:	007a17b7          	lui	a5,0x7a1
    2852:	20078793          	addi	a5,a5,512 # 7a1200 <_data_lma+0x79c650>
    2856:	02f70733          	mul	a4,a4,a5
    285a:	fcc42783          	lw	a5,-52(s0)
    285e:	c398                	sw	a4,0(a5)
    2860:	aa39                	j	297e <RCC_GetClocksFreq+0x244>
    2862:	fec42703          	lw	a4,-20(s0)
    2866:	003d17b7          	lui	a5,0x3d1
    286a:	90078793          	addi	a5,a5,-1792 # 3d0900 <_data_lma+0x3cbd50>
    286e:	02f70733          	mul	a4,a4,a5
    2872:	fcc42783          	lw	a5,-52(s0)
    2876:	c398                	sw	a4,0(a5)
    2878:	a219                	j	297e <RCC_GetClocksFreq+0x244>
    287a:	400217b7          	lui	a5,0x40021
    287e:	57d8                	lw	a4,44(a5)
    2880:	67c1                	lui	a5,0x10
    2882:	8ff9                	and	a5,a5,a4
    2884:	c7e9                	beqz	a5,294e <RCC_GetClocksFreq+0x214>
    2886:	400217b7          	lui	a5,0x40021
    288a:	57dc                	lw	a5,44(a5)
    288c:	8391                	srli	a5,a5,0x4
    288e:	8bbd                	andi	a5,a5,15
    2890:	0785                	addi	a5,a5,1
    2892:	007a1737          	lui	a4,0x7a1
    2896:	20070713          	addi	a4,a4,512 # 7a1200 <_data_lma+0x79c650>
    289a:	02f75733          	divu	a4,a4,a5
    289e:	fcc42783          	lw	a5,-52(s0)
    28a2:	c398                	sw	a4,0(a5)
    28a4:	400217b7          	lui	a5,0x40021
    28a8:	57dc                	lw	a5,44(a5)
    28aa:	83a1                	srli	a5,a5,0x8
    28ac:	0ff7f793          	andi	a5,a5,255
    28b0:	8bbd                	andi	a5,a5,15
    28b2:	fcf40da3          	sb	a5,-37(s0)
    28b6:	fdb44783          	lbu	a5,-37(s0)
    28ba:	ef89                	bnez	a5,28d4 <RCC_GetClocksFreq+0x19a>
    28bc:	fcc42783          	lw	a5,-52(s0)
    28c0:	4398                	lw	a4,0(a5)
    28c2:	87ba                	mv	a5,a4
    28c4:	078a                	slli	a5,a5,0x2
    28c6:	97ba                	add	a5,a5,a4
    28c8:	0017d713          	srli	a4,a5,0x1
    28cc:	fcc42783          	lw	a5,-52(s0)
    28d0:	c398                	sw	a4,0(a5)
    28d2:	a085                	j	2932 <RCC_GetClocksFreq+0x1f8>
    28d4:	fdb44703          	lbu	a4,-37(s0)
    28d8:	4785                	li	a5,1
    28da:	02f71063          	bne	a4,a5,28fa <RCC_GetClocksFreq+0x1c0>
    28de:	fcc42783          	lw	a5,-52(s0)
    28e2:	4398                	lw	a4,0(a5)
    28e4:	87ba                	mv	a5,a4
    28e6:	0786                	slli	a5,a5,0x1
    28e8:	97ba                	add	a5,a5,a4
    28ea:	078e                	slli	a5,a5,0x3
    28ec:	97ba                	add	a5,a5,a4
    28ee:	0017d713          	srli	a4,a5,0x1
    28f2:	fcc42783          	lw	a5,-52(s0)
    28f6:	c398                	sw	a4,0(a5)
    28f8:	a82d                	j	2932 <RCC_GetClocksFreq+0x1f8>
    28fa:	fdb44703          	lbu	a4,-37(s0)
    28fe:	47bd                	li	a5,15
    2900:	00f71e63          	bne	a4,a5,291c <RCC_GetClocksFreq+0x1e2>
    2904:	fcc42783          	lw	a5,-52(s0)
    2908:	4398                	lw	a4,0(a5)
    290a:	87ba                	mv	a5,a4
    290c:	078a                	slli	a5,a5,0x2
    290e:	97ba                	add	a5,a5,a4
    2910:	078a                	slli	a5,a5,0x2
    2912:	873e                	mv	a4,a5
    2914:	fcc42783          	lw	a5,-52(s0)
    2918:	c398                	sw	a4,0(a5)
    291a:	a821                	j	2932 <RCC_GetClocksFreq+0x1f8>
    291c:	fcc42783          	lw	a5,-52(s0)
    2920:	439c                	lw	a5,0(a5)
    2922:	fdb44703          	lbu	a4,-37(s0)
    2926:	0709                	addi	a4,a4,2
    2928:	02e78733          	mul	a4,a5,a4
    292c:	fcc42783          	lw	a5,-52(s0)
    2930:	c398                	sw	a4,0(a5)
    2932:	fcc42783          	lw	a5,-52(s0)
    2936:	4398                	lw	a4,0(a5)
    2938:	400217b7          	lui	a5,0x40021
    293c:	57dc                	lw	a5,44(a5)
    293e:	8bbd                	andi	a5,a5,15
    2940:	0785                	addi	a5,a5,1
    2942:	02f75733          	divu	a4,a4,a5
    2946:	fcc42783          	lw	a5,-52(s0)
    294a:	c398                	sw	a4,0(a5)
    294c:	a839                	j	296a <RCC_GetClocksFreq+0x230>
    294e:	400217b7          	lui	a5,0x40021
    2952:	57dc                	lw	a5,44(a5)
    2954:	8bbd                	andi	a5,a5,15
    2956:	0785                	addi	a5,a5,1
    2958:	007a1737          	lui	a4,0x7a1
    295c:	20070713          	addi	a4,a4,512 # 7a1200 <_data_lma+0x79c650>
    2960:	02f75733          	divu	a4,a4,a5
    2964:	fcc42783          	lw	a5,-52(s0)
    2968:	c398                	sw	a4,0(a5)
    296a:	fcc42783          	lw	a5,-52(s0)
    296e:	4398                	lw	a4,0(a5)
    2970:	fec42783          	lw	a5,-20(s0)
    2974:	02f70733          	mul	a4,a4,a5
    2978:	fcc42783          	lw	a5,-52(s0)
    297c:	c398                	sw	a4,0(a5)
    297e:	feb44703          	lbu	a4,-21(s0)
    2982:	4785                	li	a5,1
    2984:	02f71363          	bne	a4,a5,29aa <RCC_GetClocksFreq+0x270>
    2988:	fcc42783          	lw	a5,-52(s0)
    298c:	439c                	lw	a5,0(a5)
    298e:	0017d713          	srli	a4,a5,0x1
    2992:	fcc42783          	lw	a5,-52(s0)
    2996:	c398                	sw	a4,0(a5)
    2998:	a809                	j	29aa <RCC_GetClocksFreq+0x270>
    299a:	fcc42783          	lw	a5,-52(s0)
    299e:	007a1737          	lui	a4,0x7a1
    29a2:	20070713          	addi	a4,a4,512 # 7a1200 <_data_lma+0x79c650>
    29a6:	c398                	sw	a4,0(a5)
    29a8:	a011                	j	29ac <RCC_GetClocksFreq+0x272>
    29aa:	0001                	nop
    29ac:	400217b7          	lui	a5,0x40021
    29b0:	43dc                	lw	a5,4(a5)
    29b2:	0f07f793          	andi	a5,a5,240
    29b6:	fef42223          	sw	a5,-28(s0)
    29ba:	fe442783          	lw	a5,-28(s0)
    29be:	8391                	srli	a5,a5,0x4
    29c0:	fef42223          	sw	a5,-28(s0)
    29c4:	200007b7          	lui	a5,0x20000
    29c8:	09878713          	addi	a4,a5,152 # 20000098 <APBAHBPrescTable>
    29cc:	fe442783          	lw	a5,-28(s0)
    29d0:	97ba                	add	a5,a5,a4
    29d2:	239c                	lbu	a5,0(a5)
    29d4:	0ff7f793          	andi	a5,a5,255
    29d8:	fcf42e23          	sw	a5,-36(s0)
    29dc:	fcc42783          	lw	a5,-52(s0)
    29e0:	4398                	lw	a4,0(a5)
    29e2:	fdc42783          	lw	a5,-36(s0)
    29e6:	00f75733          	srl	a4,a4,a5
    29ea:	fcc42783          	lw	a5,-52(s0)
    29ee:	c3d8                	sw	a4,4(a5)
    29f0:	400217b7          	lui	a5,0x40021
    29f4:	43dc                	lw	a5,4(a5)
    29f6:	7007f793          	andi	a5,a5,1792
    29fa:	fef42223          	sw	a5,-28(s0)
    29fe:	fe442783          	lw	a5,-28(s0)
    2a02:	83a1                	srli	a5,a5,0x8
    2a04:	fef42223          	sw	a5,-28(s0)
    2a08:	200007b7          	lui	a5,0x20000
    2a0c:	09878713          	addi	a4,a5,152 # 20000098 <APBAHBPrescTable>
    2a10:	fe442783          	lw	a5,-28(s0)
    2a14:	97ba                	add	a5,a5,a4
    2a16:	239c                	lbu	a5,0(a5)
    2a18:	0ff7f793          	andi	a5,a5,255
    2a1c:	fcf42e23          	sw	a5,-36(s0)
    2a20:	fcc42783          	lw	a5,-52(s0)
    2a24:	43d8                	lw	a4,4(a5)
    2a26:	fdc42783          	lw	a5,-36(s0)
    2a2a:	00f75733          	srl	a4,a4,a5
    2a2e:	fcc42783          	lw	a5,-52(s0)
    2a32:	c798                	sw	a4,8(a5)
    2a34:	400217b7          	lui	a5,0x40021
    2a38:	43d8                	lw	a4,4(a5)
    2a3a:	6791                	lui	a5,0x4
    2a3c:	80078793          	addi	a5,a5,-2048 # 3800 <_puts_r+0x90>
    2a40:	8ff9                	and	a5,a5,a4
    2a42:	fef42223          	sw	a5,-28(s0)
    2a46:	fe442783          	lw	a5,-28(s0)
    2a4a:	83ad                	srli	a5,a5,0xb
    2a4c:	fef42223          	sw	a5,-28(s0)
    2a50:	200007b7          	lui	a5,0x20000
    2a54:	09878713          	addi	a4,a5,152 # 20000098 <APBAHBPrescTable>
    2a58:	fe442783          	lw	a5,-28(s0)
    2a5c:	97ba                	add	a5,a5,a4
    2a5e:	239c                	lbu	a5,0(a5)
    2a60:	0ff7f793          	andi	a5,a5,255
    2a64:	fcf42e23          	sw	a5,-36(s0)
    2a68:	fcc42783          	lw	a5,-52(s0)
    2a6c:	43d8                	lw	a4,4(a5)
    2a6e:	fdc42783          	lw	a5,-36(s0)
    2a72:	00f75733          	srl	a4,a4,a5
    2a76:	fcc42783          	lw	a5,-52(s0)
    2a7a:	c7d8                	sw	a4,12(a5)
    2a7c:	400217b7          	lui	a5,0x40021
    2a80:	43d8                	lw	a4,4(a5)
    2a82:	67b1                	lui	a5,0xc
    2a84:	8ff9                	and	a5,a5,a4
    2a86:	fef42223          	sw	a5,-28(s0)
    2a8a:	fe442783          	lw	a5,-28(s0)
    2a8e:	83b9                	srli	a5,a5,0xe
    2a90:	fef42223          	sw	a5,-28(s0)
    2a94:	200007b7          	lui	a5,0x20000
    2a98:	10c78713          	addi	a4,a5,268 # 2000010c <ADCPrescTable>
    2a9c:	fe442783          	lw	a5,-28(s0)
    2aa0:	97ba                	add	a5,a5,a4
    2aa2:	239c                	lbu	a5,0(a5)
    2aa4:	0ff7f793          	andi	a5,a5,255
    2aa8:	fcf42e23          	sw	a5,-36(s0)
    2aac:	fcc42783          	lw	a5,-52(s0)
    2ab0:	47d8                	lw	a4,12(a5)
    2ab2:	fdc42783          	lw	a5,-36(s0)
    2ab6:	02f75733          	divu	a4,a4,a5
    2aba:	fcc42783          	lw	a5,-52(s0)
    2abe:	cb98                	sw	a4,16(a5)
    2ac0:	0001                	nop
    2ac2:	5472                	lw	s0,60(sp)
    2ac4:	6121                	addi	sp,sp,64
    2ac6:	8082                	ret

00002ac8 <RCC_AHBPeriphClockCmd>:
    2ac8:	1101                	addi	sp,sp,-32
    2aca:	ce22                	sw	s0,28(sp)
    2acc:	1000                	addi	s0,sp,32
    2ace:	fea42623          	sw	a0,-20(s0)
    2ad2:	feb42423          	sw	a1,-24(s0)
    2ad6:	fe842783          	lw	a5,-24(s0)
    2ada:	cb99                	beqz	a5,2af0 <RCC_AHBPeriphClockCmd+0x28>
    2adc:	400217b7          	lui	a5,0x40021
    2ae0:	4bd4                	lw	a3,20(a5)
    2ae2:	400217b7          	lui	a5,0x40021
    2ae6:	fec42703          	lw	a4,-20(s0)
    2aea:	8f55                	or	a4,a4,a3
    2aec:	cbd8                	sw	a4,20(a5)
    2aee:	a821                	j	2b06 <RCC_AHBPeriphClockCmd+0x3e>
    2af0:	400217b7          	lui	a5,0x40021
    2af4:	4bd4                	lw	a3,20(a5)
    2af6:	fec42783          	lw	a5,-20(s0)
    2afa:	fff7c713          	not	a4,a5
    2afe:	400217b7          	lui	a5,0x40021
    2b02:	8f75                	and	a4,a4,a3
    2b04:	cbd8                	sw	a4,20(a5)
    2b06:	0001                	nop
    2b08:	4472                	lw	s0,28(sp)
    2b0a:	6105                	addi	sp,sp,32
    2b0c:	8082                	ret

00002b0e <RCC_APB2PeriphClockCmd>:
    2b0e:	1101                	addi	sp,sp,-32
    2b10:	ce22                	sw	s0,28(sp)
    2b12:	1000                	addi	s0,sp,32
    2b14:	fea42623          	sw	a0,-20(s0)
    2b18:	feb42423          	sw	a1,-24(s0)
    2b1c:	fe842783          	lw	a5,-24(s0)
    2b20:	cb99                	beqz	a5,2b36 <RCC_APB2PeriphClockCmd+0x28>
    2b22:	400217b7          	lui	a5,0x40021
    2b26:	4f94                	lw	a3,24(a5)
    2b28:	400217b7          	lui	a5,0x40021
    2b2c:	fec42703          	lw	a4,-20(s0)
    2b30:	8f55                	or	a4,a4,a3
    2b32:	cf98                	sw	a4,24(a5)
    2b34:	a821                	j	2b4c <RCC_APB2PeriphClockCmd+0x3e>
    2b36:	400217b7          	lui	a5,0x40021
    2b3a:	4f94                	lw	a3,24(a5)
    2b3c:	fec42783          	lw	a5,-20(s0)
    2b40:	fff7c713          	not	a4,a5
    2b44:	400217b7          	lui	a5,0x40021
    2b48:	8f75                	and	a4,a4,a3
    2b4a:	cf98                	sw	a4,24(a5)
    2b4c:	0001                	nop
    2b4e:	4472                	lw	s0,28(sp)
    2b50:	6105                	addi	sp,sp,32
    2b52:	8082                	ret

00002b54 <RCC_APB1PeriphClockCmd>:
    2b54:	1101                	addi	sp,sp,-32
    2b56:	ce22                	sw	s0,28(sp)
    2b58:	1000                	addi	s0,sp,32
    2b5a:	fea42623          	sw	a0,-20(s0)
    2b5e:	feb42423          	sw	a1,-24(s0)
    2b62:	fe842783          	lw	a5,-24(s0)
    2b66:	cb99                	beqz	a5,2b7c <RCC_APB1PeriphClockCmd+0x28>
    2b68:	400217b7          	lui	a5,0x40021
    2b6c:	4fd4                	lw	a3,28(a5)
    2b6e:	400217b7          	lui	a5,0x40021
    2b72:	fec42703          	lw	a4,-20(s0)
    2b76:	8f55                	or	a4,a4,a3
    2b78:	cfd8                	sw	a4,28(a5)
    2b7a:	a821                	j	2b92 <RCC_APB1PeriphClockCmd+0x3e>
    2b7c:	400217b7          	lui	a5,0x40021
    2b80:	4fd4                	lw	a3,28(a5)
    2b82:	fec42783          	lw	a5,-20(s0)
    2b86:	fff7c713          	not	a4,a5
    2b8a:	400217b7          	lui	a5,0x40021
    2b8e:	8f75                	and	a4,a4,a3
    2b90:	cfd8                	sw	a4,28(a5)
    2b92:	0001                	nop
    2b94:	4472                	lw	s0,28(sp)
    2b96:	6105                	addi	sp,sp,32
    2b98:	8082                	ret

00002b9a <RCC_APB2PeriphResetCmd>:
    2b9a:	1101                	addi	sp,sp,-32
    2b9c:	ce22                	sw	s0,28(sp)
    2b9e:	1000                	addi	s0,sp,32
    2ba0:	fea42623          	sw	a0,-20(s0)
    2ba4:	feb42423          	sw	a1,-24(s0)
    2ba8:	fe842783          	lw	a5,-24(s0)
    2bac:	cb99                	beqz	a5,2bc2 <RCC_APB2PeriphResetCmd+0x28>
    2bae:	400217b7          	lui	a5,0x40021
    2bb2:	47d4                	lw	a3,12(a5)
    2bb4:	400217b7          	lui	a5,0x40021
    2bb8:	fec42703          	lw	a4,-20(s0)
    2bbc:	8f55                	or	a4,a4,a3
    2bbe:	c7d8                	sw	a4,12(a5)
    2bc0:	a821                	j	2bd8 <RCC_APB2PeriphResetCmd+0x3e>
    2bc2:	400217b7          	lui	a5,0x40021
    2bc6:	47d4                	lw	a3,12(a5)
    2bc8:	fec42783          	lw	a5,-20(s0)
    2bcc:	fff7c713          	not	a4,a5
    2bd0:	400217b7          	lui	a5,0x40021
    2bd4:	8f75                	and	a4,a4,a3
    2bd6:	c7d8                	sw	a4,12(a5)
    2bd8:	0001                	nop
    2bda:	4472                	lw	s0,28(sp)
    2bdc:	6105                	addi	sp,sp,32
    2bde:	8082                	ret

00002be0 <RCC_APB1PeriphResetCmd>:
    2be0:	1101                	addi	sp,sp,-32
    2be2:	ce22                	sw	s0,28(sp)
    2be4:	1000                	addi	s0,sp,32
    2be6:	fea42623          	sw	a0,-20(s0)
    2bea:	feb42423          	sw	a1,-24(s0)
    2bee:	fe842783          	lw	a5,-24(s0)
    2bf2:	cb99                	beqz	a5,2c08 <RCC_APB1PeriphResetCmd+0x28>
    2bf4:	400217b7          	lui	a5,0x40021
    2bf8:	4b94                	lw	a3,16(a5)
    2bfa:	400217b7          	lui	a5,0x40021
    2bfe:	fec42703          	lw	a4,-20(s0)
    2c02:	8f55                	or	a4,a4,a3
    2c04:	cb98                	sw	a4,16(a5)
    2c06:	a821                	j	2c1e <RCC_APB1PeriphResetCmd+0x3e>
    2c08:	400217b7          	lui	a5,0x40021
    2c0c:	4b94                	lw	a3,16(a5)
    2c0e:	fec42783          	lw	a5,-20(s0)
    2c12:	fff7c713          	not	a4,a5
    2c16:	400217b7          	lui	a5,0x40021
    2c1a:	8f75                	and	a4,a4,a3
    2c1c:	cb98                	sw	a4,16(a5)
    2c1e:	0001                	nop
    2c20:	4472                	lw	s0,28(sp)
    2c22:	6105                	addi	sp,sp,32
    2c24:	8082                	ret

00002c26 <RCC_USBHSConfig>:
    2c26:	1101                	addi	sp,sp,-32
    2c28:	ce22                	sw	s0,28(sp)
    2c2a:	1000                	addi	s0,sp,32
    2c2c:	fea42623          	sw	a0,-20(s0)
    2c30:	400217b7          	lui	a5,0x40021
    2c34:	57d4                	lw	a3,44(a5)
    2c36:	400217b7          	lui	a5,0x40021
    2c3a:	f9000737          	lui	a4,0xf9000
    2c3e:	177d                	addi	a4,a4,-1
    2c40:	8f75                	and	a4,a4,a3
    2c42:	d7d8                	sw	a4,44(a5)
    2c44:	400217b7          	lui	a5,0x40021
    2c48:	57d4                	lw	a3,44(a5)
    2c4a:	fec42783          	lw	a5,-20(s0)
    2c4e:	01879713          	slli	a4,a5,0x18
    2c52:	400217b7          	lui	a5,0x40021
    2c56:	8f55                	or	a4,a4,a3
    2c58:	d7d8                	sw	a4,44(a5)
    2c5a:	0001                	nop
    2c5c:	4472                	lw	s0,28(sp)
    2c5e:	6105                	addi	sp,sp,32
    2c60:	8082                	ret

00002c62 <RCC_USBHSPLLCLKConfig>:
    2c62:	1101                	addi	sp,sp,-32
    2c64:	ce22                	sw	s0,28(sp)
    2c66:	1000                	addi	s0,sp,32
    2c68:	fea42623          	sw	a0,-20(s0)
    2c6c:	400217b7          	lui	a5,0x40021
    2c70:	57d4                	lw	a3,44(a5)
    2c72:	400217b7          	lui	a5,0x40021
    2c76:	f8000737          	lui	a4,0xf8000
    2c7a:	177d                	addi	a4,a4,-1
    2c7c:	8f75                	and	a4,a4,a3
    2c7e:	d7d8                	sw	a4,44(a5)
    2c80:	400217b7          	lui	a5,0x40021
    2c84:	57d4                	lw	a3,44(a5)
    2c86:	fec42783          	lw	a5,-20(s0)
    2c8a:	01b79713          	slli	a4,a5,0x1b
    2c8e:	400217b7          	lui	a5,0x40021
    2c92:	8f55                	or	a4,a4,a3
    2c94:	d7d8                	sw	a4,44(a5)
    2c96:	0001                	nop
    2c98:	4472                	lw	s0,28(sp)
    2c9a:	6105                	addi	sp,sp,32
    2c9c:	8082                	ret

00002c9e <RCC_USBHSPLLCKREFCLKConfig>:
    2c9e:	1101                	addi	sp,sp,-32
    2ca0:	ce22                	sw	s0,28(sp)
    2ca2:	1000                	addi	s0,sp,32
    2ca4:	fea42623          	sw	a0,-20(s0)
    2ca8:	400217b7          	lui	a5,0x40021
    2cac:	57d4                	lw	a3,44(a5)
    2cae:	400217b7          	lui	a5,0x40021
    2cb2:	d0000737          	lui	a4,0xd0000
    2cb6:	177d                	addi	a4,a4,-1
    2cb8:	8f75                	and	a4,a4,a3
    2cba:	d7d8                	sw	a4,44(a5)
    2cbc:	400217b7          	lui	a5,0x40021
    2cc0:	57d4                	lw	a3,44(a5)
    2cc2:	fec42783          	lw	a5,-20(s0)
    2cc6:	01c79713          	slli	a4,a5,0x1c
    2cca:	400217b7          	lui	a5,0x40021
    2cce:	8f55                	or	a4,a4,a3
    2cd0:	d7d8                	sw	a4,44(a5)
    2cd2:	0001                	nop
    2cd4:	4472                	lw	s0,28(sp)
    2cd6:	6105                	addi	sp,sp,32
    2cd8:	8082                	ret

00002cda <RCC_USBHSPHYPLLALIVEcmd>:
    2cda:	1101                	addi	sp,sp,-32
    2cdc:	ce22                	sw	s0,28(sp)
    2cde:	1000                	addi	s0,sp,32
    2ce0:	fea42623          	sw	a0,-20(s0)
    2ce4:	fec42783          	lw	a5,-20(s0)
    2ce8:	cb99                	beqz	a5,2cfe <RCC_USBHSPHYPLLALIVEcmd+0x24>
    2cea:	400217b7          	lui	a5,0x40021
    2cee:	57d4                	lw	a3,44(a5)
    2cf0:	400217b7          	lui	a5,0x40021
    2cf4:	40000737          	lui	a4,0x40000
    2cf8:	8f55                	or	a4,a4,a3
    2cfa:	d7d8                	sw	a4,44(a5)
    2cfc:	a819                	j	2d12 <RCC_USBHSPHYPLLALIVEcmd+0x38>
    2cfe:	400217b7          	lui	a5,0x40021
    2d02:	57d4                	lw	a3,44(a5)
    2d04:	400217b7          	lui	a5,0x40021
    2d08:	c0000737          	lui	a4,0xc0000
    2d0c:	177d                	addi	a4,a4,-1
    2d0e:	8f75                	and	a4,a4,a3
    2d10:	d7d8                	sw	a4,44(a5)
    2d12:	0001                	nop
    2d14:	4472                	lw	s0,28(sp)
    2d16:	6105                	addi	sp,sp,32
    2d18:	8082                	ret

00002d1a <RCC_USBCLK48MConfig>:
    2d1a:	1101                	addi	sp,sp,-32
    2d1c:	ce22                	sw	s0,28(sp)
    2d1e:	1000                	addi	s0,sp,32
    2d20:	fea42623          	sw	a0,-20(s0)
    2d24:	400217b7          	lui	a5,0x40021
    2d28:	57d4                	lw	a3,44(a5)
    2d2a:	400217b7          	lui	a5,0x40021
    2d2e:	80000737          	lui	a4,0x80000
    2d32:	fff74713          	not	a4,a4
    2d36:	8f75                	and	a4,a4,a3
    2d38:	d7d8                	sw	a4,44(a5)
    2d3a:	400217b7          	lui	a5,0x40021
    2d3e:	57d4                	lw	a3,44(a5)
    2d40:	fec42783          	lw	a5,-20(s0)
    2d44:	01f79713          	slli	a4,a5,0x1f
    2d48:	400217b7          	lui	a5,0x40021
    2d4c:	8f55                	or	a4,a4,a3
    2d4e:	d7d8                	sw	a4,44(a5)
    2d50:	0001                	nop
    2d52:	4472                	lw	s0,28(sp)
    2d54:	6105                	addi	sp,sp,32
    2d56:	8082                	ret

00002d58 <TIM_DeInit>:
    2d58:	1101                	addi	sp,sp,-32
    2d5a:	ce06                	sw	ra,28(sp)
    2d5c:	cc22                	sw	s0,24(sp)
    2d5e:	1000                	addi	s0,sp,32
    2d60:	fea42623          	sw	a0,-20(s0)
    2d64:	fec42703          	lw	a4,-20(s0)
    2d68:	400137b7          	lui	a5,0x40013
    2d6c:	c0078793          	addi	a5,a5,-1024 # 40012c00 <_eusrstack+0x2000ac00>
    2d70:	00f71d63          	bne	a4,a5,2d8a <TIM_DeInit+0x32>
    2d74:	4585                	li	a1,1
    2d76:	6785                	lui	a5,0x1
    2d78:	80078513          	addi	a0,a5,-2048 # 800 <__stack_size>
    2d7c:	3d39                	jal	2b9a <RCC_APB2PeriphResetCmd>
    2d7e:	4581                	li	a1,0
    2d80:	6785                	lui	a5,0x1
    2d82:	80078513          	addi	a0,a5,-2048 # 800 <__stack_size>
    2d86:	3d11                	jal	2b9a <RCC_APB2PeriphResetCmd>
    2d88:	a239                	j	2e96 <TIM_DeInit+0x13e>
    2d8a:	fec42703          	lw	a4,-20(s0)
    2d8e:	400137b7          	lui	a5,0x40013
    2d92:	40078793          	addi	a5,a5,1024 # 40013400 <_eusrstack+0x2000b400>
    2d96:	00f71963          	bne	a4,a5,2da8 <TIM_DeInit+0x50>
    2d9a:	4585                	li	a1,1
    2d9c:	6509                	lui	a0,0x2
    2d9e:	3bf5                	jal	2b9a <RCC_APB2PeriphResetCmd>
    2da0:	4581                	li	a1,0
    2da2:	6509                	lui	a0,0x2
    2da4:	3bdd                	jal	2b9a <RCC_APB2PeriphResetCmd>
    2da6:	a8c5                	j	2e96 <TIM_DeInit+0x13e>
    2da8:	fec42703          	lw	a4,-20(s0)
    2dac:	400157b7          	lui	a5,0x40015
    2db0:	c0078793          	addi	a5,a5,-1024 # 40014c00 <_eusrstack+0x2000cc00>
    2db4:	00f71b63          	bne	a4,a5,2dca <TIM_DeInit+0x72>
    2db8:	4585                	li	a1,1
    2dba:	00080537          	lui	a0,0x80
    2dbe:	3bf1                	jal	2b9a <RCC_APB2PeriphResetCmd>
    2dc0:	4581                	li	a1,0
    2dc2:	00080537          	lui	a0,0x80
    2dc6:	3bd1                	jal	2b9a <RCC_APB2PeriphResetCmd>
    2dc8:	a0f9                	j	2e96 <TIM_DeInit+0x13e>
    2dca:	fec42703          	lw	a4,-20(s0)
    2dce:	400157b7          	lui	a5,0x40015
    2dd2:	00f71b63          	bne	a4,a5,2de8 <TIM_DeInit+0x90>
    2dd6:	4585                	li	a1,1
    2dd8:	00100537          	lui	a0,0x100
    2ddc:	3b7d                	jal	2b9a <RCC_APB2PeriphResetCmd>
    2dde:	4581                	li	a1,0
    2de0:	00100537          	lui	a0,0x100
    2de4:	3b5d                	jal	2b9a <RCC_APB2PeriphResetCmd>
    2de6:	a845                	j	2e96 <TIM_DeInit+0x13e>
    2de8:	fec42703          	lw	a4,-20(s0)
    2dec:	400007b7          	lui	a5,0x40000
    2df0:	00f71963          	bne	a4,a5,2e02 <TIM_DeInit+0xaa>
    2df4:	4585                	li	a1,1
    2df6:	4505                	li	a0,1
    2df8:	33e5                	jal	2be0 <RCC_APB1PeriphResetCmd>
    2dfa:	4581                	li	a1,0
    2dfc:	4505                	li	a0,1
    2dfe:	33cd                	jal	2be0 <RCC_APB1PeriphResetCmd>
    2e00:	a859                	j	2e96 <TIM_DeInit+0x13e>
    2e02:	fec42703          	lw	a4,-20(s0)
    2e06:	400007b7          	lui	a5,0x40000
    2e0a:	40078793          	addi	a5,a5,1024 # 40000400 <_eusrstack+0x1fff8400>
    2e0e:	00f71963          	bne	a4,a5,2e20 <TIM_DeInit+0xc8>
    2e12:	4585                	li	a1,1
    2e14:	4509                	li	a0,2
    2e16:	33e9                	jal	2be0 <RCC_APB1PeriphResetCmd>
    2e18:	4581                	li	a1,0
    2e1a:	4509                	li	a0,2
    2e1c:	33d1                	jal	2be0 <RCC_APB1PeriphResetCmd>
    2e1e:	a8a5                	j	2e96 <TIM_DeInit+0x13e>
    2e20:	fec42703          	lw	a4,-20(s0)
    2e24:	400017b7          	lui	a5,0x40001
    2e28:	80078793          	addi	a5,a5,-2048 # 40000800 <_eusrstack+0x1fff8800>
    2e2c:	00f71963          	bne	a4,a5,2e3e <TIM_DeInit+0xe6>
    2e30:	4585                	li	a1,1
    2e32:	4511                	li	a0,4
    2e34:	3375                	jal	2be0 <RCC_APB1PeriphResetCmd>
    2e36:	4581                	li	a1,0
    2e38:	4511                	li	a0,4
    2e3a:	335d                	jal	2be0 <RCC_APB1PeriphResetCmd>
    2e3c:	a8a9                	j	2e96 <TIM_DeInit+0x13e>
    2e3e:	fec42703          	lw	a4,-20(s0)
    2e42:	400017b7          	lui	a5,0x40001
    2e46:	c0078793          	addi	a5,a5,-1024 # 40000c00 <_eusrstack+0x1fff8c00>
    2e4a:	00f71963          	bne	a4,a5,2e5c <TIM_DeInit+0x104>
    2e4e:	4585                	li	a1,1
    2e50:	4521                	li	a0,8
    2e52:	3379                	jal	2be0 <RCC_APB1PeriphResetCmd>
    2e54:	4581                	li	a1,0
    2e56:	4521                	li	a0,8
    2e58:	3361                	jal	2be0 <RCC_APB1PeriphResetCmd>
    2e5a:	a835                	j	2e96 <TIM_DeInit+0x13e>
    2e5c:	fec42703          	lw	a4,-20(s0)
    2e60:	400017b7          	lui	a5,0x40001
    2e64:	00f71963          	bne	a4,a5,2e76 <TIM_DeInit+0x11e>
    2e68:	4585                	li	a1,1
    2e6a:	4541                	li	a0,16
    2e6c:	3b95                	jal	2be0 <RCC_APB1PeriphResetCmd>
    2e6e:	4581                	li	a1,0
    2e70:	4541                	li	a0,16
    2e72:	33bd                	jal	2be0 <RCC_APB1PeriphResetCmd>
    2e74:	a00d                	j	2e96 <TIM_DeInit+0x13e>
    2e76:	fec42703          	lw	a4,-20(s0)
    2e7a:	400017b7          	lui	a5,0x40001
    2e7e:	40078793          	addi	a5,a5,1024 # 40001400 <_eusrstack+0x1fff9400>
    2e82:	00f71a63          	bne	a4,a5,2e96 <TIM_DeInit+0x13e>
    2e86:	4585                	li	a1,1
    2e88:	02000513          	li	a0,32
    2e8c:	3b91                	jal	2be0 <RCC_APB1PeriphResetCmd>
    2e8e:	4581                	li	a1,0
    2e90:	02000513          	li	a0,32
    2e94:	33b1                	jal	2be0 <RCC_APB1PeriphResetCmd>
    2e96:	0001                	nop
    2e98:	40f2                	lw	ra,28(sp)
    2e9a:	4462                	lw	s0,24(sp)
    2e9c:	6105                	addi	sp,sp,32
    2e9e:	8082                	ret

00002ea0 <TIM_TimeBaseInit>:
    2ea0:	7179                	addi	sp,sp,-48
    2ea2:	d622                	sw	s0,44(sp)
    2ea4:	1800                	addi	s0,sp,48
    2ea6:	fca42e23          	sw	a0,-36(s0)
    2eaa:	fcb42c23          	sw	a1,-40(s0)
    2eae:	fe041723          	sh	zero,-18(s0)
    2eb2:	fdc42783          	lw	a5,-36(s0)
    2eb6:	239e                	lhu	a5,0(a5)
    2eb8:	fef41723          	sh	a5,-18(s0)
    2ebc:	fdc42703          	lw	a4,-36(s0)
    2ec0:	400137b7          	lui	a5,0x40013
    2ec4:	c0078793          	addi	a5,a5,-1024 # 40012c00 <_eusrstack+0x2000ac00>
    2ec8:	06f70663          	beq	a4,a5,2f34 <TIM_TimeBaseInit+0x94>
    2ecc:	fdc42703          	lw	a4,-36(s0)
    2ed0:	400007b7          	lui	a5,0x40000
    2ed4:	06f70063          	beq	a4,a5,2f34 <TIM_TimeBaseInit+0x94>
    2ed8:	fdc42703          	lw	a4,-36(s0)
    2edc:	400007b7          	lui	a5,0x40000
    2ee0:	40078793          	addi	a5,a5,1024 # 40000400 <_eusrstack+0x1fff8400>
    2ee4:	04f70863          	beq	a4,a5,2f34 <TIM_TimeBaseInit+0x94>
    2ee8:	fdc42703          	lw	a4,-36(s0)
    2eec:	400017b7          	lui	a5,0x40001
    2ef0:	80078793          	addi	a5,a5,-2048 # 40000800 <_eusrstack+0x1fff8800>
    2ef4:	04f70063          	beq	a4,a5,2f34 <TIM_TimeBaseInit+0x94>
    2ef8:	fdc42703          	lw	a4,-36(s0)
    2efc:	400017b7          	lui	a5,0x40001
    2f00:	c0078793          	addi	a5,a5,-1024 # 40000c00 <_eusrstack+0x1fff8c00>
    2f04:	02f70863          	beq	a4,a5,2f34 <TIM_TimeBaseInit+0x94>
    2f08:	fdc42703          	lw	a4,-36(s0)
    2f0c:	400137b7          	lui	a5,0x40013
    2f10:	40078793          	addi	a5,a5,1024 # 40013400 <_eusrstack+0x2000b400>
    2f14:	02f70063          	beq	a4,a5,2f34 <TIM_TimeBaseInit+0x94>
    2f18:	fdc42703          	lw	a4,-36(s0)
    2f1c:	400157b7          	lui	a5,0x40015
    2f20:	c0078793          	addi	a5,a5,-1024 # 40014c00 <_eusrstack+0x2000cc00>
    2f24:	00f70863          	beq	a4,a5,2f34 <TIM_TimeBaseInit+0x94>
    2f28:	fdc42703          	lw	a4,-36(s0)
    2f2c:	400157b7          	lui	a5,0x40015
    2f30:	02f71063          	bne	a4,a5,2f50 <TIM_TimeBaseInit+0xb0>
    2f34:	fee45783          	lhu	a5,-18(s0)
    2f38:	f8f7f793          	andi	a5,a5,-113
    2f3c:	fef41723          	sh	a5,-18(s0)
    2f40:	fd842783          	lw	a5,-40(s0)
    2f44:	23ba                	lhu	a4,2(a5)
    2f46:	fee45783          	lhu	a5,-18(s0)
    2f4a:	8fd9                	or	a5,a5,a4
    2f4c:	fef41723          	sh	a5,-18(s0)
    2f50:	fdc42703          	lw	a4,-36(s0)
    2f54:	400017b7          	lui	a5,0x40001
    2f58:	02f70863          	beq	a4,a5,2f88 <TIM_TimeBaseInit+0xe8>
    2f5c:	fdc42703          	lw	a4,-36(s0)
    2f60:	400017b7          	lui	a5,0x40001
    2f64:	40078793          	addi	a5,a5,1024 # 40001400 <_eusrstack+0x1fff9400>
    2f68:	02f70063          	beq	a4,a5,2f88 <TIM_TimeBaseInit+0xe8>
    2f6c:	fee45783          	lhu	a5,-18(s0)
    2f70:	cff7f793          	andi	a5,a5,-769
    2f74:	fef41723          	sh	a5,-18(s0)
    2f78:	fd842783          	lw	a5,-40(s0)
    2f7c:	23fa                	lhu	a4,6(a5)
    2f7e:	fee45783          	lhu	a5,-18(s0)
    2f82:	8fd9                	or	a5,a5,a4
    2f84:	fef41723          	sh	a5,-18(s0)
    2f88:	fdc42783          	lw	a5,-36(s0)
    2f8c:	fee45703          	lhu	a4,-18(s0)
    2f90:	a39a                	sh	a4,0(a5)
    2f92:	fd842783          	lw	a5,-40(s0)
    2f96:	23da                	lhu	a4,4(a5)
    2f98:	fdc42783          	lw	a5,-36(s0)
    2f9c:	b7da                	sh	a4,44(a5)
    2f9e:	fd842783          	lw	a5,-40(s0)
    2fa2:	239a                	lhu	a4,0(a5)
    2fa4:	fdc42783          	lw	a5,-36(s0)
    2fa8:	b79a                	sh	a4,40(a5)
    2faa:	fdc42703          	lw	a4,-36(s0)
    2fae:	400137b7          	lui	a5,0x40013
    2fb2:	c0078793          	addi	a5,a5,-1024 # 40012c00 <_eusrstack+0x2000ac00>
    2fb6:	02f70863          	beq	a4,a5,2fe6 <TIM_TimeBaseInit+0x146>
    2fba:	fdc42703          	lw	a4,-36(s0)
    2fbe:	400137b7          	lui	a5,0x40013
    2fc2:	40078793          	addi	a5,a5,1024 # 40013400 <_eusrstack+0x2000b400>
    2fc6:	02f70063          	beq	a4,a5,2fe6 <TIM_TimeBaseInit+0x146>
    2fca:	fdc42703          	lw	a4,-36(s0)
    2fce:	400157b7          	lui	a5,0x40015
    2fd2:	c0078793          	addi	a5,a5,-1024 # 40014c00 <_eusrstack+0x2000cc00>
    2fd6:	00f70863          	beq	a4,a5,2fe6 <TIM_TimeBaseInit+0x146>
    2fda:	fdc42703          	lw	a4,-36(s0)
    2fde:	400157b7          	lui	a5,0x40015
    2fe2:	00f71b63          	bne	a4,a5,2ff8 <TIM_TimeBaseInit+0x158>
    2fe6:	fd842783          	lw	a5,-40(s0)
    2fea:	279c                	lbu	a5,8(a5)
    2fec:	01079713          	slli	a4,a5,0x10
    2ff0:	8341                	srli	a4,a4,0x10
    2ff2:	fdc42783          	lw	a5,-36(s0)
    2ff6:	bb9a                	sh	a4,48(a5)
    2ff8:	fdc42783          	lw	a5,-36(s0)
    2ffc:	4705                	li	a4,1
    2ffe:	abda                	sh	a4,20(a5)
    3000:	0001                	nop
    3002:	5432                	lw	s0,44(sp)
    3004:	6145                	addi	sp,sp,48
    3006:	8082                	ret

00003008 <TIM_Cmd>:
    3008:	1101                	addi	sp,sp,-32
    300a:	ce22                	sw	s0,28(sp)
    300c:	1000                	addi	s0,sp,32
    300e:	fea42623          	sw	a0,-20(s0)
    3012:	feb42423          	sw	a1,-24(s0)
    3016:	fe842783          	lw	a5,-24(s0)
    301a:	cf99                	beqz	a5,3038 <TIM_Cmd+0x30>
    301c:	fec42783          	lw	a5,-20(s0)
    3020:	239e                	lhu	a5,0(a5)
    3022:	07c2                	slli	a5,a5,0x10
    3024:	83c1                	srli	a5,a5,0x10
    3026:	0017e793          	ori	a5,a5,1
    302a:	01079713          	slli	a4,a5,0x10
    302e:	8341                	srli	a4,a4,0x10
    3030:	fec42783          	lw	a5,-20(s0)
    3034:	a39a                	sh	a4,0(a5)
    3036:	a829                	j	3050 <TIM_Cmd+0x48>
    3038:	fec42783          	lw	a5,-20(s0)
    303c:	239e                	lhu	a5,0(a5)
    303e:	07c2                	slli	a5,a5,0x10
    3040:	83c1                	srli	a5,a5,0x10
    3042:	9bf9                	andi	a5,a5,-2
    3044:	01079713          	slli	a4,a5,0x10
    3048:	8341                	srli	a4,a4,0x10
    304a:	fec42783          	lw	a5,-20(s0)
    304e:	a39a                	sh	a4,0(a5)
    3050:	0001                	nop
    3052:	4472                	lw	s0,28(sp)
    3054:	6105                	addi	sp,sp,32
    3056:	8082                	ret

00003058 <TIM_ITConfig>:
    3058:	1101                	addi	sp,sp,-32
    305a:	ce22                	sw	s0,28(sp)
    305c:	1000                	addi	s0,sp,32
    305e:	fea42623          	sw	a0,-20(s0)
    3062:	87ae                	mv	a5,a1
    3064:	fec42223          	sw	a2,-28(s0)
    3068:	fef41523          	sh	a5,-22(s0)
    306c:	fe442783          	lw	a5,-28(s0)
    3070:	c38d                	beqz	a5,3092 <TIM_ITConfig+0x3a>
    3072:	fec42783          	lw	a5,-20(s0)
    3076:	27de                	lhu	a5,12(a5)
    3078:	01079713          	slli	a4,a5,0x10
    307c:	8341                	srli	a4,a4,0x10
    307e:	fea45783          	lhu	a5,-22(s0)
    3082:	8fd9                	or	a5,a5,a4
    3084:	01079713          	slli	a4,a5,0x10
    3088:	8341                	srli	a4,a4,0x10
    308a:	fec42783          	lw	a5,-20(s0)
    308e:	a7da                	sh	a4,12(a5)
    3090:	a025                	j	30b8 <TIM_ITConfig+0x60>
    3092:	fec42783          	lw	a5,-20(s0)
    3096:	27de                	lhu	a5,12(a5)
    3098:	01079713          	slli	a4,a5,0x10
    309c:	8341                	srli	a4,a4,0x10
    309e:	fea45783          	lhu	a5,-22(s0)
    30a2:	fff7c793          	not	a5,a5
    30a6:	07c2                	slli	a5,a5,0x10
    30a8:	83c1                	srli	a5,a5,0x10
    30aa:	8ff9                	and	a5,a5,a4
    30ac:	01079713          	slli	a4,a5,0x10
    30b0:	8341                	srli	a4,a4,0x10
    30b2:	fec42783          	lw	a5,-20(s0)
    30b6:	a7da                	sh	a4,12(a5)
    30b8:	0001                	nop
    30ba:	4472                	lw	s0,28(sp)
    30bc:	6105                	addi	sp,sp,32
    30be:	8082                	ret

000030c0 <TIM_ClearFlag>:
    30c0:	1101                	addi	sp,sp,-32
    30c2:	ce22                	sw	s0,28(sp)
    30c4:	1000                	addi	s0,sp,32
    30c6:	fea42623          	sw	a0,-20(s0)
    30ca:	87ae                	mv	a5,a1
    30cc:	fef41523          	sh	a5,-22(s0)
    30d0:	fea45783          	lhu	a5,-22(s0)
    30d4:	fff7c793          	not	a5,a5
    30d8:	01079713          	slli	a4,a5,0x10
    30dc:	8341                	srli	a4,a4,0x10
    30de:	fec42783          	lw	a5,-20(s0)
    30e2:	ab9a                	sh	a4,16(a5)
    30e4:	0001                	nop
    30e6:	4472                	lw	s0,28(sp)
    30e8:	6105                	addi	sp,sp,32
    30ea:	8082                	ret

000030ec <USART_Init>:
    30ec:	715d                	addi	sp,sp,-80
    30ee:	c686                	sw	ra,76(sp)
    30f0:	c4a2                	sw	s0,72(sp)
    30f2:	0880                	addi	s0,sp,80
    30f4:	faa42e23          	sw	a0,-68(s0)
    30f8:	fab42c23          	sw	a1,-72(s0)
    30fc:	fe042623          	sw	zero,-20(s0)
    3100:	fe042423          	sw	zero,-24(s0)
    3104:	fe042223          	sw	zero,-28(s0)
    3108:	fe042023          	sw	zero,-32(s0)
    310c:	fc042e23          	sw	zero,-36(s0)
    3110:	fbc42783          	lw	a5,-68(s0)
    3114:	fcf42e23          	sw	a5,-36(s0)
    3118:	fbc42783          	lw	a5,-68(s0)
    311c:	2b9e                	lhu	a5,16(a5)
    311e:	07c2                	slli	a5,a5,0x10
    3120:	83c1                	srli	a5,a5,0x10
    3122:	fef42623          	sw	a5,-20(s0)
    3126:	fec42703          	lw	a4,-20(s0)
    312a:	67b5                	lui	a5,0xd
    312c:	17fd                	addi	a5,a5,-1
    312e:	8ff9                	and	a5,a5,a4
    3130:	fef42623          	sw	a5,-20(s0)
    3134:	fb842783          	lw	a5,-72(s0)
    3138:	23fe                	lhu	a5,6(a5)
    313a:	873e                	mv	a4,a5
    313c:	fec42783          	lw	a5,-20(s0)
    3140:	8fd9                	or	a5,a5,a4
    3142:	fef42623          	sw	a5,-20(s0)
    3146:	fec42783          	lw	a5,-20(s0)
    314a:	01079713          	slli	a4,a5,0x10
    314e:	8341                	srli	a4,a4,0x10
    3150:	fbc42783          	lw	a5,-68(s0)
    3154:	ab9a                	sh	a4,16(a5)
    3156:	fbc42783          	lw	a5,-68(s0)
    315a:	27de                	lhu	a5,12(a5)
    315c:	07c2                	slli	a5,a5,0x10
    315e:	83c1                	srli	a5,a5,0x10
    3160:	fef42623          	sw	a5,-20(s0)
    3164:	fec42703          	lw	a4,-20(s0)
    3168:	67bd                	lui	a5,0xf
    316a:	9f378793          	addi	a5,a5,-1549 # e9f3 <_data_lma+0x9e43>
    316e:	8ff9                	and	a5,a5,a4
    3170:	fef42623          	sw	a5,-20(s0)
    3174:	fb842783          	lw	a5,-72(s0)
    3178:	23da                	lhu	a4,4(a5)
    317a:	fb842783          	lw	a5,-72(s0)
    317e:	279e                	lhu	a5,8(a5)
    3180:	8fd9                	or	a5,a5,a4
    3182:	01079713          	slli	a4,a5,0x10
    3186:	8341                	srli	a4,a4,0x10
    3188:	fb842783          	lw	a5,-72(s0)
    318c:	27be                	lhu	a5,10(a5)
    318e:	8fd9                	or	a5,a5,a4
    3190:	07c2                	slli	a5,a5,0x10
    3192:	83c1                	srli	a5,a5,0x10
    3194:	873e                	mv	a4,a5
    3196:	fec42783          	lw	a5,-20(s0)
    319a:	8fd9                	or	a5,a5,a4
    319c:	fef42623          	sw	a5,-20(s0)
    31a0:	fec42783          	lw	a5,-20(s0)
    31a4:	01079713          	slli	a4,a5,0x10
    31a8:	8341                	srli	a4,a4,0x10
    31aa:	fbc42783          	lw	a5,-68(s0)
    31ae:	a7da                	sh	a4,12(a5)
    31b0:	fbc42783          	lw	a5,-68(s0)
    31b4:	2bde                	lhu	a5,20(a5)
    31b6:	07c2                	slli	a5,a5,0x10
    31b8:	83c1                	srli	a5,a5,0x10
    31ba:	fef42623          	sw	a5,-20(s0)
    31be:	fec42703          	lw	a4,-20(s0)
    31c2:	67c1                	lui	a5,0x10
    31c4:	cff78793          	addi	a5,a5,-769 # fcff <_data_lma+0xb14f>
    31c8:	8ff9                	and	a5,a5,a4
    31ca:	fef42623          	sw	a5,-20(s0)
    31ce:	fb842783          	lw	a5,-72(s0)
    31d2:	27de                	lhu	a5,12(a5)
    31d4:	873e                	mv	a4,a5
    31d6:	fec42783          	lw	a5,-20(s0)
    31da:	8fd9                	or	a5,a5,a4
    31dc:	fef42623          	sw	a5,-20(s0)
    31e0:	fec42783          	lw	a5,-20(s0)
    31e4:	01079713          	slli	a4,a5,0x10
    31e8:	8341                	srli	a4,a4,0x10
    31ea:	fbc42783          	lw	a5,-68(s0)
    31ee:	abda                	sh	a4,20(a5)
    31f0:	fc840793          	addi	a5,s0,-56
    31f4:	853e                	mv	a0,a5
    31f6:	d44ff0ef          	jal	ra,273a <RCC_GetClocksFreq>
    31fa:	fdc42703          	lw	a4,-36(s0)
    31fe:	400147b7          	lui	a5,0x40014
    3202:	80078793          	addi	a5,a5,-2048 # 40013800 <_eusrstack+0x2000b800>
    3206:	00f71763          	bne	a4,a5,3214 <USART_Init+0x128>
    320a:	fd442783          	lw	a5,-44(s0)
    320e:	fef42423          	sw	a5,-24(s0)
    3212:	a029                	j	321c <USART_Init+0x130>
    3214:	fd042783          	lw	a5,-48(s0)
    3218:	fef42423          	sw	a5,-24(s0)
    321c:	fbc42783          	lw	a5,-68(s0)
    3220:	27de                	lhu	a5,12(a5)
    3222:	07c2                	slli	a5,a5,0x10
    3224:	83c1                	srli	a5,a5,0x10
    3226:	07c2                	slli	a5,a5,0x10
    3228:	87c1                	srai	a5,a5,0x10
    322a:	0207d263          	bgez	a5,324e <USART_Init+0x162>
    322e:	fe842703          	lw	a4,-24(s0)
    3232:	87ba                	mv	a5,a4
    3234:	0786                	slli	a5,a5,0x1
    3236:	97ba                	add	a5,a5,a4
    3238:	078e                	slli	a5,a5,0x3
    323a:	973e                	add	a4,a4,a5
    323c:	fb842783          	lw	a5,-72(s0)
    3240:	439c                	lw	a5,0(a5)
    3242:	0786                	slli	a5,a5,0x1
    3244:	02f757b3          	divu	a5,a4,a5
    3248:	fef42223          	sw	a5,-28(s0)
    324c:	a005                	j	326c <USART_Init+0x180>
    324e:	fe842703          	lw	a4,-24(s0)
    3252:	87ba                	mv	a5,a4
    3254:	0786                	slli	a5,a5,0x1
    3256:	97ba                	add	a5,a5,a4
    3258:	078e                	slli	a5,a5,0x3
    325a:	973e                	add	a4,a4,a5
    325c:	fb842783          	lw	a5,-72(s0)
    3260:	439c                	lw	a5,0(a5)
    3262:	078a                	slli	a5,a5,0x2
    3264:	02f757b3          	divu	a5,a4,a5
    3268:	fef42223          	sw	a5,-28(s0)
    326c:	fe442703          	lw	a4,-28(s0)
    3270:	06400793          	li	a5,100
    3274:	02f757b3          	divu	a5,a4,a5
    3278:	0792                	slli	a5,a5,0x4
    327a:	fef42623          	sw	a5,-20(s0)
    327e:	fec42783          	lw	a5,-20(s0)
    3282:	0047d713          	srli	a4,a5,0x4
    3286:	06400793          	li	a5,100
    328a:	02f707b3          	mul	a5,a4,a5
    328e:	fe442703          	lw	a4,-28(s0)
    3292:	40f707b3          	sub	a5,a4,a5
    3296:	fef42023          	sw	a5,-32(s0)
    329a:	fbc42783          	lw	a5,-68(s0)
    329e:	27de                	lhu	a5,12(a5)
    32a0:	07c2                	slli	a5,a5,0x10
    32a2:	83c1                	srli	a5,a5,0x10
    32a4:	07c2                	slli	a5,a5,0x10
    32a6:	87c1                	srai	a5,a5,0x10
    32a8:	0207d263          	bgez	a5,32cc <USART_Init+0x1e0>
    32ac:	fe042783          	lw	a5,-32(s0)
    32b0:	078e                	slli	a5,a5,0x3
    32b2:	03278713          	addi	a4,a5,50
    32b6:	06400793          	li	a5,100
    32ba:	02f757b3          	divu	a5,a4,a5
    32be:	8b9d                	andi	a5,a5,7
    32c0:	fec42703          	lw	a4,-20(s0)
    32c4:	8fd9                	or	a5,a5,a4
    32c6:	fef42623          	sw	a5,-20(s0)
    32ca:	a005                	j	32ea <USART_Init+0x1fe>
    32cc:	fe042783          	lw	a5,-32(s0)
    32d0:	0792                	slli	a5,a5,0x4
    32d2:	03278713          	addi	a4,a5,50
    32d6:	06400793          	li	a5,100
    32da:	02f757b3          	divu	a5,a4,a5
    32de:	8bbd                	andi	a5,a5,15
    32e0:	fec42703          	lw	a4,-20(s0)
    32e4:	8fd9                	or	a5,a5,a4
    32e6:	fef42623          	sw	a5,-20(s0)
    32ea:	fec42783          	lw	a5,-20(s0)
    32ee:	01079713          	slli	a4,a5,0x10
    32f2:	8341                	srli	a4,a4,0x10
    32f4:	fbc42783          	lw	a5,-68(s0)
    32f8:	a79a                	sh	a4,8(a5)
    32fa:	0001                	nop
    32fc:	40b6                	lw	ra,76(sp)
    32fe:	4426                	lw	s0,72(sp)
    3300:	6161                	addi	sp,sp,80
    3302:	8082                	ret

00003304 <USART_Cmd>:
    3304:	1101                	addi	sp,sp,-32
    3306:	ce22                	sw	s0,28(sp)
    3308:	1000                	addi	s0,sp,32
    330a:	fea42623          	sw	a0,-20(s0)
    330e:	feb42423          	sw	a1,-24(s0)
    3312:	fe842783          	lw	a5,-24(s0)
    3316:	c385                	beqz	a5,3336 <USART_Cmd+0x32>
    3318:	fec42783          	lw	a5,-20(s0)
    331c:	27de                	lhu	a5,12(a5)
    331e:	01079713          	slli	a4,a5,0x10
    3322:	8341                	srli	a4,a4,0x10
    3324:	6789                	lui	a5,0x2
    3326:	8fd9                	or	a5,a5,a4
    3328:	01079713          	slli	a4,a5,0x10
    332c:	8341                	srli	a4,a4,0x10
    332e:	fec42783          	lw	a5,-20(s0)
    3332:	a7da                	sh	a4,12(a5)
    3334:	a005                	j	3354 <USART_Cmd+0x50>
    3336:	fec42783          	lw	a5,-20(s0)
    333a:	27de                	lhu	a5,12(a5)
    333c:	01079713          	slli	a4,a5,0x10
    3340:	8341                	srli	a4,a4,0x10
    3342:	77f9                	lui	a5,0xffffe
    3344:	17fd                	addi	a5,a5,-1
    3346:	8ff9                	and	a5,a5,a4
    3348:	01079713          	slli	a4,a5,0x10
    334c:	8341                	srli	a4,a4,0x10
    334e:	fec42783          	lw	a5,-20(s0)
    3352:	a7da                	sh	a4,12(a5)
    3354:	0001                	nop
    3356:	4472                	lw	s0,28(sp)
    3358:	6105                	addi	sp,sp,32
    335a:	8082                	ret

0000335c <USART_DMACmd>:
    335c:	1101                	addi	sp,sp,-32
    335e:	ce22                	sw	s0,28(sp)
    3360:	1000                	addi	s0,sp,32
    3362:	fea42623          	sw	a0,-20(s0)
    3366:	87ae                	mv	a5,a1
    3368:	fec42223          	sw	a2,-28(s0)
    336c:	fef41523          	sh	a5,-22(s0)
    3370:	fe442783          	lw	a5,-28(s0)
    3374:	c38d                	beqz	a5,3396 <USART_DMACmd+0x3a>
    3376:	fec42783          	lw	a5,-20(s0)
    337a:	2bde                	lhu	a5,20(a5)
    337c:	01079713          	slli	a4,a5,0x10
    3380:	8341                	srli	a4,a4,0x10
    3382:	fea45783          	lhu	a5,-22(s0)
    3386:	8fd9                	or	a5,a5,a4
    3388:	01079713          	slli	a4,a5,0x10
    338c:	8341                	srli	a4,a4,0x10
    338e:	fec42783          	lw	a5,-20(s0)
    3392:	abda                	sh	a4,20(a5)
    3394:	a025                	j	33bc <USART_DMACmd+0x60>
    3396:	fec42783          	lw	a5,-20(s0)
    339a:	2bde                	lhu	a5,20(a5)
    339c:	01079713          	slli	a4,a5,0x10
    33a0:	8341                	srli	a4,a4,0x10
    33a2:	fea45783          	lhu	a5,-22(s0)
    33a6:	fff7c793          	not	a5,a5
    33aa:	07c2                	slli	a5,a5,0x10
    33ac:	83c1                	srli	a5,a5,0x10
    33ae:	8ff9                	and	a5,a5,a4
    33b0:	01079713          	slli	a4,a5,0x10
    33b4:	8341                	srli	a4,a4,0x10
    33b6:	fec42783          	lw	a5,-20(s0)
    33ba:	abda                	sh	a4,20(a5)
    33bc:	0001                	nop
    33be:	4472                	lw	s0,28(sp)
    33c0:	6105                	addi	sp,sp,32
    33c2:	8082                	ret

000033c4 <USART_SendData>:
    33c4:	1101                	addi	sp,sp,-32
    33c6:	ce22                	sw	s0,28(sp)
    33c8:	1000                	addi	s0,sp,32
    33ca:	fea42623          	sw	a0,-20(s0)
    33ce:	87ae                	mv	a5,a1
    33d0:	fef41523          	sh	a5,-22(s0)
    33d4:	fea45783          	lhu	a5,-22(s0)
    33d8:	1ff7f793          	andi	a5,a5,511
    33dc:	01079713          	slli	a4,a5,0x10
    33e0:	8341                	srli	a4,a4,0x10
    33e2:	fec42783          	lw	a5,-20(s0)
    33e6:	a3da                	sh	a4,4(a5)
    33e8:	0001                	nop
    33ea:	4472                	lw	s0,28(sp)
    33ec:	6105                	addi	sp,sp,32
    33ee:	8082                	ret

000033f0 <USART_GetFlagStatus>:
    33f0:	7179                	addi	sp,sp,-48
    33f2:	d622                	sw	s0,44(sp)
    33f4:	1800                	addi	s0,sp,48
    33f6:	fca42e23          	sw	a0,-36(s0)
    33fa:	87ae                	mv	a5,a1
    33fc:	fcf41d23          	sh	a5,-38(s0)
    3400:	fe042623          	sw	zero,-20(s0)
    3404:	fdc42783          	lw	a5,-36(s0)
    3408:	239e                	lhu	a5,0(a5)
    340a:	01079713          	slli	a4,a5,0x10
    340e:	8341                	srli	a4,a4,0x10
    3410:	fda45783          	lhu	a5,-38(s0)
    3414:	8ff9                	and	a5,a5,a4
    3416:	07c2                	slli	a5,a5,0x10
    3418:	83c1                	srli	a5,a5,0x10
    341a:	c789                	beqz	a5,3424 <USART_GetFlagStatus+0x34>
    341c:	4785                	li	a5,1
    341e:	fef42623          	sw	a5,-20(s0)
    3422:	a019                	j	3428 <USART_GetFlagStatus+0x38>
    3424:	fe042623          	sw	zero,-20(s0)
    3428:	fec42783          	lw	a5,-20(s0)
    342c:	853e                	mv	a0,a5
    342e:	5432                	lw	s0,44(sp)
    3430:	6145                	addi	sp,sp,48
    3432:	8082                	ret

00003434 <USART_ClearFlag>:
    3434:	1101                	addi	sp,sp,-32
    3436:	ce22                	sw	s0,28(sp)
    3438:	1000                	addi	s0,sp,32
    343a:	fea42623          	sw	a0,-20(s0)
    343e:	87ae                	mv	a5,a1
    3440:	fef41523          	sh	a5,-22(s0)
    3444:	fea45783          	lhu	a5,-22(s0)
    3448:	fff7c793          	not	a5,a5
    344c:	01079713          	slli	a4,a5,0x10
    3450:	8341                	srli	a4,a4,0x10
    3452:	fec42783          	lw	a5,-20(s0)
    3456:	a39a                	sh	a4,0(a5)
    3458:	0001                	nop
    345a:	4472                	lw	s0,28(sp)
    345c:	6105                	addi	sp,sp,32
    345e:	8082                	ret

00003460 <Delay_Init>:
    3460:	1141                	addi	sp,sp,-16
    3462:	c622                	sw	s0,12(sp)
    3464:	0800                	addi	s0,sp,16
    3466:	200007b7          	lui	a5,0x20000
    346a:	1087a703          	lw	a4,264(a5) # 20000108 <SystemCoreClock>
    346e:	007a17b7          	lui	a5,0x7a1
    3472:	20078793          	addi	a5,a5,512 # 7a1200 <_data_lma+0x79c650>
    3476:	02f757b3          	divu	a5,a4,a5
    347a:	0ff7f713          	andi	a4,a5,255
    347e:	82e18b23          	sb	a4,-1994(gp) # 2000013e <p_us>
    3482:	8361c783          	lbu	a5,-1994(gp) # 2000013e <p_us>
    3486:	01079713          	slli	a4,a5,0x10
    348a:	8341                	srli	a4,a4,0x10
    348c:	3e800793          	li	a5,1000
    3490:	02f707b3          	mul	a5,a4,a5
    3494:	01079713          	slli	a4,a5,0x10
    3498:	8341                	srli	a4,a4,0x10
    349a:	82e19c23          	sh	a4,-1992(gp) # 20000140 <p_ms>
    349e:	0001                	nop
    34a0:	4432                	lw	s0,12(sp)
    34a2:	0141                	addi	sp,sp,16
    34a4:	8082                	ret

000034a6 <Delay_Us>:
    34a6:	7179                	addi	sp,sp,-48
    34a8:	d622                	sw	s0,44(sp)
    34aa:	1800                	addi	s0,sp,48
    34ac:	fca42e23          	sw	a0,-36(s0)
    34b0:	e000f737          	lui	a4,0xe000f
    34b4:	4354                	lw	a3,4(a4)
    34b6:	e000f737          	lui	a4,0xe000f
    34ba:	9af9                	andi	a3,a3,-2
    34bc:	c354                	sw	a3,4(a4)
    34be:	8361c703          	lbu	a4,-1994(gp) # 2000013e <p_us>
    34c2:	86ba                	mv	a3,a4
    34c4:	fdc42703          	lw	a4,-36(s0)
    34c8:	02d70733          	mul	a4,a4,a3
    34cc:	fee42623          	sw	a4,-20(s0)
    34d0:	e000f737          	lui	a4,0xe000f
    34d4:	fec42683          	lw	a3,-20(s0)
    34d8:	87b6                	mv	a5,a3
    34da:	4801                	li	a6,0
    34dc:	cb1c                	sw	a5,16(a4)
    34de:	01072a23          	sw	a6,20(a4) # e000f014 <_eusrstack+0xc0007014>
    34e2:	e000f7b7          	lui	a5,0xe000f
    34e6:	4398                	lw	a4,0(a5)
    34e8:	e000f7b7          	lui	a5,0xe000f
    34ec:	01076713          	ori	a4,a4,16
    34f0:	c398                	sw	a4,0(a5)
    34f2:	e000f7b7          	lui	a5,0xe000f
    34f6:	4398                	lw	a4,0(a5)
    34f8:	e000f7b7          	lui	a5,0xe000f
    34fc:	02176713          	ori	a4,a4,33
    3500:	c398                	sw	a4,0(a5)
    3502:	0001                	nop
    3504:	e000f7b7          	lui	a5,0xe000f
    3508:	43dc                	lw	a5,4(a5)
    350a:	0017f713          	andi	a4,a5,1
    350e:	4785                	li	a5,1
    3510:	fef71ae3          	bne	a4,a5,3504 <Delay_Us+0x5e>
    3514:	e000f7b7          	lui	a5,0xe000f
    3518:	4398                	lw	a4,0(a5)
    351a:	e000f7b7          	lui	a5,0xe000f
    351e:	9b79                	andi	a4,a4,-2
    3520:	c398                	sw	a4,0(a5)
    3522:	0001                	nop
    3524:	5432                	lw	s0,44(sp)
    3526:	6145                	addi	sp,sp,48
    3528:	8082                	ret

0000352a <USART_Printf_Init>:
    352a:	7139                	addi	sp,sp,-64
    352c:	de06                	sw	ra,60(sp)
    352e:	dc22                	sw	s0,56(sp)
    3530:	0080                	addi	s0,sp,64
    3532:	fca42623          	sw	a0,-52(s0)
    3536:	4585                	li	a1,1
    3538:	6791                	lui	a5,0x4
    353a:	00478513          	addi	a0,a5,4 # 4004 <_malloc_r+0x96>
    353e:	dd0ff0ef          	jal	ra,2b0e <RCC_APB2PeriphClockCmd>
    3542:	20000793          	li	a5,512
    3546:	fef41223          	sh	a5,-28(s0)
    354a:	478d                	li	a5,3
    354c:	fef42423          	sw	a5,-24(s0)
    3550:	47e1                	li	a5,24
    3552:	fef42623          	sw	a5,-20(s0)
    3556:	fe440793          	addi	a5,s0,-28
    355a:	85be                	mv	a1,a5
    355c:	400117b7          	lui	a5,0x40011
    3560:	80078513          	addi	a0,a5,-2048 # 40010800 <_eusrstack+0x20008800>
    3564:	f93fe0ef          	jal	ra,24f6 <GPIO_Init>
    3568:	fcc42783          	lw	a5,-52(s0)
    356c:	fcf42a23          	sw	a5,-44(s0)
    3570:	fc041c23          	sh	zero,-40(s0)
    3574:	fc041d23          	sh	zero,-38(s0)
    3578:	fc041e23          	sh	zero,-36(s0)
    357c:	fe041023          	sh	zero,-32(s0)
    3580:	47a1                	li	a5,8
    3582:	fcf41f23          	sh	a5,-34(s0)
    3586:	fd440793          	addi	a5,s0,-44
    358a:	85be                	mv	a1,a5
    358c:	400147b7          	lui	a5,0x40014
    3590:	80078513          	addi	a0,a5,-2048 # 40013800 <_eusrstack+0x2000b800>
    3594:	b59ff0ef          	jal	ra,30ec <USART_Init>
    3598:	4585                	li	a1,1
    359a:	400147b7          	lui	a5,0x40014
    359e:	80078513          	addi	a0,a5,-2048 # 40013800 <_eusrstack+0x2000b800>
    35a2:	338d                	jal	3304 <USART_Cmd>
    35a4:	0001                	nop
    35a6:	50f2                	lw	ra,60(sp)
    35a8:	5462                	lw	s0,56(sp)
    35aa:	6121                	addi	sp,sp,64
    35ac:	8082                	ret

000035ae <_write>:
    35ae:	7179                	addi	sp,sp,-48
    35b0:	d606                	sw	ra,44(sp)
    35b2:	d422                	sw	s0,40(sp)
    35b4:	1800                	addi	s0,sp,48
    35b6:	fca42e23          	sw	a0,-36(s0)
    35ba:	fcb42c23          	sw	a1,-40(s0)
    35be:	fcc42a23          	sw	a2,-44(s0)
    35c2:	fe042623          	sw	zero,-20(s0)
    35c6:	a081                	j	3606 <_write+0x58>
    35c8:	0001                	nop
    35ca:	04000593          	li	a1,64
    35ce:	400147b7          	lui	a5,0x40014
    35d2:	80078513          	addi	a0,a5,-2048 # 40013800 <_eusrstack+0x2000b800>
    35d6:	3d29                	jal	33f0 <USART_GetFlagStatus>
    35d8:	87aa                	mv	a5,a0
    35da:	dbe5                	beqz	a5,35ca <_write+0x1c>
    35dc:	fd842783          	lw	a5,-40(s0)
    35e0:	00178713          	addi	a4,a5,1
    35e4:	fce42c23          	sw	a4,-40(s0)
    35e8:	00078783          	lb	a5,0(a5)
    35ec:	07c2                	slli	a5,a5,0x10
    35ee:	83c1                	srli	a5,a5,0x10
    35f0:	85be                	mv	a1,a5
    35f2:	400147b7          	lui	a5,0x40014
    35f6:	80078513          	addi	a0,a5,-2048 # 40013800 <_eusrstack+0x2000b800>
    35fa:	33e9                	jal	33c4 <USART_SendData>
    35fc:	fec42783          	lw	a5,-20(s0)
    3600:	0785                	addi	a5,a5,1
    3602:	fef42623          	sw	a5,-20(s0)
    3606:	fec42703          	lw	a4,-20(s0)
    360a:	fd442783          	lw	a5,-44(s0)
    360e:	faf74de3          	blt	a4,a5,35c8 <_write+0x1a>
    3612:	fd442783          	lw	a5,-44(s0)
    3616:	853e                	mv	a0,a5
    3618:	50b2                	lw	ra,44(sp)
    361a:	5422                	lw	s0,40(sp)
    361c:	6145                	addi	sp,sp,48
    361e:	8082                	ret

00003620 <_sbrk>:
    3620:	1101                	addi	sp,sp,-32
    3622:	ce22                	sw	s0,28(sp)
    3624:	1000                	addi	s0,sp,32
    3626:	fea42623          	sw	a0,-20(s0)
    362a:	8081a703          	lw	a4,-2040(gp) # 20000110 <curbrk.5218>
    362e:	fec42783          	lw	a5,-20(s0)
    3632:	973e                	add	a4,a4,a5
    3634:	200027b7          	lui	a5,0x20002
    3638:	1cc78793          	addi	a5,a5,460 # 200021cc <_ebss>
    363c:	00f76d63          	bltu	a4,a5,3656 <_sbrk+0x36>
    3640:	8081a703          	lw	a4,-2040(gp) # 20000110 <curbrk.5218>
    3644:	fec42783          	lw	a5,-20(s0)
    3648:	973e                	add	a4,a4,a5
    364a:	200087b7          	lui	a5,0x20008
    364e:	80078793          	addi	a5,a5,-2048 # 20007800 <_heap_end>
    3652:	00e7f463          	bgeu	a5,a4,365a <_sbrk+0x3a>
    3656:	57fd                	li	a5,-1
    3658:	a839                	j	3676 <_sbrk+0x56>
    365a:	8081a703          	lw	a4,-2040(gp) # 20000110 <curbrk.5218>
    365e:	fec42783          	lw	a5,-20(s0)
    3662:	973e                	add	a4,a4,a5
    3664:	80e1a423          	sw	a4,-2040(gp) # 20000110 <curbrk.5218>
    3668:	8081a703          	lw	a4,-2040(gp) # 20000110 <curbrk.5218>
    366c:	fec42783          	lw	a5,-20(s0)
    3670:	40f007b3          	neg	a5,a5
    3674:	97ba                	add	a5,a5,a4
    3676:	853e                	mv	a0,a5
    3678:	4472                	lw	s0,28(sp)
    367a:	6105                	addi	sp,sp,32
    367c:	8082                	ret

0000367e <memcpy>:
    367e:	00a5c7b3          	xor	a5,a1,a0
    3682:	8b8d                	andi	a5,a5,3
    3684:	00c50733          	add	a4,a0,a2
    3688:	e781                	bnez	a5,3690 <memcpy+0x12>
    368a:	478d                	li	a5,3
    368c:	00c7ed63          	bltu	a5,a2,36a6 <memcpy+0x28>
    3690:	87aa                	mv	a5,a0
    3692:	08e57e63          	bgeu	a0,a4,372e <memcpy+0xb0>
    3696:	2194                	lbu	a3,0(a1)
    3698:	0785                	addi	a5,a5,1
    369a:	0585                	addi	a1,a1,1
    369c:	fed78fa3          	sb	a3,-1(a5)
    36a0:	fee7ebe3          	bltu	a5,a4,3696 <memcpy+0x18>
    36a4:	8082                	ret
    36a6:	00357693          	andi	a3,a0,3
    36aa:	87aa                	mv	a5,a0
    36ac:	ca89                	beqz	a3,36be <memcpy+0x40>
    36ae:	2194                	lbu	a3,0(a1)
    36b0:	0785                	addi	a5,a5,1
    36b2:	0585                	addi	a1,a1,1
    36b4:	fed78fa3          	sb	a3,-1(a5)
    36b8:	0037f693          	andi	a3,a5,3
    36bc:	bfc5                	j	36ac <memcpy+0x2e>
    36be:	ffc77693          	andi	a3,a4,-4
    36c2:	fe068613          	addi	a2,a3,-32
    36c6:	06c7f063          	bgeu	a5,a2,3726 <memcpy+0xa8>
    36ca:	0005a383          	lw	t2,0(a1)
    36ce:	0045a283          	lw	t0,4(a1)
    36d2:	0085af83          	lw	t6,8(a1)
    36d6:	00c5af03          	lw	t5,12(a1)
    36da:	0105ae83          	lw	t4,16(a1)
    36de:	0145ae03          	lw	t3,20(a1)
    36e2:	0185a303          	lw	t1,24(a1)
    36e6:	01c5a883          	lw	a7,28(a1)
    36ea:	02458593          	addi	a1,a1,36
    36ee:	0077a023          	sw	t2,0(a5)
    36f2:	ffc5a803          	lw	a6,-4(a1)
    36f6:	0057a223          	sw	t0,4(a5)
    36fa:	01f7a423          	sw	t6,8(a5)
    36fe:	01e7a623          	sw	t5,12(a5)
    3702:	01d7a823          	sw	t4,16(a5)
    3706:	01c7aa23          	sw	t3,20(a5)
    370a:	0067ac23          	sw	t1,24(a5)
    370e:	0117ae23          	sw	a7,28(a5)
    3712:	02478793          	addi	a5,a5,36
    3716:	ff07ae23          	sw	a6,-4(a5)
    371a:	b775                	j	36c6 <memcpy+0x48>
    371c:	4190                	lw	a2,0(a1)
    371e:	0791                	addi	a5,a5,4
    3720:	0591                	addi	a1,a1,4
    3722:	fec7ae23          	sw	a2,-4(a5)
    3726:	fed7ebe3          	bltu	a5,a3,371c <memcpy+0x9e>
    372a:	f6e7e6e3          	bltu	a5,a4,3696 <memcpy+0x18>
    372e:	8082                	ret

00003730 <iprintf>:
    3730:	7139                	addi	sp,sp,-64
    3732:	da3e                	sw	a5,52(sp)
    3734:	d22e                	sw	a1,36(sp)
    3736:	d432                	sw	a2,40(sp)
    3738:	d636                	sw	a3,44(sp)
    373a:	d83a                	sw	a4,48(sp)
    373c:	dc42                	sw	a6,56(sp)
    373e:	de46                	sw	a7,60(sp)
    3740:	80c18793          	addi	a5,gp,-2036 # 20000114 <_impure_ptr>
    3744:	cc22                	sw	s0,24(sp)
    3746:	4380                	lw	s0,0(a5)
    3748:	ca26                	sw	s1,20(sp)
    374a:	ce06                	sw	ra,28(sp)
    374c:	84aa                	mv	s1,a0
    374e:	c409                	beqz	s0,3758 <iprintf+0x28>
    3750:	4c1c                	lw	a5,24(s0)
    3752:	e399                	bnez	a5,3758 <iprintf+0x28>
    3754:	8522                	mv	a0,s0
    3756:	2b31                	jal	3c72 <__sinit>
    3758:	440c                	lw	a1,8(s0)
    375a:	1054                	addi	a3,sp,36
    375c:	8626                	mv	a2,s1
    375e:	8522                	mv	a0,s0
    3760:	c636                	sw	a3,12(sp)
    3762:	149000ef          	jal	ra,40aa <_vfiprintf_r>
    3766:	40f2                	lw	ra,28(sp)
    3768:	4462                	lw	s0,24(sp)
    376a:	44d2                	lw	s1,20(sp)
    376c:	6121                	addi	sp,sp,64
    376e:	8082                	ret

00003770 <_puts_r>:
    3770:	1101                	addi	sp,sp,-32
    3772:	ca26                	sw	s1,20(sp)
    3774:	c84a                	sw	s2,16(sp)
    3776:	ce06                	sw	ra,28(sp)
    3778:	cc22                	sw	s0,24(sp)
    377a:	c64e                	sw	s3,12(sp)
    377c:	c452                	sw	s4,8(sp)
    377e:	84aa                	mv	s1,a0
    3780:	892e                	mv	s2,a1
    3782:	c501                	beqz	a0,378a <_puts_r+0x1a>
    3784:	4d1c                	lw	a5,24(a0)
    3786:	e391                	bnez	a5,378a <_puts_r+0x1a>
    3788:	21ed                	jal	3c72 <__sinit>
    378a:	4c9c                	lw	a5,24(s1)
    378c:	4480                	lw	s0,8(s1)
    378e:	e399                	bnez	a5,3794 <_puts_r+0x24>
    3790:	8526                	mv	a0,s1
    3792:	21c5                	jal	3c72 <__sinit>
    3794:	00001797          	auipc	a5,0x1
    3798:	3a078793          	addi	a5,a5,928 # 4b34 <__sf_fake_stdin>
    379c:	02f41b63          	bne	s0,a5,37d2 <_puts_r+0x62>
    37a0:	40c0                	lw	s0,4(s1)
    37a2:	245e                	lhu	a5,12(s0)
    37a4:	8ba1                	andi	a5,a5,8
    37a6:	c7b1                	beqz	a5,37f2 <_puts_r+0x82>
    37a8:	481c                	lw	a5,16(s0)
    37aa:	c7a1                	beqz	a5,37f2 <_puts_r+0x82>
    37ac:	59fd                	li	s3,-1
    37ae:	4a29                	li	s4,10
    37b0:	441c                	lw	a5,8(s0)
    37b2:	00094583          	lbu	a1,0(s2)
    37b6:	17fd                	addi	a5,a5,-1
    37b8:	e9b1                	bnez	a1,380c <_puts_r+0x9c>
    37ba:	c41c                	sw	a5,8(s0)
    37bc:	0607dd63          	bgez	a5,3836 <_puts_r+0xc6>
    37c0:	8622                	mv	a2,s0
    37c2:	45a9                	li	a1,10
    37c4:	8526                	mv	a0,s1
    37c6:	206d                	jal	3870 <__swbuf_r>
    37c8:	57fd                	li	a5,-1
    37ca:	02f50863          	beq	a0,a5,37fa <_puts_r+0x8a>
    37ce:	4529                	li	a0,10
    37d0:	a035                	j	37fc <_puts_r+0x8c>
    37d2:	00001797          	auipc	a5,0x1
    37d6:	38278793          	addi	a5,a5,898 # 4b54 <__sf_fake_stdout>
    37da:	00f41463          	bne	s0,a5,37e2 <_puts_r+0x72>
    37de:	4480                	lw	s0,8(s1)
    37e0:	b7c9                	j	37a2 <_puts_r+0x32>
    37e2:	00001797          	auipc	a5,0x1
    37e6:	33278793          	addi	a5,a5,818 # 4b14 <__sf_fake_stderr>
    37ea:	faf41ce3          	bne	s0,a5,37a2 <_puts_r+0x32>
    37ee:	44c0                	lw	s0,12(s1)
    37f0:	bf4d                	j	37a2 <_puts_r+0x32>
    37f2:	85a2                	mv	a1,s0
    37f4:	8526                	mv	a0,s1
    37f6:	2a1d                	jal	392c <__swsetup_r>
    37f8:	d955                	beqz	a0,37ac <_puts_r+0x3c>
    37fa:	557d                	li	a0,-1
    37fc:	40f2                	lw	ra,28(sp)
    37fe:	4462                	lw	s0,24(sp)
    3800:	44d2                	lw	s1,20(sp)
    3802:	4942                	lw	s2,16(sp)
    3804:	49b2                	lw	s3,12(sp)
    3806:	4a22                	lw	s4,8(sp)
    3808:	6105                	addi	sp,sp,32
    380a:	8082                	ret
    380c:	c41c                	sw	a5,8(s0)
    380e:	0905                	addi	s2,s2,1
    3810:	0007d763          	bgez	a5,381e <_puts_r+0xae>
    3814:	4c18                	lw	a4,24(s0)
    3816:	00e7ca63          	blt	a5,a4,382a <_puts_r+0xba>
    381a:	01458863          	beq	a1,s4,382a <_puts_r+0xba>
    381e:	401c                	lw	a5,0(s0)
    3820:	00178713          	addi	a4,a5,1
    3824:	c018                	sw	a4,0(s0)
    3826:	a38c                	sb	a1,0(a5)
    3828:	b761                	j	37b0 <_puts_r+0x40>
    382a:	8622                	mv	a2,s0
    382c:	8526                	mv	a0,s1
    382e:	2089                	jal	3870 <__swbuf_r>
    3830:	f93510e3          	bne	a0,s3,37b0 <_puts_r+0x40>
    3834:	b7d9                	j	37fa <_puts_r+0x8a>
    3836:	401c                	lw	a5,0(s0)
    3838:	00178713          	addi	a4,a5,1
    383c:	c018                	sw	a4,0(s0)
    383e:	4729                	li	a4,10
    3840:	a398                	sb	a4,0(a5)
    3842:	b771                	j	37ce <_puts_r+0x5e>

00003844 <puts>:
    3844:	80c18793          	addi	a5,gp,-2036 # 20000114 <_impure_ptr>
    3848:	85aa                	mv	a1,a0
    384a:	4388                	lw	a0,0(a5)
    384c:	b715                	j	3770 <_puts_r>

0000384e <strcpy>:
    384e:	87aa                	mv	a5,a0
    3850:	2198                	lbu	a4,0(a1)
    3852:	0785                	addi	a5,a5,1
    3854:	0585                	addi	a1,a1,1
    3856:	fee78fa3          	sb	a4,-1(a5)
    385a:	fb7d                	bnez	a4,3850 <strcpy+0x2>
    385c:	8082                	ret

0000385e <strlen>:
    385e:	87aa                	mv	a5,a0
    3860:	0785                	addi	a5,a5,1
    3862:	fff7c703          	lbu	a4,-1(a5)
    3866:	ff6d                	bnez	a4,3860 <strlen+0x2>
    3868:	40a78533          	sub	a0,a5,a0
    386c:	157d                	addi	a0,a0,-1
    386e:	8082                	ret

00003870 <__swbuf_r>:
    3870:	1101                	addi	sp,sp,-32
    3872:	cc22                	sw	s0,24(sp)
    3874:	ca26                	sw	s1,20(sp)
    3876:	c84a                	sw	s2,16(sp)
    3878:	ce06                	sw	ra,28(sp)
    387a:	c64e                	sw	s3,12(sp)
    387c:	84aa                	mv	s1,a0
    387e:	892e                	mv	s2,a1
    3880:	8432                	mv	s0,a2
    3882:	c501                	beqz	a0,388a <__swbuf_r+0x1a>
    3884:	4d1c                	lw	a5,24(a0)
    3886:	e391                	bnez	a5,388a <__swbuf_r+0x1a>
    3888:	26ed                	jal	3c72 <__sinit>
    388a:	00001797          	auipc	a5,0x1
    388e:	2aa78793          	addi	a5,a5,682 # 4b34 <__sf_fake_stdin>
    3892:	06f41763          	bne	s0,a5,3900 <__swbuf_r+0x90>
    3896:	40c0                	lw	s0,4(s1)
    3898:	4c1c                	lw	a5,24(s0)
    389a:	c41c                	sw	a5,8(s0)
    389c:	245e                	lhu	a5,12(s0)
    389e:	8ba1                	andi	a5,a5,8
    38a0:	c3c1                	beqz	a5,3920 <__swbuf_r+0xb0>
    38a2:	481c                	lw	a5,16(s0)
    38a4:	cfb5                	beqz	a5,3920 <__swbuf_r+0xb0>
    38a6:	481c                	lw	a5,16(s0)
    38a8:	4008                	lw	a0,0(s0)
    38aa:	0ff97993          	andi	s3,s2,255
    38ae:	0ff97913          	andi	s2,s2,255
    38b2:	8d1d                	sub	a0,a0,a5
    38b4:	485c                	lw	a5,20(s0)
    38b6:	00f54663          	blt	a0,a5,38c2 <__swbuf_r+0x52>
    38ba:	85a2                	mv	a1,s0
    38bc:	8526                	mv	a0,s1
    38be:	2c69                	jal	3b58 <_fflush_r>
    38c0:	e525                	bnez	a0,3928 <__swbuf_r+0xb8>
    38c2:	441c                	lw	a5,8(s0)
    38c4:	0505                	addi	a0,a0,1
    38c6:	17fd                	addi	a5,a5,-1
    38c8:	c41c                	sw	a5,8(s0)
    38ca:	401c                	lw	a5,0(s0)
    38cc:	00178713          	addi	a4,a5,1
    38d0:	c018                	sw	a4,0(s0)
    38d2:	01378023          	sb	s3,0(a5)
    38d6:	485c                	lw	a5,20(s0)
    38d8:	00a78863          	beq	a5,a0,38e8 <__swbuf_r+0x78>
    38dc:	245e                	lhu	a5,12(s0)
    38de:	8b85                	andi	a5,a5,1
    38e0:	cb81                	beqz	a5,38f0 <__swbuf_r+0x80>
    38e2:	47a9                	li	a5,10
    38e4:	00f91663          	bne	s2,a5,38f0 <__swbuf_r+0x80>
    38e8:	85a2                	mv	a1,s0
    38ea:	8526                	mv	a0,s1
    38ec:	24b5                	jal	3b58 <_fflush_r>
    38ee:	ed0d                	bnez	a0,3928 <__swbuf_r+0xb8>
    38f0:	40f2                	lw	ra,28(sp)
    38f2:	4462                	lw	s0,24(sp)
    38f4:	854a                	mv	a0,s2
    38f6:	44d2                	lw	s1,20(sp)
    38f8:	4942                	lw	s2,16(sp)
    38fa:	49b2                	lw	s3,12(sp)
    38fc:	6105                	addi	sp,sp,32
    38fe:	8082                	ret
    3900:	00001797          	auipc	a5,0x1
    3904:	25478793          	addi	a5,a5,596 # 4b54 <__sf_fake_stdout>
    3908:	00f41463          	bne	s0,a5,3910 <__swbuf_r+0xa0>
    390c:	4480                	lw	s0,8(s1)
    390e:	b769                	j	3898 <__swbuf_r+0x28>
    3910:	00001797          	auipc	a5,0x1
    3914:	20478793          	addi	a5,a5,516 # 4b14 <__sf_fake_stderr>
    3918:	f8f410e3          	bne	s0,a5,3898 <__swbuf_r+0x28>
    391c:	44c0                	lw	s0,12(s1)
    391e:	bfad                	j	3898 <__swbuf_r+0x28>
    3920:	85a2                	mv	a1,s0
    3922:	8526                	mv	a0,s1
    3924:	2021                	jal	392c <__swsetup_r>
    3926:	d141                	beqz	a0,38a6 <__swbuf_r+0x36>
    3928:	597d                	li	s2,-1
    392a:	b7d9                	j	38f0 <__swbuf_r+0x80>

0000392c <__swsetup_r>:
    392c:	1141                	addi	sp,sp,-16
    392e:	80c18793          	addi	a5,gp,-2036 # 20000114 <_impure_ptr>
    3932:	c226                	sw	s1,4(sp)
    3934:	4384                	lw	s1,0(a5)
    3936:	c422                	sw	s0,8(sp)
    3938:	c04a                	sw	s2,0(sp)
    393a:	c606                	sw	ra,12(sp)
    393c:	892a                	mv	s2,a0
    393e:	842e                	mv	s0,a1
    3940:	c489                	beqz	s1,394a <__swsetup_r+0x1e>
    3942:	4c9c                	lw	a5,24(s1)
    3944:	e399                	bnez	a5,394a <__swsetup_r+0x1e>
    3946:	8526                	mv	a0,s1
    3948:	262d                	jal	3c72 <__sinit>
    394a:	00001797          	auipc	a5,0x1
    394e:	1ea78793          	addi	a5,a5,490 # 4b34 <__sf_fake_stdin>
    3952:	02f41b63          	bne	s0,a5,3988 <__swsetup_r+0x5c>
    3956:	40c0                	lw	s0,4(s1)
    3958:	00c41703          	lh	a4,12(s0)
    395c:	01071793          	slli	a5,a4,0x10
    3960:	83c1                	srli	a5,a5,0x10
    3962:	0087f693          	andi	a3,a5,8
    3966:	eaad                	bnez	a3,39d8 <__swsetup_r+0xac>
    3968:	0107f693          	andi	a3,a5,16
    396c:	ee95                	bnez	a3,39a8 <__swsetup_r+0x7c>
    396e:	47a5                	li	a5,9
    3970:	00f92023          	sw	a5,0(s2)
    3974:	04076713          	ori	a4,a4,64
    3978:	a45a                	sh	a4,12(s0)
    397a:	557d                	li	a0,-1
    397c:	40b2                	lw	ra,12(sp)
    397e:	4422                	lw	s0,8(sp)
    3980:	4492                	lw	s1,4(sp)
    3982:	4902                	lw	s2,0(sp)
    3984:	0141                	addi	sp,sp,16
    3986:	8082                	ret
    3988:	00001797          	auipc	a5,0x1
    398c:	1cc78793          	addi	a5,a5,460 # 4b54 <__sf_fake_stdout>
    3990:	00f41463          	bne	s0,a5,3998 <__swsetup_r+0x6c>
    3994:	4480                	lw	s0,8(s1)
    3996:	b7c9                	j	3958 <__swsetup_r+0x2c>
    3998:	00001797          	auipc	a5,0x1
    399c:	17c78793          	addi	a5,a5,380 # 4b14 <__sf_fake_stderr>
    39a0:	faf41ce3          	bne	s0,a5,3958 <__swsetup_r+0x2c>
    39a4:	44c0                	lw	s0,12(s1)
    39a6:	bf4d                	j	3958 <__swsetup_r+0x2c>
    39a8:	8b91                	andi	a5,a5,4
    39aa:	c39d                	beqz	a5,39d0 <__swsetup_r+0xa4>
    39ac:	584c                	lw	a1,52(s0)
    39ae:	c989                	beqz	a1,39c0 <__swsetup_r+0x94>
    39b0:	04440793          	addi	a5,s0,68
    39b4:	00f58463          	beq	a1,a5,39bc <__swsetup_r+0x90>
    39b8:	854a                	mv	a0,s2
    39ba:	2331                	jal	3ec6 <_free_r>
    39bc:	02042a23          	sw	zero,52(s0)
    39c0:	245e                	lhu	a5,12(s0)
    39c2:	00042223          	sw	zero,4(s0)
    39c6:	fdb7f793          	andi	a5,a5,-37
    39ca:	a45e                	sh	a5,12(s0)
    39cc:	481c                	lw	a5,16(s0)
    39ce:	c01c                	sw	a5,0(s0)
    39d0:	245e                	lhu	a5,12(s0)
    39d2:	0087e793          	ori	a5,a5,8
    39d6:	a45e                	sh	a5,12(s0)
    39d8:	481c                	lw	a5,16(s0)
    39da:	eb99                	bnez	a5,39f0 <__swsetup_r+0xc4>
    39dc:	245e                	lhu	a5,12(s0)
    39de:	20000713          	li	a4,512
    39e2:	2807f793          	andi	a5,a5,640
    39e6:	00e78563          	beq	a5,a4,39f0 <__swsetup_r+0xc4>
    39ea:	85a2                	mv	a1,s0
    39ec:	854a                	mv	a0,s2
    39ee:	21a1                	jal	3e36 <__smakebuf_r>
    39f0:	245e                	lhu	a5,12(s0)
    39f2:	0017f713          	andi	a4,a5,1
    39f6:	c31d                	beqz	a4,3a1c <__swsetup_r+0xf0>
    39f8:	485c                	lw	a5,20(s0)
    39fa:	00042423          	sw	zero,8(s0)
    39fe:	40f007b3          	neg	a5,a5
    3a02:	cc1c                	sw	a5,24(s0)
    3a04:	481c                	lw	a5,16(s0)
    3a06:	4501                	li	a0,0
    3a08:	fbb5                	bnez	a5,397c <__swsetup_r+0x50>
    3a0a:	00c41783          	lh	a5,12(s0)
    3a0e:	0807f713          	andi	a4,a5,128
    3a12:	d72d                	beqz	a4,397c <__swsetup_r+0x50>
    3a14:	0407e793          	ori	a5,a5,64
    3a18:	a45e                	sh	a5,12(s0)
    3a1a:	b785                	j	397a <__swsetup_r+0x4e>
    3a1c:	8b89                	andi	a5,a5,2
    3a1e:	4701                	li	a4,0
    3a20:	e391                	bnez	a5,3a24 <__swsetup_r+0xf8>
    3a22:	4858                	lw	a4,20(s0)
    3a24:	c418                	sw	a4,8(s0)
    3a26:	bff9                	j	3a04 <__swsetup_r+0xd8>

00003a28 <__sflush_r>:
    3a28:	25de                	lhu	a5,12(a1)
    3a2a:	1101                	addi	sp,sp,-32
    3a2c:	cc22                	sw	s0,24(sp)
    3a2e:	ca26                	sw	s1,20(sp)
    3a30:	ce06                	sw	ra,28(sp)
    3a32:	c84a                	sw	s2,16(sp)
    3a34:	c64e                	sw	s3,12(sp)
    3a36:	0087f713          	andi	a4,a5,8
    3a3a:	84aa                	mv	s1,a0
    3a3c:	842e                	mv	s0,a1
    3a3e:	eb79                	bnez	a4,3b14 <__sflush_r+0xec>
    3a40:	41d8                	lw	a4,4(a1)
    3a42:	00e04d63          	bgtz	a4,3a5c <__sflush_r+0x34>
    3a46:	41b8                	lw	a4,64(a1)
    3a48:	00e04a63          	bgtz	a4,3a5c <__sflush_r+0x34>
    3a4c:	4501                	li	a0,0
    3a4e:	40f2                	lw	ra,28(sp)
    3a50:	4462                	lw	s0,24(sp)
    3a52:	44d2                	lw	s1,20(sp)
    3a54:	4942                	lw	s2,16(sp)
    3a56:	49b2                	lw	s3,12(sp)
    3a58:	6105                	addi	sp,sp,32
    3a5a:	8082                	ret
    3a5c:	5458                	lw	a4,44(s0)
    3a5e:	d77d                	beqz	a4,3a4c <__sflush_r+0x24>
    3a60:	0004a903          	lw	s2,0(s1)
    3a64:	01379693          	slli	a3,a5,0x13
    3a68:	0004a023          	sw	zero,0(s1)
    3a6c:	0606db63          	bgez	a3,3ae2 <__sflush_r+0xba>
    3a70:	4870                	lw	a2,84(s0)
    3a72:	245e                	lhu	a5,12(s0)
    3a74:	8b91                	andi	a5,a5,4
    3a76:	c799                	beqz	a5,3a84 <__sflush_r+0x5c>
    3a78:	405c                	lw	a5,4(s0)
    3a7a:	8e1d                	sub	a2,a2,a5
    3a7c:	585c                	lw	a5,52(s0)
    3a7e:	c399                	beqz	a5,3a84 <__sflush_r+0x5c>
    3a80:	403c                	lw	a5,64(s0)
    3a82:	8e1d                	sub	a2,a2,a5
    3a84:	545c                	lw	a5,44(s0)
    3a86:	500c                	lw	a1,32(s0)
    3a88:	4681                	li	a3,0
    3a8a:	8526                	mv	a0,s1
    3a8c:	9782                	jalr	a5
    3a8e:	57fd                	li	a5,-1
    3a90:	245a                	lhu	a4,12(s0)
    3a92:	00f51d63          	bne	a0,a5,3aac <__sflush_r+0x84>
    3a96:	4094                	lw	a3,0(s1)
    3a98:	47f5                	li	a5,29
    3a9a:	06d7e863          	bltu	a5,a3,3b0a <__sflush_r+0xe2>
    3a9e:	204007b7          	lui	a5,0x20400
    3aa2:	0785                	addi	a5,a5,1
    3aa4:	00d7d7b3          	srl	a5,a5,a3
    3aa8:	8b85                	andi	a5,a5,1
    3aaa:	c3a5                	beqz	a5,3b0a <__sflush_r+0xe2>
    3aac:	481c                	lw	a5,16(s0)
    3aae:	00042223          	sw	zero,4(s0)
    3ab2:	c01c                	sw	a5,0(s0)
    3ab4:	01371793          	slli	a5,a4,0x13
    3ab8:	0007d863          	bgez	a5,3ac8 <__sflush_r+0xa0>
    3abc:	57fd                	li	a5,-1
    3abe:	00f51463          	bne	a0,a5,3ac6 <__sflush_r+0x9e>
    3ac2:	409c                	lw	a5,0(s1)
    3ac4:	e391                	bnez	a5,3ac8 <__sflush_r+0xa0>
    3ac6:	c868                	sw	a0,84(s0)
    3ac8:	584c                	lw	a1,52(s0)
    3aca:	0124a023          	sw	s2,0(s1)
    3ace:	ddbd                	beqz	a1,3a4c <__sflush_r+0x24>
    3ad0:	04440793          	addi	a5,s0,68
    3ad4:	00f58463          	beq	a1,a5,3adc <__sflush_r+0xb4>
    3ad8:	8526                	mv	a0,s1
    3ada:	26f5                	jal	3ec6 <_free_r>
    3adc:	02042a23          	sw	zero,52(s0)
    3ae0:	b7b5                	j	3a4c <__sflush_r+0x24>
    3ae2:	500c                	lw	a1,32(s0)
    3ae4:	4601                	li	a2,0
    3ae6:	4685                	li	a3,1
    3ae8:	8526                	mv	a0,s1
    3aea:	9702                	jalr	a4
    3aec:	57fd                	li	a5,-1
    3aee:	862a                	mv	a2,a0
    3af0:	f8f511e3          	bne	a0,a5,3a72 <__sflush_r+0x4a>
    3af4:	409c                	lw	a5,0(s1)
    3af6:	dfb5                	beqz	a5,3a72 <__sflush_r+0x4a>
    3af8:	4775                	li	a4,29
    3afa:	00e78563          	beq	a5,a4,3b04 <__sflush_r+0xdc>
    3afe:	4759                	li	a4,22
    3b00:	04e79363          	bne	a5,a4,3b46 <__sflush_r+0x11e>
    3b04:	0124a023          	sw	s2,0(s1)
    3b08:	b791                	j	3a4c <__sflush_r+0x24>
    3b0a:	04076713          	ori	a4,a4,64
    3b0e:	a45a                	sh	a4,12(s0)
    3b10:	557d                	li	a0,-1
    3b12:	bf35                	j	3a4e <__sflush_r+0x26>
    3b14:	0105a983          	lw	s3,16(a1)
    3b18:	f2098ae3          	beqz	s3,3a4c <__sflush_r+0x24>
    3b1c:	0005a903          	lw	s2,0(a1)
    3b20:	8b8d                	andi	a5,a5,3
    3b22:	0135a023          	sw	s3,0(a1)
    3b26:	41390933          	sub	s2,s2,s3
    3b2a:	4701                	li	a4,0
    3b2c:	e391                	bnez	a5,3b30 <__sflush_r+0x108>
    3b2e:	49d8                	lw	a4,20(a1)
    3b30:	c418                	sw	a4,8(s0)
    3b32:	f1205de3          	blez	s2,3a4c <__sflush_r+0x24>
    3b36:	541c                	lw	a5,40(s0)
    3b38:	500c                	lw	a1,32(s0)
    3b3a:	86ca                	mv	a3,s2
    3b3c:	864e                	mv	a2,s3
    3b3e:	8526                	mv	a0,s1
    3b40:	9782                	jalr	a5
    3b42:	00a04763          	bgtz	a0,3b50 <__sflush_r+0x128>
    3b46:	245e                	lhu	a5,12(s0)
    3b48:	0407e793          	ori	a5,a5,64
    3b4c:	a45e                	sh	a5,12(s0)
    3b4e:	b7c9                	j	3b10 <__sflush_r+0xe8>
    3b50:	99aa                	add	s3,s3,a0
    3b52:	40a90933          	sub	s2,s2,a0
    3b56:	bff1                	j	3b32 <__sflush_r+0x10a>

00003b58 <_fflush_r>:
    3b58:	499c                	lw	a5,16(a1)
    3b5a:	cfb9                	beqz	a5,3bb8 <_fflush_r+0x60>
    3b5c:	1101                	addi	sp,sp,-32
    3b5e:	cc22                	sw	s0,24(sp)
    3b60:	ce06                	sw	ra,28(sp)
    3b62:	842a                	mv	s0,a0
    3b64:	c511                	beqz	a0,3b70 <_fflush_r+0x18>
    3b66:	4d1c                	lw	a5,24(a0)
    3b68:	e781                	bnez	a5,3b70 <_fflush_r+0x18>
    3b6a:	c62e                	sw	a1,12(sp)
    3b6c:	2219                	jal	3c72 <__sinit>
    3b6e:	45b2                	lw	a1,12(sp)
    3b70:	00001797          	auipc	a5,0x1
    3b74:	fc478793          	addi	a5,a5,-60 # 4b34 <__sf_fake_stdin>
    3b78:	00f59b63          	bne	a1,a5,3b8e <_fflush_r+0x36>
    3b7c:	404c                	lw	a1,4(s0)
    3b7e:	00c59783          	lh	a5,12(a1)
    3b82:	c795                	beqz	a5,3bae <_fflush_r+0x56>
    3b84:	8522                	mv	a0,s0
    3b86:	4462                	lw	s0,24(sp)
    3b88:	40f2                	lw	ra,28(sp)
    3b8a:	6105                	addi	sp,sp,32
    3b8c:	bd71                	j	3a28 <__sflush_r>
    3b8e:	00001797          	auipc	a5,0x1
    3b92:	fc678793          	addi	a5,a5,-58 # 4b54 <__sf_fake_stdout>
    3b96:	00f59463          	bne	a1,a5,3b9e <_fflush_r+0x46>
    3b9a:	440c                	lw	a1,8(s0)
    3b9c:	b7cd                	j	3b7e <_fflush_r+0x26>
    3b9e:	00001797          	auipc	a5,0x1
    3ba2:	f7678793          	addi	a5,a5,-138 # 4b14 <__sf_fake_stderr>
    3ba6:	fcf59ce3          	bne	a1,a5,3b7e <_fflush_r+0x26>
    3baa:	444c                	lw	a1,12(s0)
    3bac:	bfc9                	j	3b7e <_fflush_r+0x26>
    3bae:	40f2                	lw	ra,28(sp)
    3bb0:	4462                	lw	s0,24(sp)
    3bb2:	4501                	li	a0,0
    3bb4:	6105                	addi	sp,sp,32
    3bb6:	8082                	ret
    3bb8:	4501                	li	a0,0
    3bba:	8082                	ret

00003bbc <std>:
    3bbc:	1141                	addi	sp,sp,-16
    3bbe:	c422                	sw	s0,8(sp)
    3bc0:	c606                	sw	ra,12(sp)
    3bc2:	842a                	mv	s0,a0
    3bc4:	a54e                	sh	a1,12(a0)
    3bc6:	a572                	sh	a2,14(a0)
    3bc8:	00052023          	sw	zero,0(a0) # 100000 <_data_lma+0xfb450>
    3bcc:	00052223          	sw	zero,4(a0)
    3bd0:	00052423          	sw	zero,8(a0)
    3bd4:	06052223          	sw	zero,100(a0)
    3bd8:	00052823          	sw	zero,16(a0)
    3bdc:	00052a23          	sw	zero,20(a0)
    3be0:	00052c23          	sw	zero,24(a0)
    3be4:	4621                	li	a2,8
    3be6:	4581                	li	a1,0
    3be8:	05c50513          	addi	a0,a0,92
    3bec:	e14fc0ef          	jal	ra,200 <memset>
    3bf0:	00001797          	auipc	a5,0x1
    3bf4:	b2078793          	addi	a5,a5,-1248 # 4710 <__sread>
    3bf8:	d05c                	sw	a5,36(s0)
    3bfa:	00001797          	auipc	a5,0x1
    3bfe:	b4278793          	addi	a5,a5,-1214 # 473c <__swrite>
    3c02:	d41c                	sw	a5,40(s0)
    3c04:	00001797          	auipc	a5,0x1
    3c08:	b8078793          	addi	a5,a5,-1152 # 4784 <__sseek>
    3c0c:	d45c                	sw	a5,44(s0)
    3c0e:	00001797          	auipc	a5,0x1
    3c12:	ba678793          	addi	a5,a5,-1114 # 47b4 <__sclose>
    3c16:	d000                	sw	s0,32(s0)
    3c18:	d81c                	sw	a5,48(s0)
    3c1a:	40b2                	lw	ra,12(sp)
    3c1c:	4422                	lw	s0,8(sp)
    3c1e:	0141                	addi	sp,sp,16
    3c20:	8082                	ret

00003c22 <_cleanup_r>:
    3c22:	00000597          	auipc	a1,0x0
    3c26:	f3658593          	addi	a1,a1,-202 # 3b58 <_fflush_r>
    3c2a:	a2a9                	j	3d74 <_fwalk_reent>

00003c2c <__sfmoreglue>:
    3c2c:	1141                	addi	sp,sp,-16
    3c2e:	c226                	sw	s1,4(sp)
    3c30:	06800613          	li	a2,104
    3c34:	fff58493          	addi	s1,a1,-1
    3c38:	02c484b3          	mul	s1,s1,a2
    3c3c:	c04a                	sw	s2,0(sp)
    3c3e:	892e                	mv	s2,a1
    3c40:	c422                	sw	s0,8(sp)
    3c42:	c606                	sw	ra,12(sp)
    3c44:	07448593          	addi	a1,s1,116
    3c48:	261d                	jal	3f6e <_malloc_r>
    3c4a:	842a                	mv	s0,a0
    3c4c:	cd01                	beqz	a0,3c64 <__sfmoreglue+0x38>
    3c4e:	00052023          	sw	zero,0(a0)
    3c52:	01252223          	sw	s2,4(a0)
    3c56:	0531                	addi	a0,a0,12
    3c58:	c408                	sw	a0,8(s0)
    3c5a:	06848613          	addi	a2,s1,104
    3c5e:	4581                	li	a1,0
    3c60:	da0fc0ef          	jal	ra,200 <memset>
    3c64:	8522                	mv	a0,s0
    3c66:	40b2                	lw	ra,12(sp)
    3c68:	4422                	lw	s0,8(sp)
    3c6a:	4492                	lw	s1,4(sp)
    3c6c:	4902                	lw	s2,0(sp)
    3c6e:	0141                	addi	sp,sp,16
    3c70:	8082                	ret

00003c72 <__sinit>:
    3c72:	4d1c                	lw	a5,24(a0)
    3c74:	e3ad                	bnez	a5,3cd6 <__sinit+0x64>
    3c76:	1141                	addi	sp,sp,-16
    3c78:	c606                	sw	ra,12(sp)
    3c7a:	c422                	sw	s0,8(sp)
    3c7c:	00000797          	auipc	a5,0x0
    3c80:	fa678793          	addi	a5,a5,-90 # 3c22 <_cleanup_r>
    3c84:	d51c                	sw	a5,40(a0)
    3c86:	81418793          	addi	a5,gp,-2028 # 2000011c <_global_impure_ptr>
    3c8a:	439c                	lw	a5,0(a5)
    3c8c:	04052423          	sw	zero,72(a0)
    3c90:	04052623          	sw	zero,76(a0)
    3c94:	04052823          	sw	zero,80(a0)
    3c98:	00f51463          	bne	a0,a5,3ca0 <__sinit+0x2e>
    3c9c:	4785                	li	a5,1
    3c9e:	cd1c                	sw	a5,24(a0)
    3ca0:	842a                	mv	s0,a0
    3ca2:	281d                	jal	3cd8 <__sfp>
    3ca4:	c048                	sw	a0,4(s0)
    3ca6:	8522                	mv	a0,s0
    3ca8:	2805                	jal	3cd8 <__sfp>
    3caa:	c408                	sw	a0,8(s0)
    3cac:	8522                	mv	a0,s0
    3cae:	202d                	jal	3cd8 <__sfp>
    3cb0:	c448                	sw	a0,12(s0)
    3cb2:	4048                	lw	a0,4(s0)
    3cb4:	4601                	li	a2,0
    3cb6:	4591                	li	a1,4
    3cb8:	3711                	jal	3bbc <std>
    3cba:	4408                	lw	a0,8(s0)
    3cbc:	4605                	li	a2,1
    3cbe:	45a5                	li	a1,9
    3cc0:	3df5                	jal	3bbc <std>
    3cc2:	4448                	lw	a0,12(s0)
    3cc4:	4609                	li	a2,2
    3cc6:	45c9                	li	a1,18
    3cc8:	3dd5                	jal	3bbc <std>
    3cca:	4785                	li	a5,1
    3ccc:	cc1c                	sw	a5,24(s0)
    3cce:	40b2                	lw	ra,12(sp)
    3cd0:	4422                	lw	s0,8(sp)
    3cd2:	0141                	addi	sp,sp,16
    3cd4:	8082                	ret
    3cd6:	8082                	ret

00003cd8 <__sfp>:
    3cd8:	1141                	addi	sp,sp,-16
    3cda:	81418793          	addi	a5,gp,-2028 # 2000011c <_global_impure_ptr>
    3cde:	c226                	sw	s1,4(sp)
    3ce0:	4384                	lw	s1,0(a5)
    3ce2:	c04a                	sw	s2,0(sp)
    3ce4:	c606                	sw	ra,12(sp)
    3ce6:	4c9c                	lw	a5,24(s1)
    3ce8:	c422                	sw	s0,8(sp)
    3cea:	892a                	mv	s2,a0
    3cec:	e399                	bnez	a5,3cf2 <__sfp+0x1a>
    3cee:	8526                	mv	a0,s1
    3cf0:	3749                	jal	3c72 <__sinit>
    3cf2:	04848493          	addi	s1,s1,72
    3cf6:	4480                	lw	s0,8(s1)
    3cf8:	40dc                	lw	a5,4(s1)
    3cfa:	17fd                	addi	a5,a5,-1
    3cfc:	0007d663          	bgez	a5,3d08 <__sfp+0x30>
    3d00:	409c                	lw	a5,0(s1)
    3d02:	cfb9                	beqz	a5,3d60 <__sfp+0x88>
    3d04:	4084                	lw	s1,0(s1)
    3d06:	bfc5                	j	3cf6 <__sfp+0x1e>
    3d08:	00c41703          	lh	a4,12(s0)
    3d0c:	e739                	bnez	a4,3d5a <__sfp+0x82>
    3d0e:	77c1                	lui	a5,0xffff0
    3d10:	0785                	addi	a5,a5,1
    3d12:	06042223          	sw	zero,100(s0)
    3d16:	00042023          	sw	zero,0(s0)
    3d1a:	00042223          	sw	zero,4(s0)
    3d1e:	00042423          	sw	zero,8(s0)
    3d22:	c45c                	sw	a5,12(s0)
    3d24:	00042823          	sw	zero,16(s0)
    3d28:	00042a23          	sw	zero,20(s0)
    3d2c:	00042c23          	sw	zero,24(s0)
    3d30:	4621                	li	a2,8
    3d32:	4581                	li	a1,0
    3d34:	05c40513          	addi	a0,s0,92
    3d38:	cc8fc0ef          	jal	ra,200 <memset>
    3d3c:	02042a23          	sw	zero,52(s0)
    3d40:	02042c23          	sw	zero,56(s0)
    3d44:	04042423          	sw	zero,72(s0)
    3d48:	04042623          	sw	zero,76(s0)
    3d4c:	8522                	mv	a0,s0
    3d4e:	40b2                	lw	ra,12(sp)
    3d50:	4422                	lw	s0,8(sp)
    3d52:	4492                	lw	s1,4(sp)
    3d54:	4902                	lw	s2,0(sp)
    3d56:	0141                	addi	sp,sp,16
    3d58:	8082                	ret
    3d5a:	06840413          	addi	s0,s0,104
    3d5e:	bf71                	j	3cfa <__sfp+0x22>
    3d60:	4591                	li	a1,4
    3d62:	854a                	mv	a0,s2
    3d64:	35e1                	jal	3c2c <__sfmoreglue>
    3d66:	c088                	sw	a0,0(s1)
    3d68:	fd51                	bnez	a0,3d04 <__sfp+0x2c>
    3d6a:	47b1                	li	a5,12
    3d6c:	00f92023          	sw	a5,0(s2)
    3d70:	4401                	li	s0,0
    3d72:	bfe9                	j	3d4c <__sfp+0x74>

00003d74 <_fwalk_reent>:
    3d74:	7179                	addi	sp,sp,-48
    3d76:	d422                	sw	s0,40(sp)
    3d78:	d04a                	sw	s2,32(sp)
    3d7a:	cc52                	sw	s4,24(sp)
    3d7c:	ca56                	sw	s5,20(sp)
    3d7e:	c85a                	sw	s6,16(sp)
    3d80:	c65e                	sw	s7,12(sp)
    3d82:	d606                	sw	ra,44(sp)
    3d84:	d226                	sw	s1,36(sp)
    3d86:	ce4e                	sw	s3,28(sp)
    3d88:	8a2a                	mv	s4,a0
    3d8a:	8aae                	mv	s5,a1
    3d8c:	04850413          	addi	s0,a0,72
    3d90:	4901                	li	s2,0
    3d92:	4b05                	li	s6,1
    3d94:	5bfd                	li	s7,-1
    3d96:	ec09                	bnez	s0,3db0 <_fwalk_reent+0x3c>
    3d98:	50b2                	lw	ra,44(sp)
    3d9a:	5422                	lw	s0,40(sp)
    3d9c:	854a                	mv	a0,s2
    3d9e:	5492                	lw	s1,36(sp)
    3da0:	5902                	lw	s2,32(sp)
    3da2:	49f2                	lw	s3,28(sp)
    3da4:	4a62                	lw	s4,24(sp)
    3da6:	4ad2                	lw	s5,20(sp)
    3da8:	4b42                	lw	s6,16(sp)
    3daa:	4bb2                	lw	s7,12(sp)
    3dac:	6145                	addi	sp,sp,48
    3dae:	8082                	ret
    3db0:	4404                	lw	s1,8(s0)
    3db2:	00442983          	lw	s3,4(s0)
    3db6:	19fd                	addi	s3,s3,-1
    3db8:	0009d463          	bgez	s3,3dc0 <_fwalk_reent+0x4c>
    3dbc:	4000                	lw	s0,0(s0)
    3dbe:	bfe1                	j	3d96 <_fwalk_reent+0x22>
    3dc0:	24de                	lhu	a5,12(s1)
    3dc2:	00fb7b63          	bgeu	s6,a5,3dd8 <_fwalk_reent+0x64>
    3dc6:	00e49783          	lh	a5,14(s1)
    3dca:	01778763          	beq	a5,s7,3dd8 <_fwalk_reent+0x64>
    3dce:	85a6                	mv	a1,s1
    3dd0:	8552                	mv	a0,s4
    3dd2:	9a82                	jalr	s5
    3dd4:	00a96933          	or	s2,s2,a0
    3dd8:	06848493          	addi	s1,s1,104
    3ddc:	bfe9                	j	3db6 <_fwalk_reent+0x42>

00003dde <__swhatbuf_r>:
    3dde:	7119                	addi	sp,sp,-128
    3de0:	daa6                	sw	s1,116(sp)
    3de2:	84ae                	mv	s1,a1
    3de4:	00e59583          	lh	a1,14(a1)
    3de8:	dca2                	sw	s0,120(sp)
    3dea:	de86                	sw	ra,124(sp)
    3dec:	8432                	mv	s0,a2
    3dee:	0005db63          	bgez	a1,3e04 <__swhatbuf_r+0x26>
    3df2:	24de                	lhu	a5,12(s1)
    3df4:	0006a023          	sw	zero,0(a3)
    3df8:	0807f793          	andi	a5,a5,128
    3dfc:	e785                	bnez	a5,3e24 <__swhatbuf_r+0x46>
    3dfe:	40000793          	li	a5,1024
    3e02:	a01d                	j	3e28 <__swhatbuf_r+0x4a>
    3e04:	0830                	addi	a2,sp,24
    3e06:	c636                	sw	a3,12(sp)
    3e08:	219000ef          	jal	ra,4820 <_fstat_r>
    3e0c:	46b2                	lw	a3,12(sp)
    3e0e:	fe0542e3          	bltz	a0,3df2 <__swhatbuf_r+0x14>
    3e12:	4772                	lw	a4,28(sp)
    3e14:	67bd                	lui	a5,0xf
    3e16:	8ff9                	and	a5,a5,a4
    3e18:	7779                	lui	a4,0xffffe
    3e1a:	97ba                	add	a5,a5,a4
    3e1c:	0017b793          	seqz	a5,a5
    3e20:	c29c                	sw	a5,0(a3)
    3e22:	bff1                	j	3dfe <__swhatbuf_r+0x20>
    3e24:	04000793          	li	a5,64
    3e28:	c01c                	sw	a5,0(s0)
    3e2a:	50f6                	lw	ra,124(sp)
    3e2c:	5466                	lw	s0,120(sp)
    3e2e:	54d6                	lw	s1,116(sp)
    3e30:	4501                	li	a0,0
    3e32:	6109                	addi	sp,sp,128
    3e34:	8082                	ret

00003e36 <__smakebuf_r>:
    3e36:	25de                	lhu	a5,12(a1)
    3e38:	1101                	addi	sp,sp,-32
    3e3a:	cc22                	sw	s0,24(sp)
    3e3c:	ce06                	sw	ra,28(sp)
    3e3e:	ca26                	sw	s1,20(sp)
    3e40:	c84a                	sw	s2,16(sp)
    3e42:	8b89                	andi	a5,a5,2
    3e44:	842e                	mv	s0,a1
    3e46:	cf89                	beqz	a5,3e60 <__smakebuf_r+0x2a>
    3e48:	04740793          	addi	a5,s0,71
    3e4c:	c01c                	sw	a5,0(s0)
    3e4e:	c81c                	sw	a5,16(s0)
    3e50:	4785                	li	a5,1
    3e52:	c85c                	sw	a5,20(s0)
    3e54:	40f2                	lw	ra,28(sp)
    3e56:	4462                	lw	s0,24(sp)
    3e58:	44d2                	lw	s1,20(sp)
    3e5a:	4942                	lw	s2,16(sp)
    3e5c:	6105                	addi	sp,sp,32
    3e5e:	8082                	ret
    3e60:	0074                	addi	a3,sp,12
    3e62:	0030                	addi	a2,sp,8
    3e64:	84aa                	mv	s1,a0
    3e66:	3fa5                	jal	3dde <__swhatbuf_r>
    3e68:	45a2                	lw	a1,8(sp)
    3e6a:	892a                	mv	s2,a0
    3e6c:	8526                	mv	a0,s1
    3e6e:	2201                	jal	3f6e <_malloc_r>
    3e70:	e919                	bnez	a0,3e86 <__smakebuf_r+0x50>
    3e72:	00c41783          	lh	a5,12(s0)
    3e76:	2007f713          	andi	a4,a5,512
    3e7a:	ff69                	bnez	a4,3e54 <__smakebuf_r+0x1e>
    3e7c:	9bf1                	andi	a5,a5,-4
    3e7e:	0027e793          	ori	a5,a5,2
    3e82:	a45e                	sh	a5,12(s0)
    3e84:	b7d1                	j	3e48 <__smakebuf_r+0x12>
    3e86:	00000797          	auipc	a5,0x0
    3e8a:	d9c78793          	addi	a5,a5,-612 # 3c22 <_cleanup_r>
    3e8e:	d49c                	sw	a5,40(s1)
    3e90:	245e                	lhu	a5,12(s0)
    3e92:	c008                	sw	a0,0(s0)
    3e94:	c808                	sw	a0,16(s0)
    3e96:	0807e793          	ori	a5,a5,128
    3e9a:	a45e                	sh	a5,12(s0)
    3e9c:	47a2                	lw	a5,8(sp)
    3e9e:	c85c                	sw	a5,20(s0)
    3ea0:	47b2                	lw	a5,12(sp)
    3ea2:	cf81                	beqz	a5,3eba <__smakebuf_r+0x84>
    3ea4:	00e41583          	lh	a1,14(s0)
    3ea8:	8526                	mv	a0,s1
    3eaa:	1a9000ef          	jal	ra,4852 <_isatty_r>
    3eae:	c511                	beqz	a0,3eba <__smakebuf_r+0x84>
    3eb0:	245e                	lhu	a5,12(s0)
    3eb2:	9bf1                	andi	a5,a5,-4
    3eb4:	0017e793          	ori	a5,a5,1
    3eb8:	a45e                	sh	a5,12(s0)
    3eba:	245e                	lhu	a5,12(s0)
    3ebc:	00f96933          	or	s2,s2,a5
    3ec0:	01241623          	sh	s2,12(s0)
    3ec4:	bf41                	j	3e54 <__smakebuf_r+0x1e>

00003ec6 <_free_r>:
    3ec6:	c1dd                	beqz	a1,3f6c <_free_r+0xa6>
    3ec8:	ffc5a783          	lw	a5,-4(a1)
    3ecc:	1141                	addi	sp,sp,-16
    3ece:	c422                	sw	s0,8(sp)
    3ed0:	c606                	sw	ra,12(sp)
    3ed2:	c226                	sw	s1,4(sp)
    3ed4:	ffc58413          	addi	s0,a1,-4
    3ed8:	0007d363          	bgez	a5,3ede <_free_r+0x18>
    3edc:	943e                	add	s0,s0,a5
    3ede:	84aa                	mv	s1,a0
    3ee0:	1ef000ef          	jal	ra,48ce <__malloc_lock>
    3ee4:	83c18793          	addi	a5,gp,-1988 # 20000144 <__malloc_free_list>
    3ee8:	439c                	lw	a5,0(a5)
    3eea:	ef81                	bnez	a5,3f02 <_free_r+0x3c>
    3eec:	00042223          	sw	zero,4(s0)
    3ef0:	8281ae23          	sw	s0,-1988(gp) # 20000144 <__malloc_free_list>
    3ef4:	4422                	lw	s0,8(sp)
    3ef6:	40b2                	lw	ra,12(sp)
    3ef8:	8526                	mv	a0,s1
    3efa:	4492                	lw	s1,4(sp)
    3efc:	0141                	addi	sp,sp,16
    3efe:	1d30006f          	j	48d0 <__malloc_unlock>
    3f02:	00f47e63          	bgeu	s0,a5,3f1e <_free_r+0x58>
    3f06:	4014                	lw	a3,0(s0)
    3f08:	00d40733          	add	a4,s0,a3
    3f0c:	00e79663          	bne	a5,a4,3f18 <_free_r+0x52>
    3f10:	4398                	lw	a4,0(a5)
    3f12:	43dc                	lw	a5,4(a5)
    3f14:	9736                	add	a4,a4,a3
    3f16:	c018                	sw	a4,0(s0)
    3f18:	c05c                	sw	a5,4(s0)
    3f1a:	bfd9                	j	3ef0 <_free_r+0x2a>
    3f1c:	87ba                	mv	a5,a4
    3f1e:	43d8                	lw	a4,4(a5)
    3f20:	c319                	beqz	a4,3f26 <_free_r+0x60>
    3f22:	fee47de3          	bgeu	s0,a4,3f1c <_free_r+0x56>
    3f26:	4394                	lw	a3,0(a5)
    3f28:	00d78633          	add	a2,a5,a3
    3f2c:	00861f63          	bne	a2,s0,3f4a <_free_r+0x84>
    3f30:	4010                	lw	a2,0(s0)
    3f32:	96b2                	add	a3,a3,a2
    3f34:	c394                	sw	a3,0(a5)
    3f36:	00d78633          	add	a2,a5,a3
    3f3a:	fac71de3          	bne	a4,a2,3ef4 <_free_r+0x2e>
    3f3e:	4310                	lw	a2,0(a4)
    3f40:	4358                	lw	a4,4(a4)
    3f42:	96b2                	add	a3,a3,a2
    3f44:	c394                	sw	a3,0(a5)
    3f46:	c3d8                	sw	a4,4(a5)
    3f48:	b775                	j	3ef4 <_free_r+0x2e>
    3f4a:	00c47563          	bgeu	s0,a2,3f54 <_free_r+0x8e>
    3f4e:	47b1                	li	a5,12
    3f50:	c09c                	sw	a5,0(s1)
    3f52:	b74d                	j	3ef4 <_free_r+0x2e>
    3f54:	4010                	lw	a2,0(s0)
    3f56:	00c406b3          	add	a3,s0,a2
    3f5a:	00d71663          	bne	a4,a3,3f66 <_free_r+0xa0>
    3f5e:	4314                	lw	a3,0(a4)
    3f60:	4358                	lw	a4,4(a4)
    3f62:	96b2                	add	a3,a3,a2
    3f64:	c014                	sw	a3,0(s0)
    3f66:	c058                	sw	a4,4(s0)
    3f68:	c3c0                	sw	s0,4(a5)
    3f6a:	b769                	j	3ef4 <_free_r+0x2e>
    3f6c:	8082                	ret

00003f6e <_malloc_r>:
    3f6e:	1101                	addi	sp,sp,-32
    3f70:	ca26                	sw	s1,20(sp)
    3f72:	00358493          	addi	s1,a1,3
    3f76:	98f1                	andi	s1,s1,-4
    3f78:	ce06                	sw	ra,28(sp)
    3f7a:	cc22                	sw	s0,24(sp)
    3f7c:	c84a                	sw	s2,16(sp)
    3f7e:	c64e                	sw	s3,12(sp)
    3f80:	04a1                	addi	s1,s1,8
    3f82:	47b1                	li	a5,12
    3f84:	04f4f363          	bgeu	s1,a5,3fca <_malloc_r+0x5c>
    3f88:	44b1                	li	s1,12
    3f8a:	04b4e263          	bltu	s1,a1,3fce <_malloc_r+0x60>
    3f8e:	892a                	mv	s2,a0
    3f90:	13f000ef          	jal	ra,48ce <__malloc_lock>
    3f94:	83c18793          	addi	a5,gp,-1988 # 20000144 <__malloc_free_list>
    3f98:	4398                	lw	a4,0(a5)
    3f9a:	843a                	mv	s0,a4
    3f9c:	e039                	bnez	s0,3fe2 <_malloc_r+0x74>
    3f9e:	84018793          	addi	a5,gp,-1984 # 20000148 <__malloc_sbrk_start>
    3fa2:	439c                	lw	a5,0(a5)
    3fa4:	e791                	bnez	a5,3fb0 <_malloc_r+0x42>
    3fa6:	4581                	li	a1,0
    3fa8:	854a                	mv	a0,s2
    3faa:	2f15                	jal	46de <_sbrk_r>
    3fac:	84a1a023          	sw	a0,-1984(gp) # 20000148 <__malloc_sbrk_start>
    3fb0:	85a6                	mv	a1,s1
    3fb2:	854a                	mv	a0,s2
    3fb4:	272d                	jal	46de <_sbrk_r>
    3fb6:	59fd                	li	s3,-1
    3fb8:	07351963          	bne	a0,s3,402a <_malloc_r+0xbc>
    3fbc:	47b1                	li	a5,12
    3fbe:	00f92023          	sw	a5,0(s2)
    3fc2:	854a                	mv	a0,s2
    3fc4:	10d000ef          	jal	ra,48d0 <__malloc_unlock>
    3fc8:	a029                	j	3fd2 <_malloc_r+0x64>
    3fca:	fc04d0e3          	bgez	s1,3f8a <_malloc_r+0x1c>
    3fce:	47b1                	li	a5,12
    3fd0:	c11c                	sw	a5,0(a0)
    3fd2:	4501                	li	a0,0
    3fd4:	40f2                	lw	ra,28(sp)
    3fd6:	4462                	lw	s0,24(sp)
    3fd8:	44d2                	lw	s1,20(sp)
    3fda:	4942                	lw	s2,16(sp)
    3fdc:	49b2                	lw	s3,12(sp)
    3fde:	6105                	addi	sp,sp,32
    3fe0:	8082                	ret
    3fe2:	401c                	lw	a5,0(s0)
    3fe4:	8f85                	sub	a5,a5,s1
    3fe6:	0207cf63          	bltz	a5,4024 <_malloc_r+0xb6>
    3fea:	46ad                	li	a3,11
    3fec:	00f6f663          	bgeu	a3,a5,3ff8 <_malloc_r+0x8a>
    3ff0:	c01c                	sw	a5,0(s0)
    3ff2:	943e                	add	s0,s0,a5
    3ff4:	c004                	sw	s1,0(s0)
    3ff6:	a031                	j	4002 <_malloc_r+0x94>
    3ff8:	405c                	lw	a5,4(s0)
    3ffa:	02871363          	bne	a4,s0,4020 <_malloc_r+0xb2>
    3ffe:	82f1ae23          	sw	a5,-1988(gp) # 20000144 <__malloc_free_list>
    4002:	854a                	mv	a0,s2
    4004:	0cd000ef          	jal	ra,48d0 <__malloc_unlock>
    4008:	00b40513          	addi	a0,s0,11
    400c:	00440793          	addi	a5,s0,4
    4010:	9961                	andi	a0,a0,-8
    4012:	40f50733          	sub	a4,a0,a5
    4016:	df5d                	beqz	a4,3fd4 <_malloc_r+0x66>
    4018:	943a                	add	s0,s0,a4
    401a:	8f89                	sub	a5,a5,a0
    401c:	c01c                	sw	a5,0(s0)
    401e:	bf5d                	j	3fd4 <_malloc_r+0x66>
    4020:	c35c                	sw	a5,4(a4)
    4022:	b7c5                	j	4002 <_malloc_r+0x94>
    4024:	8722                	mv	a4,s0
    4026:	4040                	lw	s0,4(s0)
    4028:	bf95                	j	3f9c <_malloc_r+0x2e>
    402a:	00350413          	addi	s0,a0,3
    402e:	9871                	andi	s0,s0,-4
    4030:	fc8502e3          	beq	a0,s0,3ff4 <_malloc_r+0x86>
    4034:	40a405b3          	sub	a1,s0,a0
    4038:	854a                	mv	a0,s2
    403a:	2555                	jal	46de <_sbrk_r>
    403c:	fb351ce3          	bne	a0,s3,3ff4 <_malloc_r+0x86>
    4040:	bfb5                	j	3fbc <_malloc_r+0x4e>

00004042 <__sfputc_r>:
    4042:	461c                	lw	a5,8(a2)
    4044:	17fd                	addi	a5,a5,-1
    4046:	c61c                	sw	a5,8(a2)
    4048:	0007da63          	bgez	a5,405c <__sfputc_r+0x1a>
    404c:	4e18                	lw	a4,24(a2)
    404e:	00e7c563          	blt	a5,a4,4058 <__sfputc_r+0x16>
    4052:	47a9                	li	a5,10
    4054:	00f59463          	bne	a1,a5,405c <__sfputc_r+0x1a>
    4058:	819ff06f          	j	3870 <__swbuf_r>
    405c:	421c                	lw	a5,0(a2)
    405e:	852e                	mv	a0,a1
    4060:	00178713          	addi	a4,a5,1
    4064:	c218                	sw	a4,0(a2)
    4066:	a38c                	sb	a1,0(a5)
    4068:	8082                	ret

0000406a <__sfputs_r>:
    406a:	1101                	addi	sp,sp,-32
    406c:	cc22                	sw	s0,24(sp)
    406e:	ca26                	sw	s1,20(sp)
    4070:	c84a                	sw	s2,16(sp)
    4072:	c64e                	sw	s3,12(sp)
    4074:	c452                	sw	s4,8(sp)
    4076:	ce06                	sw	ra,28(sp)
    4078:	892a                	mv	s2,a0
    407a:	89ae                	mv	s3,a1
    407c:	8432                	mv	s0,a2
    407e:	00d604b3          	add	s1,a2,a3
    4082:	5a7d                	li	s4,-1
    4084:	00941463          	bne	s0,s1,408c <__sfputs_r+0x22>
    4088:	4501                	li	a0,0
    408a:	a801                	j	409a <__sfputs_r+0x30>
    408c:	200c                	lbu	a1,0(s0)
    408e:	864e                	mv	a2,s3
    4090:	854a                	mv	a0,s2
    4092:	3f45                	jal	4042 <__sfputc_r>
    4094:	0405                	addi	s0,s0,1
    4096:	ff4517e3          	bne	a0,s4,4084 <__sfputs_r+0x1a>
    409a:	40f2                	lw	ra,28(sp)
    409c:	4462                	lw	s0,24(sp)
    409e:	44d2                	lw	s1,20(sp)
    40a0:	4942                	lw	s2,16(sp)
    40a2:	49b2                	lw	s3,12(sp)
    40a4:	4a22                	lw	s4,8(sp)
    40a6:	6105                	addi	sp,sp,32
    40a8:	8082                	ret

000040aa <_vfiprintf_r>:
    40aa:	7135                	addi	sp,sp,-160
    40ac:	cd22                	sw	s0,152(sp)
    40ae:	cb26                	sw	s1,148(sp)
    40b0:	c94a                	sw	s2,144(sp)
    40b2:	c74e                	sw	s3,140(sp)
    40b4:	cf06                	sw	ra,156(sp)
    40b6:	c552                	sw	s4,136(sp)
    40b8:	c356                	sw	s5,132(sp)
    40ba:	c15a                	sw	s6,128(sp)
    40bc:	dede                	sw	s7,124(sp)
    40be:	dce2                	sw	s8,120(sp)
    40c0:	dae6                	sw	s9,116(sp)
    40c2:	89aa                	mv	s3,a0
    40c4:	84ae                	mv	s1,a1
    40c6:	8932                	mv	s2,a2
    40c8:	8436                	mv	s0,a3
    40ca:	c509                	beqz	a0,40d4 <_vfiprintf_r+0x2a>
    40cc:	4d1c                	lw	a5,24(a0)
    40ce:	e399                	bnez	a5,40d4 <_vfiprintf_r+0x2a>
    40d0:	ba3ff0ef          	jal	ra,3c72 <__sinit>
    40d4:	00001797          	auipc	a5,0x1
    40d8:	a6078793          	addi	a5,a5,-1440 # 4b34 <__sf_fake_stdin>
    40dc:	0cf49763          	bne	s1,a5,41aa <_vfiprintf_r+0x100>
    40e0:	0049a483          	lw	s1,4(s3)
    40e4:	24de                	lhu	a5,12(s1)
    40e6:	8ba1                	andi	a5,a5,8
    40e8:	c3fd                	beqz	a5,41ce <_vfiprintf_r+0x124>
    40ea:	489c                	lw	a5,16(s1)
    40ec:	c3ed                	beqz	a5,41ce <_vfiprintf_r+0x124>
    40ee:	02000793          	li	a5,32
    40f2:	02f104a3          	sb	a5,41(sp)
    40f6:	03000793          	li	a5,48
    40fa:	d202                	sw	zero,36(sp)
    40fc:	02f10523          	sb	a5,42(sp)
    4100:	c622                	sw	s0,12(sp)
    4102:	02500b93          	li	s7,37
    4106:	00001a97          	auipc	s5,0x1
    410a:	a6ea8a93          	addi	s5,s5,-1426 # 4b74 <__sf_fake_stdout+0x20>
    410e:	4c05                	li	s8,1
    4110:	4b29                	li	s6,10
    4112:	844a                	mv	s0,s2
    4114:	201c                	lbu	a5,0(s0)
    4116:	c399                	beqz	a5,411c <_vfiprintf_r+0x72>
    4118:	0d779e63          	bne	a5,s7,41f4 <_vfiprintf_r+0x14a>
    411c:	41240cb3          	sub	s9,s0,s2
    4120:	000c8d63          	beqz	s9,413a <_vfiprintf_r+0x90>
    4124:	86e6                	mv	a3,s9
    4126:	864a                	mv	a2,s2
    4128:	85a6                	mv	a1,s1
    412a:	854e                	mv	a0,s3
    412c:	3f3d                	jal	406a <__sfputs_r>
    412e:	57fd                	li	a5,-1
    4130:	1cf50f63          	beq	a0,a5,430e <_vfiprintf_r+0x264>
    4134:	5692                	lw	a3,36(sp)
    4136:	96e6                	add	a3,a3,s9
    4138:	d236                	sw	a3,36(sp)
    413a:	201c                	lbu	a5,0(s0)
    413c:	1c078963          	beqz	a5,430e <_vfiprintf_r+0x264>
    4140:	57fd                	li	a5,-1
    4142:	00140913          	addi	s2,s0,1
    4146:	c802                	sw	zero,16(sp)
    4148:	ce02                	sw	zero,28(sp)
    414a:	ca3e                	sw	a5,20(sp)
    414c:	cc02                	sw	zero,24(sp)
    414e:	040109a3          	sb	zero,83(sp)
    4152:	d482                	sw	zero,104(sp)
    4154:	00094583          	lbu	a1,0(s2)
    4158:	4615                	li	a2,5
    415a:	8556                	mv	a0,s5
    415c:	2fa9                	jal	48b6 <memchr>
    415e:	00190413          	addi	s0,s2,1
    4162:	47c2                	lw	a5,16(sp)
    4164:	e951                	bnez	a0,41f8 <_vfiprintf_r+0x14e>
    4166:	0107f713          	andi	a4,a5,16
    416a:	c709                	beqz	a4,4174 <_vfiprintf_r+0xca>
    416c:	02000713          	li	a4,32
    4170:	04e109a3          	sb	a4,83(sp)
    4174:	0087f713          	andi	a4,a5,8
    4178:	c709                	beqz	a4,4182 <_vfiprintf_r+0xd8>
    417a:	02b00713          	li	a4,43
    417e:	04e109a3          	sb	a4,83(sp)
    4182:	00094683          	lbu	a3,0(s2)
    4186:	02a00713          	li	a4,42
    418a:	06e68f63          	beq	a3,a4,4208 <_vfiprintf_r+0x15e>
    418e:	47f2                	lw	a5,28(sp)
    4190:	844a                	mv	s0,s2
    4192:	4681                	li	a3,0
    4194:	4625                	li	a2,9
    4196:	2018                	lbu	a4,0(s0)
    4198:	00140593          	addi	a1,s0,1
    419c:	fd070713          	addi	a4,a4,-48 # ffffdfd0 <_eusrstack+0xdfff5fd0>
    41a0:	0ae67763          	bgeu	a2,a4,424e <_vfiprintf_r+0x1a4>
    41a4:	cab5                	beqz	a3,4218 <_vfiprintf_r+0x16e>
    41a6:	ce3e                	sw	a5,28(sp)
    41a8:	a885                	j	4218 <_vfiprintf_r+0x16e>
    41aa:	00001797          	auipc	a5,0x1
    41ae:	9aa78793          	addi	a5,a5,-1622 # 4b54 <__sf_fake_stdout>
    41b2:	00f49563          	bne	s1,a5,41bc <_vfiprintf_r+0x112>
    41b6:	0089a483          	lw	s1,8(s3)
    41ba:	b72d                	j	40e4 <_vfiprintf_r+0x3a>
    41bc:	00001797          	auipc	a5,0x1
    41c0:	95878793          	addi	a5,a5,-1704 # 4b14 <__sf_fake_stderr>
    41c4:	f2f490e3          	bne	s1,a5,40e4 <_vfiprintf_r+0x3a>
    41c8:	00c9a483          	lw	s1,12(s3)
    41cc:	bf21                	j	40e4 <_vfiprintf_r+0x3a>
    41ce:	85a6                	mv	a1,s1
    41d0:	854e                	mv	a0,s3
    41d2:	f5aff0ef          	jal	ra,392c <__swsetup_r>
    41d6:	dd01                	beqz	a0,40ee <_vfiprintf_r+0x44>
    41d8:	557d                	li	a0,-1
    41da:	40fa                	lw	ra,156(sp)
    41dc:	446a                	lw	s0,152(sp)
    41de:	44da                	lw	s1,148(sp)
    41e0:	494a                	lw	s2,144(sp)
    41e2:	49ba                	lw	s3,140(sp)
    41e4:	4a2a                	lw	s4,136(sp)
    41e6:	4a9a                	lw	s5,132(sp)
    41e8:	4b0a                	lw	s6,128(sp)
    41ea:	5bf6                	lw	s7,124(sp)
    41ec:	5c66                	lw	s8,120(sp)
    41ee:	5cd6                	lw	s9,116(sp)
    41f0:	610d                	addi	sp,sp,160
    41f2:	8082                	ret
    41f4:	0405                	addi	s0,s0,1
    41f6:	bf39                	j	4114 <_vfiprintf_r+0x6a>
    41f8:	41550533          	sub	a0,a0,s5
    41fc:	00ac1533          	sll	a0,s8,a0
    4200:	8fc9                	or	a5,a5,a0
    4202:	c83e                	sw	a5,16(sp)
    4204:	8922                	mv	s2,s0
    4206:	b7b9                	j	4154 <_vfiprintf_r+0xaa>
    4208:	4732                	lw	a4,12(sp)
    420a:	00470693          	addi	a3,a4,4
    420e:	4318                	lw	a4,0(a4)
    4210:	c636                	sw	a3,12(sp)
    4212:	02074763          	bltz	a4,4240 <_vfiprintf_r+0x196>
    4216:	ce3a                	sw	a4,28(sp)
    4218:	2018                	lbu	a4,0(s0)
    421a:	02e00793          	li	a5,46
    421e:	04f71d63          	bne	a4,a5,4278 <_vfiprintf_r+0x1ce>
    4222:	3018                	lbu	a4,1(s0)
    4224:	02a00793          	li	a5,42
    4228:	02f71b63          	bne	a4,a5,425e <_vfiprintf_r+0x1b4>
    422c:	47b2                	lw	a5,12(sp)
    422e:	0409                	addi	s0,s0,2
    4230:	00478713          	addi	a4,a5,4
    4234:	439c                	lw	a5,0(a5)
    4236:	c63a                	sw	a4,12(sp)
    4238:	0207c163          	bltz	a5,425a <_vfiprintf_r+0x1b0>
    423c:	ca3e                	sw	a5,20(sp)
    423e:	a82d                	j	4278 <_vfiprintf_r+0x1ce>
    4240:	40e00733          	neg	a4,a4
    4244:	0027e793          	ori	a5,a5,2
    4248:	ce3a                	sw	a4,28(sp)
    424a:	c83e                	sw	a5,16(sp)
    424c:	b7f1                	j	4218 <_vfiprintf_r+0x16e>
    424e:	036787b3          	mul	a5,a5,s6
    4252:	4685                	li	a3,1
    4254:	842e                	mv	s0,a1
    4256:	97ba                	add	a5,a5,a4
    4258:	bf3d                	j	4196 <_vfiprintf_r+0xec>
    425a:	57fd                	li	a5,-1
    425c:	b7c5                	j	423c <_vfiprintf_r+0x192>
    425e:	0405                	addi	s0,s0,1
    4260:	ca02                	sw	zero,20(sp)
    4262:	4681                	li	a3,0
    4264:	4781                	li	a5,0
    4266:	4625                	li	a2,9
    4268:	2018                	lbu	a4,0(s0)
    426a:	00140593          	addi	a1,s0,1
    426e:	fd070713          	addi	a4,a4,-48
    4272:	06e67463          	bgeu	a2,a4,42da <_vfiprintf_r+0x230>
    4276:	f2f9                	bnez	a3,423c <_vfiprintf_r+0x192>
    4278:	200c                	lbu	a1,0(s0)
    427a:	460d                	li	a2,3
    427c:	00001517          	auipc	a0,0x1
    4280:	90050513          	addi	a0,a0,-1792 # 4b7c <__sf_fake_stdout+0x28>
    4284:	2d0d                	jal	48b6 <memchr>
    4286:	cd11                	beqz	a0,42a2 <_vfiprintf_r+0x1f8>
    4288:	00001797          	auipc	a5,0x1
    428c:	8f478793          	addi	a5,a5,-1804 # 4b7c <__sf_fake_stdout+0x28>
    4290:	8d1d                	sub	a0,a0,a5
    4292:	04000793          	li	a5,64
    4296:	00a797b3          	sll	a5,a5,a0
    429a:	4542                	lw	a0,16(sp)
    429c:	0405                	addi	s0,s0,1
    429e:	8d5d                	or	a0,a0,a5
    42a0:	c82a                	sw	a0,16(sp)
    42a2:	200c                	lbu	a1,0(s0)
    42a4:	4619                	li	a2,6
    42a6:	00001517          	auipc	a0,0x1
    42aa:	8da50513          	addi	a0,a0,-1830 # 4b80 <__sf_fake_stdout+0x2c>
    42ae:	00140913          	addi	s2,s0,1
    42b2:	02b10423          	sb	a1,40(sp)
    42b6:	2501                	jal	48b6 <memchr>
    42b8:	c135                	beqz	a0,431c <_vfiprintf_r+0x272>
    42ba:	ffffc797          	auipc	a5,0xffffc
    42be:	d4678793          	addi	a5,a5,-698 # 0 <_sinit>
    42c2:	e795                	bnez	a5,42ee <_vfiprintf_r+0x244>
    42c4:	4742                	lw	a4,16(sp)
    42c6:	47b2                	lw	a5,12(sp)
    42c8:	10077713          	andi	a4,a4,256
    42cc:	cf09                	beqz	a4,42e6 <_vfiprintf_r+0x23c>
    42ce:	0791                	addi	a5,a5,4
    42d0:	c63e                	sw	a5,12(sp)
    42d2:	5792                	lw	a5,36(sp)
    42d4:	97d2                	add	a5,a5,s4
    42d6:	d23e                	sw	a5,36(sp)
    42d8:	bd2d                	j	4112 <_vfiprintf_r+0x68>
    42da:	036787b3          	mul	a5,a5,s6
    42de:	4685                	li	a3,1
    42e0:	842e                	mv	s0,a1
    42e2:	97ba                	add	a5,a5,a4
    42e4:	b751                	j	4268 <_vfiprintf_r+0x1be>
    42e6:	079d                	addi	a5,a5,7
    42e8:	9be1                	andi	a5,a5,-8
    42ea:	07a1                	addi	a5,a5,8
    42ec:	b7d5                	j	42d0 <_vfiprintf_r+0x226>
    42ee:	0078                	addi	a4,sp,12
    42f0:	00000697          	auipc	a3,0x0
    42f4:	d7a68693          	addi	a3,a3,-646 # 406a <__sfputs_r>
    42f8:	8626                	mv	a2,s1
    42fa:	080c                	addi	a1,sp,16
    42fc:	854e                	mv	a0,s3
    42fe:	00000097          	auipc	ra,0x0
    4302:	000000e7          	jalr	zero # 0 <_sinit>
    4306:	57fd                	li	a5,-1
    4308:	8a2a                	mv	s4,a0
    430a:	fcf514e3          	bne	a0,a5,42d2 <_vfiprintf_r+0x228>
    430e:	24de                	lhu	a5,12(s1)
    4310:	0407f793          	andi	a5,a5,64
    4314:	ec0792e3          	bnez	a5,41d8 <_vfiprintf_r+0x12e>
    4318:	5512                	lw	a0,36(sp)
    431a:	b5c1                	j	41da <_vfiprintf_r+0x130>
    431c:	0078                	addi	a4,sp,12
    431e:	00000697          	auipc	a3,0x0
    4322:	d4c68693          	addi	a3,a3,-692 # 406a <__sfputs_r>
    4326:	8626                	mv	a2,s1
    4328:	080c                	addi	a1,sp,16
    432a:	854e                	mv	a0,s3
    432c:	2a01                	jal	443c <_printf_i>
    432e:	bfe1                	j	4306 <_vfiprintf_r+0x25c>

00004330 <_printf_common>:
    4330:	7179                	addi	sp,sp,-48
    4332:	ca56                	sw	s5,20(sp)
    4334:	499c                	lw	a5,16(a1)
    4336:	8aba                	mv	s5,a4
    4338:	4598                	lw	a4,8(a1)
    433a:	d422                	sw	s0,40(sp)
    433c:	d226                	sw	s1,36(sp)
    433e:	ce4e                	sw	s3,28(sp)
    4340:	cc52                	sw	s4,24(sp)
    4342:	d606                	sw	ra,44(sp)
    4344:	d04a                	sw	s2,32(sp)
    4346:	c85a                	sw	s6,16(sp)
    4348:	c65e                	sw	s7,12(sp)
    434a:	89aa                	mv	s3,a0
    434c:	842e                	mv	s0,a1
    434e:	84b2                	mv	s1,a2
    4350:	8a36                	mv	s4,a3
    4352:	00e7d363          	bge	a5,a4,4358 <_printf_common+0x28>
    4356:	87ba                	mv	a5,a4
    4358:	c09c                	sw	a5,0(s1)
    435a:	04344703          	lbu	a4,67(s0)
    435e:	c319                	beqz	a4,4364 <_printf_common+0x34>
    4360:	0785                	addi	a5,a5,1
    4362:	c09c                	sw	a5,0(s1)
    4364:	401c                	lw	a5,0(s0)
    4366:	0207f793          	andi	a5,a5,32
    436a:	c781                	beqz	a5,4372 <_printf_common+0x42>
    436c:	409c                	lw	a5,0(s1)
    436e:	0789                	addi	a5,a5,2
    4370:	c09c                	sw	a5,0(s1)
    4372:	00042903          	lw	s2,0(s0)
    4376:	00697913          	andi	s2,s2,6
    437a:	00091a63          	bnez	s2,438e <_printf_common+0x5e>
    437e:	01940b13          	addi	s6,s0,25
    4382:	5bfd                	li	s7,-1
    4384:	445c                	lw	a5,12(s0)
    4386:	4098                	lw	a4,0(s1)
    4388:	8f99                	sub	a5,a5,a4
    438a:	04f94c63          	blt	s2,a5,43e2 <_printf_common+0xb2>
    438e:	401c                	lw	a5,0(s0)
    4390:	04344683          	lbu	a3,67(s0)
    4394:	0207f793          	andi	a5,a5,32
    4398:	00d036b3          	snez	a3,a3
    439c:	eba5                	bnez	a5,440c <_printf_common+0xdc>
    439e:	04340613          	addi	a2,s0,67
    43a2:	85d2                	mv	a1,s4
    43a4:	854e                	mv	a0,s3
    43a6:	9a82                	jalr	s5
    43a8:	57fd                	li	a5,-1
    43aa:	04f50363          	beq	a0,a5,43f0 <_printf_common+0xc0>
    43ae:	401c                	lw	a5,0(s0)
    43b0:	4611                	li	a2,4
    43b2:	4098                	lw	a4,0(s1)
    43b4:	8b99                	andi	a5,a5,6
    43b6:	4454                	lw	a3,12(s0)
    43b8:	4481                	li	s1,0
    43ba:	00c79763          	bne	a5,a2,43c8 <_printf_common+0x98>
    43be:	40e684b3          	sub	s1,a3,a4
    43c2:	0004d363          	bgez	s1,43c8 <_printf_common+0x98>
    43c6:	4481                	li	s1,0
    43c8:	441c                	lw	a5,8(s0)
    43ca:	4818                	lw	a4,16(s0)
    43cc:	00f75463          	bge	a4,a5,43d4 <_printf_common+0xa4>
    43d0:	8f99                	sub	a5,a5,a4
    43d2:	94be                	add	s1,s1,a5
    43d4:	4901                	li	s2,0
    43d6:	0469                	addi	s0,s0,26
    43d8:	5b7d                	li	s6,-1
    43da:	05249863          	bne	s1,s2,442a <_printf_common+0xfa>
    43de:	4501                	li	a0,0
    43e0:	a809                	j	43f2 <_printf_common+0xc2>
    43e2:	4685                	li	a3,1
    43e4:	865a                	mv	a2,s6
    43e6:	85d2                	mv	a1,s4
    43e8:	854e                	mv	a0,s3
    43ea:	9a82                	jalr	s5
    43ec:	01751e63          	bne	a0,s7,4408 <_printf_common+0xd8>
    43f0:	557d                	li	a0,-1
    43f2:	50b2                	lw	ra,44(sp)
    43f4:	5422                	lw	s0,40(sp)
    43f6:	5492                	lw	s1,36(sp)
    43f8:	5902                	lw	s2,32(sp)
    43fa:	49f2                	lw	s3,28(sp)
    43fc:	4a62                	lw	s4,24(sp)
    43fe:	4ad2                	lw	s5,20(sp)
    4400:	4b42                	lw	s6,16(sp)
    4402:	4bb2                	lw	s7,12(sp)
    4404:	6145                	addi	sp,sp,48
    4406:	8082                	ret
    4408:	0905                	addi	s2,s2,1
    440a:	bfad                	j	4384 <_printf_common+0x54>
    440c:	00d40733          	add	a4,s0,a3
    4410:	03000613          	li	a2,48
    4414:	04c701a3          	sb	a2,67(a4)
    4418:	04544703          	lbu	a4,69(s0)
    441c:	00168793          	addi	a5,a3,1
    4420:	97a2                	add	a5,a5,s0
    4422:	0689                	addi	a3,a3,2
    4424:	04e781a3          	sb	a4,67(a5)
    4428:	bf9d                	j	439e <_printf_common+0x6e>
    442a:	4685                	li	a3,1
    442c:	8622                	mv	a2,s0
    442e:	85d2                	mv	a1,s4
    4430:	854e                	mv	a0,s3
    4432:	9a82                	jalr	s5
    4434:	fb650ee3          	beq	a0,s6,43f0 <_printf_common+0xc0>
    4438:	0905                	addi	s2,s2,1
    443a:	b745                	j	43da <_printf_common+0xaa>

0000443c <_printf_i>:
    443c:	7179                	addi	sp,sp,-48
    443e:	d422                	sw	s0,40(sp)
    4440:	d226                	sw	s1,36(sp)
    4442:	d04a                	sw	s2,32(sp)
    4444:	ce4e                	sw	s3,28(sp)
    4446:	d606                	sw	ra,44(sp)
    4448:	cc52                	sw	s4,24(sp)
    444a:	ca56                	sw	s5,20(sp)
    444c:	c85a                	sw	s6,16(sp)
    444e:	89b6                	mv	s3,a3
    4450:	2d94                	lbu	a3,24(a1)
    4452:	06900793          	li	a5,105
    4456:	8932                	mv	s2,a2
    4458:	84aa                	mv	s1,a0
    445a:	842e                	mv	s0,a1
    445c:	04358613          	addi	a2,a1,67
    4460:	02f68d63          	beq	a3,a5,449a <_printf_i+0x5e>
    4464:	06d7e263          	bltu	a5,a3,44c8 <_printf_i+0x8c>
    4468:	05800793          	li	a5,88
    446c:	18f68663          	beq	a3,a5,45f8 <_printf_i+0x1bc>
    4470:	00d7ed63          	bltu	a5,a3,448a <_printf_i+0x4e>
    4474:	20068e63          	beqz	a3,4690 <_printf_i+0x254>
    4478:	04300793          	li	a5,67
    447c:	0af68e63          	beq	a3,a5,4538 <_printf_i+0xfc>
    4480:	04240a93          	addi	s5,s0,66
    4484:	04d40123          	sb	a3,66(s0)
    4488:	a0c9                	j	454a <_printf_i+0x10e>
    448a:	06300793          	li	a5,99
    448e:	0af68563          	beq	a3,a5,4538 <_printf_i+0xfc>
    4492:	06400793          	li	a5,100
    4496:	fef695e3          	bne	a3,a5,4480 <_printf_i+0x44>
    449a:	401c                	lw	a5,0(s0)
    449c:	4308                	lw	a0,0(a4)
    449e:	0807f693          	andi	a3,a5,128
    44a2:	00450593          	addi	a1,a0,4
    44a6:	c6c5                	beqz	a3,454e <_printf_i+0x112>
    44a8:	411c                	lw	a5,0(a0)
    44aa:	c30c                	sw	a1,0(a4)
    44ac:	0007d863          	bgez	a5,44bc <_printf_i+0x80>
    44b0:	02d00713          	li	a4,45
    44b4:	40f007b3          	neg	a5,a5
    44b8:	04e401a3          	sb	a4,67(s0)
    44bc:	00000697          	auipc	a3,0x0
    44c0:	6cc68693          	addi	a3,a3,1740 # 4b88 <__sf_fake_stdout+0x34>
    44c4:	4729                	li	a4,10
    44c6:	a865                	j	457e <_printf_i+0x142>
    44c8:	07000793          	li	a5,112
    44cc:	16f68263          	beq	a3,a5,4630 <_printf_i+0x1f4>
    44d0:	02d7e563          	bltu	a5,a3,44fa <_printf_i+0xbe>
    44d4:	06e00793          	li	a5,110
    44d8:	18f68963          	beq	a3,a5,466a <_printf_i+0x22e>
    44dc:	06f00793          	li	a5,111
    44e0:	faf690e3          	bne	a3,a5,4480 <_printf_i+0x44>
    44e4:	400c                	lw	a1,0(s0)
    44e6:	431c                	lw	a5,0(a4)
    44e8:	0805f813          	andi	a6,a1,128
    44ec:	00478513          	addi	a0,a5,4
    44f0:	06080763          	beqz	a6,455e <_printf_i+0x122>
    44f4:	c308                	sw	a0,0(a4)
    44f6:	439c                	lw	a5,0(a5)
    44f8:	a885                	j	4568 <_printf_i+0x12c>
    44fa:	07500793          	li	a5,117
    44fe:	fef683e3          	beq	a3,a5,44e4 <_printf_i+0xa8>
    4502:	07800793          	li	a5,120
    4506:	12f68963          	beq	a3,a5,4638 <_printf_i+0x1fc>
    450a:	07300793          	li	a5,115
    450e:	f6f699e3          	bne	a3,a5,4480 <_printf_i+0x44>
    4512:	431c                	lw	a5,0(a4)
    4514:	41d0                	lw	a2,4(a1)
    4516:	4581                	li	a1,0
    4518:	00478693          	addi	a3,a5,4
    451c:	c314                	sw	a3,0(a4)
    451e:	0007aa83          	lw	s5,0(a5)
    4522:	8556                	mv	a0,s5
    4524:	2e49                	jal	48b6 <memchr>
    4526:	c501                	beqz	a0,452e <_printf_i+0xf2>
    4528:	41550533          	sub	a0,a0,s5
    452c:	c048                	sw	a0,4(s0)
    452e:	405c                	lw	a5,4(s0)
    4530:	c81c                	sw	a5,16(s0)
    4532:	040401a3          	sb	zero,67(s0)
    4536:	a861                	j	45ce <_printf_i+0x192>
    4538:	431c                	lw	a5,0(a4)
    453a:	04240a93          	addi	s5,s0,66
    453e:	00478693          	addi	a3,a5,4
    4542:	439c                	lw	a5,0(a5)
    4544:	c314                	sw	a3,0(a4)
    4546:	04f40123          	sb	a5,66(s0)
    454a:	4785                	li	a5,1
    454c:	b7d5                	j	4530 <_printf_i+0xf4>
    454e:	0407f693          	andi	a3,a5,64
    4552:	411c                	lw	a5,0(a0)
    4554:	c30c                	sw	a1,0(a4)
    4556:	dab9                	beqz	a3,44ac <_printf_i+0x70>
    4558:	07c2                	slli	a5,a5,0x10
    455a:	87c1                	srai	a5,a5,0x10
    455c:	bf81                	j	44ac <_printf_i+0x70>
    455e:	0405f593          	andi	a1,a1,64
    4562:	c308                	sw	a0,0(a4)
    4564:	d9c9                	beqz	a1,44f6 <_printf_i+0xba>
    4566:	239e                	lhu	a5,0(a5)
    4568:	06f00713          	li	a4,111
    456c:	0ee68763          	beq	a3,a4,465a <_printf_i+0x21e>
    4570:	00000697          	auipc	a3,0x0
    4574:	61868693          	addi	a3,a3,1560 # 4b88 <__sf_fake_stdout+0x34>
    4578:	4729                	li	a4,10
    457a:	040401a3          	sb	zero,67(s0)
    457e:	404c                	lw	a1,4(s0)
    4580:	c40c                	sw	a1,8(s0)
    4582:	0005c563          	bltz	a1,458c <_printf_i+0x150>
    4586:	4008                	lw	a0,0(s0)
    4588:	996d                	andi	a0,a0,-5
    458a:	c008                	sw	a0,0(s0)
    458c:	e399                	bnez	a5,4592 <_printf_i+0x156>
    458e:	8ab2                	mv	s5,a2
    4590:	cd89                	beqz	a1,45aa <_printf_i+0x16e>
    4592:	8ab2                	mv	s5,a2
    4594:	02e7f5b3          	remu	a1,a5,a4
    4598:	1afd                	addi	s5,s5,-1
    459a:	95b6                	add	a1,a1,a3
    459c:	218c                	lbu	a1,0(a1)
    459e:	00ba8023          	sb	a1,0(s5)
    45a2:	02e7d5b3          	divu	a1,a5,a4
    45a6:	0ce7f063          	bgeu	a5,a4,4666 <_printf_i+0x22a>
    45aa:	47a1                	li	a5,8
    45ac:	00f71e63          	bne	a4,a5,45c8 <_printf_i+0x18c>
    45b0:	401c                	lw	a5,0(s0)
    45b2:	8b85                	andi	a5,a5,1
    45b4:	cb91                	beqz	a5,45c8 <_printf_i+0x18c>
    45b6:	4058                	lw	a4,4(s0)
    45b8:	481c                	lw	a5,16(s0)
    45ba:	00e7c763          	blt	a5,a4,45c8 <_printf_i+0x18c>
    45be:	03000793          	li	a5,48
    45c2:	fefa8fa3          	sb	a5,-1(s5)
    45c6:	1afd                	addi	s5,s5,-1
    45c8:	41560633          	sub	a2,a2,s5
    45cc:	c810                	sw	a2,16(s0)
    45ce:	874e                	mv	a4,s3
    45d0:	86ca                	mv	a3,s2
    45d2:	0070                	addi	a2,sp,12
    45d4:	85a2                	mv	a1,s0
    45d6:	8526                	mv	a0,s1
    45d8:	d59ff0ef          	jal	ra,4330 <_printf_common>
    45dc:	5a7d                	li	s4,-1
    45de:	0b451d63          	bne	a0,s4,4698 <_printf_i+0x25c>
    45e2:	557d                	li	a0,-1
    45e4:	50b2                	lw	ra,44(sp)
    45e6:	5422                	lw	s0,40(sp)
    45e8:	5492                	lw	s1,36(sp)
    45ea:	5902                	lw	s2,32(sp)
    45ec:	49f2                	lw	s3,28(sp)
    45ee:	4a62                	lw	s4,24(sp)
    45f0:	4ad2                	lw	s5,20(sp)
    45f2:	4b42                	lw	s6,16(sp)
    45f4:	6145                	addi	sp,sp,48
    45f6:	8082                	ret
    45f8:	04d582a3          	sb	a3,69(a1)
    45fc:	00000697          	auipc	a3,0x0
    4600:	58c68693          	addi	a3,a3,1420 # 4b88 <__sf_fake_stdout+0x34>
    4604:	400c                	lw	a1,0(s0)
    4606:	4308                	lw	a0,0(a4)
    4608:	0805f813          	andi	a6,a1,128
    460c:	411c                	lw	a5,0(a0)
    460e:	0511                	addi	a0,a0,4
    4610:	02080d63          	beqz	a6,464a <_printf_i+0x20e>
    4614:	c308                	sw	a0,0(a4)
    4616:	0015f713          	andi	a4,a1,1
    461a:	c701                	beqz	a4,4622 <_printf_i+0x1e6>
    461c:	0205e593          	ori	a1,a1,32
    4620:	c00c                	sw	a1,0(s0)
    4622:	4741                	li	a4,16
    4624:	fbb9                	bnez	a5,457a <_printf_i+0x13e>
    4626:	400c                	lw	a1,0(s0)
    4628:	fdf5f593          	andi	a1,a1,-33
    462c:	c00c                	sw	a1,0(s0)
    462e:	b7b1                	j	457a <_printf_i+0x13e>
    4630:	419c                	lw	a5,0(a1)
    4632:	0207e793          	ori	a5,a5,32
    4636:	c19c                	sw	a5,0(a1)
    4638:	07800793          	li	a5,120
    463c:	04f402a3          	sb	a5,69(s0)
    4640:	00000697          	auipc	a3,0x0
    4644:	55c68693          	addi	a3,a3,1372 # 4b9c <__sf_fake_stdout+0x48>
    4648:	bf75                	j	4604 <_printf_i+0x1c8>
    464a:	0405f813          	andi	a6,a1,64
    464e:	c308                	sw	a0,0(a4)
    4650:	fc0803e3          	beqz	a6,4616 <_printf_i+0x1da>
    4654:	07c2                	slli	a5,a5,0x10
    4656:	83c1                	srli	a5,a5,0x10
    4658:	bf7d                	j	4616 <_printf_i+0x1da>
    465a:	00000697          	auipc	a3,0x0
    465e:	52e68693          	addi	a3,a3,1326 # 4b88 <__sf_fake_stdout+0x34>
    4662:	4721                	li	a4,8
    4664:	bf19                	j	457a <_printf_i+0x13e>
    4666:	87ae                	mv	a5,a1
    4668:	b735                	j	4594 <_printf_i+0x158>
    466a:	4194                	lw	a3,0(a1)
    466c:	431c                	lw	a5,0(a4)
    466e:	49cc                	lw	a1,20(a1)
    4670:	0806f813          	andi	a6,a3,128
    4674:	00478513          	addi	a0,a5,4
    4678:	00080663          	beqz	a6,4684 <_printf_i+0x248>
    467c:	c308                	sw	a0,0(a4)
    467e:	439c                	lw	a5,0(a5)
    4680:	c38c                	sw	a1,0(a5)
    4682:	a039                	j	4690 <_printf_i+0x254>
    4684:	c308                	sw	a0,0(a4)
    4686:	0406f693          	andi	a3,a3,64
    468a:	439c                	lw	a5,0(a5)
    468c:	daf5                	beqz	a3,4680 <_printf_i+0x244>
    468e:	a38e                	sh	a1,0(a5)
    4690:	00042823          	sw	zero,16(s0)
    4694:	8ab2                	mv	s5,a2
    4696:	bf25                	j	45ce <_printf_i+0x192>
    4698:	4814                	lw	a3,16(s0)
    469a:	8656                	mv	a2,s5
    469c:	85ca                	mv	a1,s2
    469e:	8526                	mv	a0,s1
    46a0:	9982                	jalr	s3
    46a2:	f54500e3          	beq	a0,s4,45e2 <_printf_i+0x1a6>
    46a6:	401c                	lw	a5,0(s0)
    46a8:	8b89                	andi	a5,a5,2
    46aa:	e78d                	bnez	a5,46d4 <_printf_i+0x298>
    46ac:	47b2                	lw	a5,12(sp)
    46ae:	4448                	lw	a0,12(s0)
    46b0:	f2f55ae3          	bge	a0,a5,45e4 <_printf_i+0x1a8>
    46b4:	853e                	mv	a0,a5
    46b6:	b73d                	j	45e4 <_printf_i+0x1a8>
    46b8:	4685                	li	a3,1
    46ba:	8656                	mv	a2,s5
    46bc:	85ca                	mv	a1,s2
    46be:	8526                	mv	a0,s1
    46c0:	9982                	jalr	s3
    46c2:	f36500e3          	beq	a0,s6,45e2 <_printf_i+0x1a6>
    46c6:	0a05                	addi	s4,s4,1
    46c8:	445c                	lw	a5,12(s0)
    46ca:	4732                	lw	a4,12(sp)
    46cc:	8f99                	sub	a5,a5,a4
    46ce:	fefa45e3          	blt	s4,a5,46b8 <_printf_i+0x27c>
    46d2:	bfe9                	j	46ac <_printf_i+0x270>
    46d4:	4a01                	li	s4,0
    46d6:	01940a93          	addi	s5,s0,25
    46da:	5b7d                	li	s6,-1
    46dc:	b7f5                	j	46c8 <_printf_i+0x28c>

000046de <_sbrk_r>:
    46de:	1141                	addi	sp,sp,-16
    46e0:	c422                	sw	s0,8(sp)
    46e2:	842a                	mv	s0,a0
    46e4:	852e                	mv	a0,a1
    46e6:	1fffe797          	auipc	a5,0x1fffe
    46ea:	ae07a123          	sw	zero,-1310(a5) # 200021c8 <errno>
    46ee:	c606                	sw	ra,12(sp)
    46f0:	f31fe0ef          	jal	ra,3620 <_sbrk>
    46f4:	57fd                	li	a5,-1
    46f6:	00f51963          	bne	a0,a5,4708 <_sbrk_r+0x2a>
    46fa:	1fffe797          	auipc	a5,0x1fffe
    46fe:	ace78793          	addi	a5,a5,-1330 # 200021c8 <errno>
    4702:	439c                	lw	a5,0(a5)
    4704:	c391                	beqz	a5,4708 <_sbrk_r+0x2a>
    4706:	c01c                	sw	a5,0(s0)
    4708:	40b2                	lw	ra,12(sp)
    470a:	4422                	lw	s0,8(sp)
    470c:	0141                	addi	sp,sp,16
    470e:	8082                	ret

00004710 <__sread>:
    4710:	1141                	addi	sp,sp,-16
    4712:	c422                	sw	s0,8(sp)
    4714:	842e                	mv	s0,a1
    4716:	00e59583          	lh	a1,14(a1)
    471a:	c606                	sw	ra,12(sp)
    471c:	2a5d                	jal	48d2 <_read_r>
    471e:	00054963          	bltz	a0,4730 <__sread+0x20>
    4722:	487c                	lw	a5,84(s0)
    4724:	97aa                	add	a5,a5,a0
    4726:	c87c                	sw	a5,84(s0)
    4728:	40b2                	lw	ra,12(sp)
    472a:	4422                	lw	s0,8(sp)
    472c:	0141                	addi	sp,sp,16
    472e:	8082                	ret
    4730:	245e                	lhu	a5,12(s0)
    4732:	777d                	lui	a4,0xfffff
    4734:	177d                	addi	a4,a4,-1
    4736:	8ff9                	and	a5,a5,a4
    4738:	a45e                	sh	a5,12(s0)
    473a:	b7fd                	j	4728 <__sread+0x18>

0000473c <__swrite>:
    473c:	25de                	lhu	a5,12(a1)
    473e:	1101                	addi	sp,sp,-32
    4740:	cc22                	sw	s0,24(sp)
    4742:	ca26                	sw	s1,20(sp)
    4744:	c84a                	sw	s2,16(sp)
    4746:	c64e                	sw	s3,12(sp)
    4748:	ce06                	sw	ra,28(sp)
    474a:	1007f793          	andi	a5,a5,256
    474e:	84aa                	mv	s1,a0
    4750:	842e                	mv	s0,a1
    4752:	8932                	mv	s2,a2
    4754:	89b6                	mv	s3,a3
    4756:	c791                	beqz	a5,4762 <__swrite+0x26>
    4758:	00e59583          	lh	a1,14(a1)
    475c:	4689                	li	a3,2
    475e:	4601                	li	a2,0
    4760:	220d                	jal	4882 <_lseek_r>
    4762:	245e                	lhu	a5,12(s0)
    4764:	777d                	lui	a4,0xfffff
    4766:	177d                	addi	a4,a4,-1
    4768:	8ff9                	and	a5,a5,a4
    476a:	a45e                	sh	a5,12(s0)
    476c:	00e41583          	lh	a1,14(s0)
    4770:	4462                	lw	s0,24(sp)
    4772:	40f2                	lw	ra,28(sp)
    4774:	86ce                	mv	a3,s3
    4776:	864a                	mv	a2,s2
    4778:	49b2                	lw	s3,12(sp)
    477a:	4942                	lw	s2,16(sp)
    477c:	8526                	mv	a0,s1
    477e:	44d2                	lw	s1,20(sp)
    4780:	6105                	addi	sp,sp,32
    4782:	a825                	j	47ba <_write_r>

00004784 <__sseek>:
    4784:	1141                	addi	sp,sp,-16
    4786:	c422                	sw	s0,8(sp)
    4788:	842e                	mv	s0,a1
    478a:	00e59583          	lh	a1,14(a1)
    478e:	c606                	sw	ra,12(sp)
    4790:	28cd                	jal	4882 <_lseek_r>
    4792:	57fd                	li	a5,-1
    4794:	245a                	lhu	a4,12(s0)
    4796:	00f51a63          	bne	a0,a5,47aa <__sseek+0x26>
    479a:	77fd                	lui	a5,0xfffff
    479c:	17fd                	addi	a5,a5,-1
    479e:	8ff9                	and	a5,a5,a4
    47a0:	a45e                	sh	a5,12(s0)
    47a2:	40b2                	lw	ra,12(sp)
    47a4:	4422                	lw	s0,8(sp)
    47a6:	0141                	addi	sp,sp,16
    47a8:	8082                	ret
    47aa:	6785                	lui	a5,0x1
    47ac:	8fd9                	or	a5,a5,a4
    47ae:	a45e                	sh	a5,12(s0)
    47b0:	c868                	sw	a0,84(s0)
    47b2:	bfc5                	j	47a2 <__sseek+0x1e>

000047b4 <__sclose>:
    47b4:	00e59583          	lh	a1,14(a1)
    47b8:	a825                	j	47f0 <_close_r>

000047ba <_write_r>:
    47ba:	1141                	addi	sp,sp,-16
    47bc:	c422                	sw	s0,8(sp)
    47be:	842a                	mv	s0,a0
    47c0:	852e                	mv	a0,a1
    47c2:	85b2                	mv	a1,a2
    47c4:	8636                	mv	a2,a3
    47c6:	1fffe797          	auipc	a5,0x1fffe
    47ca:	a007a123          	sw	zero,-1534(a5) # 200021c8 <errno>
    47ce:	c606                	sw	ra,12(sp)
    47d0:	ddffe0ef          	jal	ra,35ae <_write>
    47d4:	57fd                	li	a5,-1
    47d6:	00f51963          	bne	a0,a5,47e8 <_write_r+0x2e>
    47da:	1fffe797          	auipc	a5,0x1fffe
    47de:	9ee78793          	addi	a5,a5,-1554 # 200021c8 <errno>
    47e2:	439c                	lw	a5,0(a5)
    47e4:	c391                	beqz	a5,47e8 <_write_r+0x2e>
    47e6:	c01c                	sw	a5,0(s0)
    47e8:	40b2                	lw	ra,12(sp)
    47ea:	4422                	lw	s0,8(sp)
    47ec:	0141                	addi	sp,sp,16
    47ee:	8082                	ret

000047f0 <_close_r>:
    47f0:	1141                	addi	sp,sp,-16
    47f2:	c422                	sw	s0,8(sp)
    47f4:	842a                	mv	s0,a0
    47f6:	852e                	mv	a0,a1
    47f8:	1fffe797          	auipc	a5,0x1fffe
    47fc:	9c07a823          	sw	zero,-1584(a5) # 200021c8 <errno>
    4800:	c606                	sw	ra,12(sp)
    4802:	2211                	jal	4906 <_close>
    4804:	57fd                	li	a5,-1
    4806:	00f51963          	bne	a0,a5,4818 <_close_r+0x28>
    480a:	1fffe797          	auipc	a5,0x1fffe
    480e:	9be78793          	addi	a5,a5,-1602 # 200021c8 <errno>
    4812:	439c                	lw	a5,0(a5)
    4814:	c391                	beqz	a5,4818 <_close_r+0x28>
    4816:	c01c                	sw	a5,0(s0)
    4818:	40b2                	lw	ra,12(sp)
    481a:	4422                	lw	s0,8(sp)
    481c:	0141                	addi	sp,sp,16
    481e:	8082                	ret

00004820 <_fstat_r>:
    4820:	1141                	addi	sp,sp,-16
    4822:	c422                	sw	s0,8(sp)
    4824:	842a                	mv	s0,a0
    4826:	852e                	mv	a0,a1
    4828:	85b2                	mv	a1,a2
    482a:	1fffe797          	auipc	a5,0x1fffe
    482e:	9807af23          	sw	zero,-1634(a5) # 200021c8 <errno>
    4832:	c606                	sw	ra,12(sp)
    4834:	20cd                	jal	4916 <_fstat>
    4836:	57fd                	li	a5,-1
    4838:	00f51963          	bne	a0,a5,484a <_fstat_r+0x2a>
    483c:	1fffe797          	auipc	a5,0x1fffe
    4840:	98c78793          	addi	a5,a5,-1652 # 200021c8 <errno>
    4844:	439c                	lw	a5,0(a5)
    4846:	c391                	beqz	a5,484a <_fstat_r+0x2a>
    4848:	c01c                	sw	a5,0(s0)
    484a:	40b2                	lw	ra,12(sp)
    484c:	4422                	lw	s0,8(sp)
    484e:	0141                	addi	sp,sp,16
    4850:	8082                	ret

00004852 <_isatty_r>:
    4852:	1141                	addi	sp,sp,-16
    4854:	c422                	sw	s0,8(sp)
    4856:	842a                	mv	s0,a0
    4858:	852e                	mv	a0,a1
    485a:	1fffe797          	auipc	a5,0x1fffe
    485e:	9607a723          	sw	zero,-1682(a5) # 200021c8 <errno>
    4862:	c606                	sw	ra,12(sp)
    4864:	20c9                	jal	4926 <_isatty>
    4866:	57fd                	li	a5,-1
    4868:	00f51963          	bne	a0,a5,487a <_isatty_r+0x28>
    486c:	1fffe797          	auipc	a5,0x1fffe
    4870:	95c78793          	addi	a5,a5,-1700 # 200021c8 <errno>
    4874:	439c                	lw	a5,0(a5)
    4876:	c391                	beqz	a5,487a <_isatty_r+0x28>
    4878:	c01c                	sw	a5,0(s0)
    487a:	40b2                	lw	ra,12(sp)
    487c:	4422                	lw	s0,8(sp)
    487e:	0141                	addi	sp,sp,16
    4880:	8082                	ret

00004882 <_lseek_r>:
    4882:	1141                	addi	sp,sp,-16
    4884:	c422                	sw	s0,8(sp)
    4886:	842a                	mv	s0,a0
    4888:	852e                	mv	a0,a1
    488a:	85b2                	mv	a1,a2
    488c:	8636                	mv	a2,a3
    488e:	1fffe797          	auipc	a5,0x1fffe
    4892:	9207ad23          	sw	zero,-1734(a5) # 200021c8 <errno>
    4896:	c606                	sw	ra,12(sp)
    4898:	2879                	jal	4936 <_lseek>
    489a:	57fd                	li	a5,-1
    489c:	00f51963          	bne	a0,a5,48ae <_lseek_r+0x2c>
    48a0:	1fffe797          	auipc	a5,0x1fffe
    48a4:	92878793          	addi	a5,a5,-1752 # 200021c8 <errno>
    48a8:	439c                	lw	a5,0(a5)
    48aa:	c391                	beqz	a5,48ae <_lseek_r+0x2c>
    48ac:	c01c                	sw	a5,0(s0)
    48ae:	40b2                	lw	ra,12(sp)
    48b0:	4422                	lw	s0,8(sp)
    48b2:	0141                	addi	sp,sp,16
    48b4:	8082                	ret

000048b6 <memchr>:
    48b6:	0ff5f593          	andi	a1,a1,255
    48ba:	962a                	add	a2,a2,a0
    48bc:	00c51463          	bne	a0,a2,48c4 <memchr+0xe>
    48c0:	4501                	li	a0,0
    48c2:	8082                	ret
    48c4:	211c                	lbu	a5,0(a0)
    48c6:	feb78ee3          	beq	a5,a1,48c2 <memchr+0xc>
    48ca:	0505                	addi	a0,a0,1
    48cc:	bfc5                	j	48bc <memchr+0x6>

000048ce <__malloc_lock>:
    48ce:	8082                	ret

000048d0 <__malloc_unlock>:
    48d0:	8082                	ret

000048d2 <_read_r>:
    48d2:	1141                	addi	sp,sp,-16
    48d4:	c422                	sw	s0,8(sp)
    48d6:	842a                	mv	s0,a0
    48d8:	852e                	mv	a0,a1
    48da:	85b2                	mv	a1,a2
    48dc:	8636                	mv	a2,a3
    48de:	1fffe797          	auipc	a5,0x1fffe
    48e2:	8e07a523          	sw	zero,-1814(a5) # 200021c8 <errno>
    48e6:	c606                	sw	ra,12(sp)
    48e8:	28b9                	jal	4946 <_read>
    48ea:	57fd                	li	a5,-1
    48ec:	00f51963          	bne	a0,a5,48fe <_read_r+0x2c>
    48f0:	1fffe797          	auipc	a5,0x1fffe
    48f4:	8d878793          	addi	a5,a5,-1832 # 200021c8 <errno>
    48f8:	439c                	lw	a5,0(a5)
    48fa:	c391                	beqz	a5,48fe <_read_r+0x2c>
    48fc:	c01c                	sw	a5,0(s0)
    48fe:	40b2                	lw	ra,12(sp)
    4900:	4422                	lw	s0,8(sp)
    4902:	0141                	addi	sp,sp,16
    4904:	8082                	ret

00004906 <_close>:
    4906:	05800793          	li	a5,88
    490a:	1fffe717          	auipc	a4,0x1fffe
    490e:	8af72f23          	sw	a5,-1858(a4) # 200021c8 <errno>
    4912:	557d                	li	a0,-1
    4914:	8082                	ret

00004916 <_fstat>:
    4916:	05800793          	li	a5,88
    491a:	1fffe717          	auipc	a4,0x1fffe
    491e:	8af72723          	sw	a5,-1874(a4) # 200021c8 <errno>
    4922:	557d                	li	a0,-1
    4924:	8082                	ret

00004926 <_isatty>:
    4926:	05800793          	li	a5,88
    492a:	1fffe717          	auipc	a4,0x1fffe
    492e:	88f72f23          	sw	a5,-1890(a4) # 200021c8 <errno>
    4932:	4501                	li	a0,0
    4934:	8082                	ret

00004936 <_lseek>:
    4936:	05800793          	li	a5,88
    493a:	1fffe717          	auipc	a4,0x1fffe
    493e:	88f72723          	sw	a5,-1906(a4) # 200021c8 <errno>
    4942:	557d                	li	a0,-1
    4944:	8082                	ret

00004946 <_read>:
    4946:	05800793          	li	a5,88
    494a:	1fffe717          	auipc	a4,0x1fffe
    494e:	86f72f23          	sw	a5,-1922(a4) # 200021c8 <errno>
    4952:	557d                	li	a0,-1
    4954:	8082                	ret
    4956:	0000                	unimp
    4958:	6168                	flw	fa0,68(a0)
    495a:	6472                	flw	fs0,28(sp)
    495c:	6166                	flw	ft2,88(sp)
    495e:	6c75                	lui	s8,0x1d
    4960:	0d74                	addi	a3,sp,668
    4962:	0000                	unimp
    4964:	74737953          	0x74737953
    4968:	6d65                	lui	s10,0x19
    496a:	3a6b6c43          	fmadd.d	fs8,fs6,ft6,ft7,unknown
    496e:	6425                	lui	s0,0x9
    4970:	0a0d                	addi	s4,s4,3
    4972:	0000                	unimp
    4974:	70696843          	fmadd.s	fa6,fs2,ft6,fa4,unknown
    4978:	4449                	li	s0,18
    497a:	253a                	lhu	a4,10(a0)
    497c:	3830                	lbu	a2,19(s0)
    497e:	0d78                	addi	a4,sp,668
    4980:	000a                	c.slli	zero,0x2
    4982:	0000                	unimp
    4984:	756d6953          	0x756d6953
    4988:	616c                	flw	fa1,68(a0)
    498a:	6574                	flw	fa3,76(a0)
    498c:	5520                	lw	s0,104(a0)
    498e:	432d4253          	0x432d4253
    4992:	4344                	lw	s1,4(a4)
    4994:	4420                	lw	s0,72(s0)
    4996:	7665                	lui	a2,0xffff9
    4998:	6369                	lui	t1,0x1a
    499a:	2065                	jal	4a42 <MyCfgDescr_FS+0x2>
    499c:	7572                	flw	fa0,60(sp)
    499e:	6e6e                	flw	ft8,216(sp)
    49a0:	6e69                	lui	t3,0x1a
    49a2:	6e6f2067          	0x6e6f2067
    49a6:	5520                	lw	s0,104(a0)
    49a8:	53484253          	0x53484253
    49ac:	4320                	lw	s0,64(a4)
    49ae:	72746e6f          	jal	t3,4b8d4 <_data_lma+0x46d24>
    49b2:	656c6c6f          	jal	s8,cb008 <_data_lma+0xc6458>
    49b6:	0d72                	slli	s10,s10,0x1c
    49b8:	0000                	unimp
    49ba:	0000                	unimp
    49bc:	10b6                	slli	ra,ra,0x2d
    49be:	0000                	unimp
    49c0:	0eba                	slli	t4,t4,0xe
    49c2:	0000                	unimp
    49c4:	11c2                	slli	gp,gp,0x30
    49c6:	0000                	unimp
    49c8:	0f82                	c.slli64	t6
    49ca:	0000                	unimp
    49cc:	11c2                	slli	gp,gp,0x30
    49ce:	0000                	unimp
    49d0:	0e68                	addi	a0,sp,796
    49d2:	0000                	unimp
    49d4:	0b82                	c.slli64	s7
    49d6:	0000                	unimp
    49d8:	11c2                	slli	gp,gp,0x30
    49da:	0000                	unimp
    49dc:	0e7a                	slli	t3,t3,0x1e
    49de:	0000                	unimp
    49e0:	0ea2                	slli	t4,t4,0x8
    49e2:	0000                	unimp
    49e4:	1096                	slli	ra,ra,0x25
    49e6:	0000                	unimp
    49e8:	11ca                	slli	gp,gp,0x32
    49ea:	0000                	unimp
    49ec:	0dfc                	addi	a5,sp,732
    49ee:	0000                	unimp
    49f0:	0baa                	slli	s7,s7,0xa
    49f2:	0000                	unimp
    49f4:	0bc0                	addi	s0,sp,468
    49f6:	0000                	unimp
    49f8:	0c66                	slli	s8,s8,0x19
    49fa:	0000                	unimp
    49fc:	0dfc                	addi	a5,sp,732
    49fe:	0000                	unimp
    4a00:	0dfc                	addi	a5,sp,732
    4a02:	0000                	unimp
    4a04:	0cee                	slli	s9,s9,0x1b
    4a06:	0000                	unimp
    4a08:	0d0c                	addi	a1,sp,656
    4a0a:	0000                	unimp
    4a0c:	0dfc                	addi	a5,sp,732
    4a0e:	0000                	unimp
    4a10:	0dfc                	addi	a5,sp,732
    4a12:	0000                	unimp
    4a14:	0dfc                	addi	a5,sp,732
    4a16:	0000                	unimp
    4a18:	0dfc                	addi	a5,sp,732
    4a1a:	0000                	unimp
    4a1c:	0dfc                	addi	a5,sp,732
    4a1e:	0000                	unimp
    4a20:	0dfc                	addi	a5,sp,732
    4a22:	0000                	unimp
    4a24:	0dfc                	addi	a5,sp,732
    4a26:	0000                	unimp
    4a28:	0d04                	addi	s1,sp,656
	...

00004a2c <MyDevDescr>:
    4a2c:	0112 0200 0002 4000 1a86 fe0c 0001 0201     .......@........
    4a3c:	0103 0000                                   ....

00004a40 <MyCfgDescr_FS>:
    4a40:	0209 0043 0102 8000 0932 0004 0100 0202     ..C.....2.......
    4a50:	0001 2405 1000 0501 0124 0100 2404 0202     ...$....$....$..
    4a60:	2405 0006 0701 8305 4003 0100 0409 0001     .$.......@......
    4a70:	0a02 0000 0700 0205 4002 0000 0507 0282     .........@......
    4a80:	0040 0000                                   @...

00004a84 <MyCfgDescr_HS>:
    4a84:	0209 0043 0102 8000 0932 0004 0100 0202     ..C.....2.......
    4a94:	0001 2405 1000 0501 0124 0100 2404 0202     ...$....$....$..
    4aa4:	2405 0006 0701 8305 4003 0100 0409 0001     .$.......@......
    4ab4:	0a02 0000 0700 0205 0002 0002 0507 0282     ................
    4ac4:	0200 0000                                   ....

00004ac8 <MyManuInfo>:
    4ac8:	030e 0077 0063 0068 002e 0063 006e 0000     ..w.c.h...c.n...

00004ad8 <MyProdInfo>:
    4ad8:	0316 0055 0053 0042 0020 0053 0065 0072     ..U.S.B. .S.e.r.
    4ae8:	0069 0061 006c 0000                         i.a.l...

00004af0 <MySerNumInfo>:
    4af0:	0316 0030 0031 0032 0033 0034 0035 0036     ..0.1.2.3.4.5.6.
    4b00:	0037 0038 0039 0000                         7.8.9...

00004b08 <MyQuaDesc>:
    4b08:	060a 0200 ffff 40ff 0001 0000               .......@....

00004b14 <__sf_fake_stderr>:
	...

00004b34 <__sf_fake_stdin>:
	...

00004b54 <__sf_fake_stdout>:
	...
    4b74:	2d23 2b30 0020 0000 6c68 004c 6665 4567     #-0+ ...hlL.efgE
    4b84:	4746 0000 3130 3332 3534 3736 3938 4241     FG..0123456789AB
    4b94:	4443 4645 0000 0000 3130 3332 3534 3736     CDEF....01234567
    4ba4:	3938 6261 6463 6665 0000 0000               89abcdef....
