
C:/MounRiver/projects/SimulateCDC_DAC/build/SimulateCDC_Dac.elf:     file format elf32-littleriscv
C:/MounRiver/projects/SimulateCDC_DAC/build/SimulateCDC_Dac.elf
architecture: riscv:rv32, flags 0x00000112:
EXEC_P, HAS_SYMS, D_PAGED
start address 0x00000000

Program Header:
0x70000003 off    0x00026f72 vaddr 0x00000000 paddr 0x00000000 align 2**0
         filesz 0x00000039 memsz 0x00000000 flags r--
    LOAD off    0x00001000 vaddr 0x00000000 paddr 0x00000000 align 2**12
         filesz 0x00003268 memsz 0x00003268 flags r-x
    LOAD off    0x00005000 vaddr 0x20000000 paddr 0x00003268 align 2**12
         filesz 0x00000528 memsz 0x000025f0 flags rw-
    LOAD off    0x00000800 vaddr 0x20007800 paddr 0x20007800 align 2**12
         filesz 0x00000000 memsz 0x00000800 flags rw-

Sections:
Idx Name          Size      VMA       LMA       File off  Algn
  0 .init         00000004  00000000  00000000  00001000  2**1
                  CONTENTS, ALLOC, LOAD, READONLY, CODE
  1 .vector       000001bc  00000004  00000004  00001004  2**1
                  CONTENTS, ALLOC, LOAD, READONLY, CODE
  2 .text         000030a8  000001c0  000001c0  000011c0  2**2
                  CONTENTS, ALLOC, LOAD, READONLY, CODE
  3 .fini         00000000  00003268  00003268  00005528  2**0
                  CONTENTS, ALLOC, LOAD, CODE
  4 .dalign       00000000  20000000  20000000  00005528  2**0
                  CONTENTS
  5 .dlalign      00000000  00003268  00003268  00005528  2**0
                  CONTENTS
  6 .data         00000528  20000000  00003268  00005000  2**2
                  CONTENTS, ALLOC, LOAD, DATA
  7 .bss          000020c8  20000528  00003790  00005528  2**2
                  ALLOC
  8 .stack        00000800  20007800  20007800  00005800  2**0
                  ALLOC
  9 .debug_info   0000baae  00000000  00000000  00005528  2**0
                  CONTENTS, READONLY, DEBUGGING, OCTETS
 10 .debug_abbrev 000020ba  00000000  00000000  00010fd6  2**0
                  CONTENTS, READONLY, DEBUGGING, OCTETS
 11 .debug_loclists 00003742  00000000  00000000  00013090  2**0
                  CONTENTS, READONLY, DEBUGGING, OCTETS
 12 .debug_aranges 00000960  00000000  00000000  000167d8  2**3
                  CONTENTS, READONLY, DEBUGGING, OCTETS
 13 .debug_rnglists 00000997  00000000  00000000  00017138  2**0
                  CONTENTS, READONLY, DEBUGGING, OCTETS
 14 .debug_line   0000b7e9  00000000  00000000  00017acf  2**0
                  CONTENTS, READONLY, DEBUGGING, OCTETS
 15 .debug_str    000034d5  00000000  00000000  000232b8  2**0
                  CONTENTS, READONLY, DEBUGGING, OCTETS
 16 .debug_line_str 000007b4  00000000  00000000  0002678d  2**0
                  CONTENTS, READONLY, DEBUGGING, OCTETS
 17 .comment      00000031  00000000  00000000  00026f41  2**0
                  CONTENTS, READONLY
 18 .riscv.attributes 00000039  00000000  00000000  00026f72  2**0
                  CONTENTS, READONLY
 19 .debug_frame  00001434  00000000  00000000  00026fac  2**2
                  CONTENTS, READONLY, DEBUGGING, OCTETS
SYMBOL TABLE:
00000000 l    d  .init	00000000 .init
00000004 l    d  .vector	00000000 .vector
000001c0 l    d  .text	00000000 .text
00003268 l    d  .fini	00000000 .fini
20000000 l    d  .dalign	00000000 .dalign
00003268 l    d  .dlalign	00000000 .dlalign
20000000 l    d  .data	00000000 .data
20000528 l    d  .bss	00000000 .bss
20007800 l    d  .stack	00000000 .stack
00000000 l    d  .debug_info	00000000 .debug_info
00000000 l    d  .debug_abbrev	00000000 .debug_abbrev
00000000 l    d  .debug_loclists	00000000 .debug_loclists
00000000 l    d  .debug_aranges	00000000 .debug_aranges
00000000 l    d  .debug_rnglists	00000000 .debug_rnglists
00000000 l    d  .debug_line	00000000 .debug_line
00000000 l    d  .debug_str	00000000 .debug_str
00000000 l    d  .debug_line_str	00000000 .debug_line_str
00000000 l    d  .comment	00000000 .comment
00000000 l    d  .riscv.attributes	00000000 .riscv.attributes
00000000 l    d  .debug_frame	00000000 .debug_frame
00000000 l    df *ABS*	00000000 startup_ch32v30x_D8C.S.obj
00000004 l       .vector	00000000 _vector_base
00000000 l    df *ABS*	00000000 lib_a-memcpy-asm.o
00000000 l    df *ABS*	00000000 lib_a-memset.o
00000000 l    df *ABS*	00000000 debug.c
2000052a l     O .bss	00000001 p_us
20000528 l     O .bss	00000002 p_ms
20000508 l     O .data	00000004 curbrk.0
00000000 l    df *ABS*	00000000 ch32v30x_dac.c
00000000 l    df *ABS*	00000000 ch32v30x_dma.c
00000000 l    df *ABS*	00000000 ch32v30x_gpio.c
00000000 l    df *ABS*	00000000 ch32v30x_misc.c
00000000 l    df *ABS*	00000000 ch32v30x_rcc.c
20000000 l     O .data	00000010 APBAHBPrescTable
2000050c l     O .data	00000004 ADCPrescTable
00000000 l    df *ABS*	00000000 ch32v30x_tim.c
00000000 l    df *ABS*	00000000 ch32v30x_usart.c
00000000 l    df *ABS*	00000000 UART.c
00000000 l    df *ABS*	00000000 ch32v30x_usbhs_device.c
00000000 l    df *ABS*	00000000 cdc_func.c
00000000 l    df *ABS*	00000000 ch32v30x_it.c
2000054f l     O .bss	00000001 tog.0
00000000 l    df *ABS*	00000000 main.c
00000000 l    df *ABS*	00000000 system_ch32v30x.c
0000228e l     F .text	000000b6 SetSysClockTo144_HSE
00002344 l     F .text	0000000c SetSysClock
00000000 l    df *ABS*	00000000 lib_a-puts.o
00000000 l    df *ABS*	00000000 lib_a-wbuf.o
00000000 l    df *ABS*	00000000 lib_a-wsetup.o
00000000 l    df *ABS*	00000000 lib_a-fflush.o
00000000 l    df *ABS*	00000000 lib_a-findfp.o
00002950 l     F .text	0000006a std
00000000 l    df *ABS*	00000000 lib_a-fwalk.o
00000000 l    df *ABS*	00000000 lib_a-lock.o
00000000 l    df *ABS*	00000000 lib_a-makebuf.o
00000000 l    df *ABS*	00000000 lib_a-nano-freer.o
00000000 l    df *ABS*	00000000 lib_a-nano-mallocr.o
00002d3a l     F .text	00000054 sbrk_aligned
00000000 l    df *ABS*	00000000 lib_a-sbrkr.o
00000000 l    df *ABS*	00000000 lib_a-stdio.o
00000000 l    df *ABS*	00000000 lib_a-writer.o
00000000 l    df *ABS*	00000000 lib_a-closer.o
00000000 l    df *ABS*	00000000 lib_a-fstatr.o
00000000 l    df *ABS*	00000000 lib_a-isattyr.o
00000000 l    df *ABS*	00000000 lib_a-lseekr.o
00000000 l    df *ABS*	00000000 lib_a-mlock.o
00000000 l    df *ABS*	00000000 lib_a-readr.o
00000000 l    df *ABS*	00000000 close.o
00000000 l    df *ABS*	00000000 fstat.o
00000000 l    df *ABS*	00000000 isatty.o
00000000 l    df *ABS*	00000000 lseek.o
00000000 l    df *ABS*	00000000 read.o
00000000 l    df *ABS*	00000000 usb_desc.c
00000000 l    df *ABS*	00000000 lib_a-impure.o
200004a8 l     O .data	00000060 impure_data
00000e9e  w      .text	00000000 EXTI2_IRQHandler
00000e9e  w      .text	00000000 TIM8_TRG_COM_IRQHandler
00000e9e  w      .text	00000000 TIM8_CC_IRQHandler
00002ff2 g     F .text	00000026 _isatty_r
00003114 g     O .text	00000016 MySerNumInfo
000024c0 g     F .text	0000010e _puts_r
00003018 g     F .text	0000002a _lseek_r
00000650 g     F .text	00000018 DMA_Cmd
00000e9e  w      .text	00000000 UART8_IRQHandler
20000548 g     O .bss	00000004 pUSBHS_Descr
20000d08 g       .data	00000000 __global_pointer$
00000e9e  w      .text	00000000 TIM1_CC_IRQHandler
00002f3c g     F .text	00000036 __sseek
00002a22 g     F .text	00000068 __sinit
000025d6 g     F .text	000000c0 __swbuf_r
00001f94 g     F .text	00000036 HardFault_Handler
20000568 g     O .bss	00000800 UART2_Rx_Buf
000029c4 g     F .text	00000046 __sfmoreglue
0000304a g     F .text	00000008 __malloc_unlock
00000e9e  w      .text	00000000 TIM6_IRQHandler
00000e9e  w      .text	00000000 SysTick_Handler
00000e9e  w      .text	00000000 PVD_IRQHandler
00000e9e  w      .text	00000000 SDIO_IRQHandler
00000e9e  w      .text	00000000 TIM9_BRK_IRQHandler
00000e9e  w      .text	00000000 DMA2_Channel8_IRQHandler
00001e34 g     F .text	00000004 NMI_Handler
00000a9e g     F .text	00000024 RCC_USBHSPHYPLLALIVEcmd
00000e9e  w      .text	00000000 CAN2_RX1_IRQHandler
00000e9e  w      .text	00000000 EXTI3_IRQHandler
00000d08 g     F .text	0000001e TIM_DMACmd
0000146a g     F .text	00000970 USBHS_IRQHandler
2000053a g     O .bss	00000001 USBHS_DevSpeed
00000e80 g     F .text	00000010 USART_GetFlagStatus
00000e9e  w      .text	00000000 DMA2_Channel9_IRQHandler
00002fca g     F .text	00000028 _fstat_r
00000e9e  w      .text	00000000 TIM10_CC_IRQHandler
20000564 g     O .bss	00000004 errno
20000054 g     O .data	00000043 TAB_USB_FS_OSC_DESC
20000528 g       .bss	00000000 _sbss
00000800 g       *ABS*	00000000 __stack_size
0000024a g     F .text	00000064 USART_Printf_Init
000005ea g     F .text	00000038 DMA_Init
00000e9e  w      .text	00000000 USBFS_IRQHandler
00000ac2 g     F .text	0000001a RCC_USBCLK48MConfig
200015a4 g     O .bss	00000040 USBHS_EP0_Buf
000031dc g     O .text	00000012 MyDevDescr
000001c0 g     F .text	00000016 memcpy
000029ba g     F .text	0000000a _cleanup_r
00000e9e  w      .text	00000000 EXTI0_IRQHandler
00000e9e  w      .text	00000000 I2C2_EV_IRQHandler
00000e9e  w      .text	00000000 TIM10_TRG_COM_IRQHandler
00000cc6 g     F .text	00000024 TIM_Cmd
000025ce g     F .text	00000008 puts
20000518 g     O .data	00000004 SystemCoreClock
2000053f g     O .bss	00000001 USBHS_DevConfig
00000d6c g     F .text	0000000e TIM_ClearFlag
20000010 g     O .data	00000043 TAB_USB_HS_OSC_DESC
00003088 g     F .text	0000000c _fstat
00000004 g       .init	00000000 _einit
00000a6a g     F .text	0000001a RCC_USBHSPLLCLKConfig
0000118c g     F .text	000000c2 UART2_DMAInit
20000546 g     O .bss	00000001 USBHS_SetupReqType
000009d8 g     F .text	0000001e RCC_APB2PeriphClockCmd
20000514 g     O .data	00000002 cnt
00000e9e  w      .text	00000000 CAN2_SCE_IRQHandler
00000e9e  w      .text	00000000 ADC1_2_IRQHandler
00000708 g     F .text	000000d8 GPIO_Init
00000e9e  w      .text	00000000 Break_Point_Handler
2000052c g     O .bss	00000004 NVIC_Priority_Group
00000e9e  w      .text	00000000 SPI1_IRQHandler
00000e34 g     F .text	00000024 USART_Cmd
00002e96 g     F .text	00000028 _sbrk_r
0000124e g     F .text	00000086 UART2_Init
00000e9e  w      .text	00000000 TAMPER_IRQHandler
20000520 g     O .data	00000004 MyLangDescr
00003052 g     F .text	0000002a _read_r
00000e9e  w      .text	00000000 CAN2_RX0_IRQHandler
200025e4 g     O .bss	0000000a TIM_TimeBaseInitStructure
000006dc g     F .text	0000002c DMA_ClearITPendingBit
000020ea g     F .text	000000bc TIM1_PWM_In
00000e9e  w      .text	00000000 TIM8_UP_IRQHandler
00000adc g     F .text	00000116 TIM_DeInit
000009f6 g     F .text	0000001e RCC_APB1PeriphClockCmd
00000e9e  w      .text	00000000 Ecall_M_Mode_Handler
20000534 g     O .bss	00000004 UARTx_Rx_DMACurCount
20007800 g       .stack	00000000 _heap_end
00003094 g     F .text	0000000c _isatty
20000558 g     O .bss	00000001 __lock___sinit_recursive_mutex
0000020c g     F .text	0000003e Delay_Us
20000524 g     O .data	00000004 _global_impure_ptr
200015e4 g     O .bss	00000800 USB_rx_Buf
00000e9e  w      .text	00000000 DMA2_Channel2_IRQHandler
000009ba g     F .text	0000001e RCC_AHBPeriphClockCmd
00000e9e  w      .text	00000000 DMA1_Channel4_IRQHandler
2000054e g     O .bss	00000001 usb_rx_flg1
00000304 g     F .text	00000036 _sbrk
00003144 g     O .text	0000000e MyManuInfo
20000544 g     O .bss	00000002 USBHS_SetupReqValue
20000542 g     O .bss	00000002 USBHS_SetupReqIndex
00000622 g     F .text	0000002e DMA_StructInit
2000053e g     O .bss	00000001 USBHS_DevAddr
00000e9e  w      .text	00000000 TIM9_UP_IRQHandler
0000067e g     F .text	00000032 DMA_GetFlagStatus
00000e9e  w      .text	00000000 USART3_IRQHandler
00000e9e  w      .text	00000000 RTC_IRQHandler
200025f0 g       .bss	00000000 _ebss
00000e9e  w      .text	00000000 DMA1_Channel7_IRQHandler
00000a84 g     F .text	0000001a RCC_USBHSPLLCKREFCLKConfig
00000e9e  w      .text	00000000 CAN1_RX1_IRQHandler
000001e6 g     F .text	00000026 Delay_Init
00000e9e  w      .text	00000000 DVP_IRQHandler
00000e9e  w      .text	00000000 UART5_IRQHandler
20000550 g     O .bss	00000001 __lock___malloc_recursive_mutex
000007e0 g     F .text	00000004 GPIO_SetBits
00000e9e  w      .text	00000000 TIM4_IRQHandler
00000d26 g     F .text	00000026 TIM_ARRPreloadConfig
00000e9e  w      .text	00000000 DMA2_Channel1_IRQHandler
00003208 g     O .text	00000020 __sf_fake_stderr
00000e9e  w      .text	00000000 I2C1_EV_IRQHandler
00002b9e g     F .text	00000002 __retarget_lock_release_recursive
0000132e g     F .text	00000034 USBHS_RCC_Init
2000054c g     O .bss	00000002 usb_rx_len
00002076 g     F .text	00000074 Dac_Init
000007ea g     F .text	000001d0 RCC_GetClocksFreq
00000e9e  w      .text	00000000 DMA1_Channel6_IRQHandler
00000e9e  w      .text	00000000 UART4_IRQHandler
00001ea8 g     F .text	000000ec DMA2_Channel4_IRQHandler
00002a0a g     F .text	00000006 __sfp_lock_acquire
00000d7a g     F .text	000000ba USART_Init
00002c9c g     F .text	0000009e _free_r
00000e9e  w      .text	00000000 TIM3_IRQHandler
00000e9e  w      .text	00000000 RCC_IRQHandler
20001168 g     O .bss	0000002a Uart
20000547 g     O .bss	00000001 USBHS_SetupReqCode
00003108 g     O .text	0000000a MyQuaDesc
00000e9e  w      .text	00000000 TIM1_TRG_COM_IRQHandler
00000e9e  w      .text	00000000 DMA1_Channel1_IRQHandler
00000000 g       .init	00000000 _start
00000e9e  w      .text	00000000 DMA2_Channel7_IRQHandler
20000498 g     O .data	00000010 AHBPrescTable
000030a0 g     F .text	0000000c _lseek
20000510 g     O .data	00000002 down_Time_period
00000e9e  w      .text	00000000 EXTI15_10_IRQHandler
00000cea g     F .text	0000001e TIM_ITConfig
20000098 g     O .data	00000400 buffer
00000a50 g     F .text	0000001a RCC_USBHSConfig
0000039c g     F .text	0000001e DAC_SetChannel1Data
200013a4 g     O .bss	00000200 USBHS_EP2_Tx_Buf
00000d4c g     F .text	00000020 TIM_SelectOutputTrigger
00000e9e  w      .text	00000000 TIM7_IRQHandler
00002fa4 g     F .text	00000026 _close_r
00000e9e  w      .text	00000000 CAN2_TX_IRQHandler
20000000 g       .dalign	00000000 _data_vma
00000e9e  w      .text	00000000 TIM5_IRQHandler
00003154 g     O .text	00000043 MyCfgDescr_HS
000013e8 g     F .text	00000082 USBHS_Device_Init
00002696 g     F .text	000000fa __swsetup_r
00000e9e  w      .text	00000000 EXTI9_5_IRQHandler
00002a8a g     F .text	000000a6 __sfp
00002a1c g     F .text	00000006 __sinit_lock_release
00002ebe g     F .text	00000030 __sread
00000e9e  w      .text	00000000 ETH_WKUP_IRQHandler
00003042 g     F .text	00000008 __malloc_lock
000028c8 g     F .text	00000088 _fflush_r
00000e9e  w      .text	00000000 SPI2_IRQHandler
2000053c g     O .bss	00000002 USBHS_DevMaxPackLen
00003248 g     O .text	00000020 __sf_fake_stdin
000010ee g     F .text	0000009e UART2_ParaInit
00002b9c g     F .text	00000002 __retarget_lock_acquire_recursive
000001d6 g     F .text	00000010 memset
000021a6 g     F .text	000000e8 main
00000e9e  w      .text	00000000 TIM10_BRK_IRQHandler
00002b9a g     F .text	00000002 __retarget_lock_init_recursive
000012d4 g     F .text	0000005a UART2_USB_Init
00000e9e  w      .text	00000000 TIM9_CC_IRQHandler
00002f72 g     F .text	00000006 __sclose
00000e9e  w      .text	00000000 DMA2_Channel5_IRQHandler
00002d8e g     F .text	00000108 _malloc_r
00000e9e  w      .text	00000000 DMA1_Channel5_IRQHandler
00000e9e  w      .text	00000000 EXTI4_IRQHandler
00000e9e  w      .text	00000000 USB_LP_CAN1_RX0_IRQHandler
0000312c g     O .text	00000016 MyProdInfo
00000e90 g     F .text	0000000e USART_ClearFlag
00003198 g     O .text	00000043 MyCfgDescr_FS
00002350 g     F .text	0000005c SystemInit
00000e9e  w      .text	00000000 RNG_IRQHandler
20000540 g     O .bss	00000002 USBHS_SetupReqLen
00000f2c g     F .text	00000026 RCC_Configuration
20000539 g     O .bss	00000001 USBHS_DevSleepStatus
00000e9e  w      .text	00000000 USB_HP_CAN1_TX_IRQHandler
00000000 g       .init	00000000 _sinit
00002f78 g     F .text	0000002c _write_r
20000512 g     O .data	00000002 up_Time_period
00000e9e  w      .text	00000000 DMA1_Channel3_IRQHandler
00000e9e  w      .text	00000000 ETH_IRQHandler
2000051c g     O .data	00000004 _impure_ptr
00000e9e  w      .text	00000000 TIM1_UP_IRQHandler
00002790 g     F .text	00000138 __sflush_r
200011a4 g     O .bss	00000200 USBHS_EP3_Tx_Buf
00000e9e  w      .text	00000000 WWDG_IRQHandler
00000e9e  w      .text	00000000 USBHSWakeup_IRQHandler
00000e9e  w      .text	00000000 DMA2_Channel11_IRQHandler
00000a32 g     F .text	0000001e RCC_APB1PeriphResetCmd
00000e9e  w      .text	00000000 Ecall_U_Mode_Handler
00000668 g     F .text	00000016 DMA_ITConfig
00000e9e  w      .text	00000000 DMA2_Channel6_IRQHandler
00001e38 g     F .text	00000070 TIM2_IRQHandler
20008000 g       .stack	00000000 _eusrstack
00000e9e  w      .text	00000000 SW_Handler
00000e9e  w      .text	00000000 TIM1_BRK_IRQHandler
00002ba0 g     F .text	0000005a __swhatbuf_r
00000e76 g     F .text	0000000a USART_SendData
00000e9e  w      .text	00000000 DMA2_Channel10_IRQHandler
00000e9e  w      .text	00000000 EXTI1_IRQHandler
000002ae g     F .text	00000056 _write
20000528 g       .data	00000000 _edata
200025f0 g       .bss	00000000 _end
0000036a g     F .text	00000032 DAC_Cmd
00000bf2 g     F .text	000000d4 TIM_TimeBaseInit
00000e9e  w      .text	00000000 RTCAlarm_IRQHandler
00001362 g     F .text	00000086 USBHS_Device_Endp_Init
20000d68 g     O .bss	00000400 UART2_Tx_Buf
00003268 g       .dlalign	00000000 _data_lma
00000e9e  w      .text	00000000 TIM10_UP_IRQHandler
00000e9e  w      .text	00000000 TIM9_TRG_COM_IRQHandler
00000e9e  w      .text	00000000 UART7_IRQHandler
0000033a g     F .text	00000030 DAC_Init
00000e9e  w      .text	00000000 USART2_IRQHandler
00000e9e  w      .text	00000000 UART6_IRQHandler
00002eee g     F .text	0000004e __swrite
00001dda g     F .text	0000005a usb_send
00002b30 g     F .text	0000006a _fwalk_reent
000023ac g     F .text	00000114 SystemCoreClockUpdate
00000e9e  w      .text	00000000 I2C2_ER_IRQHandler
00000e9e  w      .text	00000000 DMA1_Channel2_IRQHandler
00002a10 g     F .text	00000006 __sfp_lock_release
00003228 g     O .text	00000020 __sf_fake_stdout
20000530 g     O .bss	00000004 UARTx_Rx_DMALastCount
00000e9e  w      .text	00000000 TIM8_BRK_IRQHandler
000006b0 g     F .text	0000002c DMA_ClearFlag
000030ac g     F .text	0000000c _read
00000ea0  w      .text	00000000 handle_reset
00000e9e  w      .text	00000000 CAN1_SCE_IRQHandler
00000e9e  w      .text	00000000 FLASH_IRQHandler
20001de4 g     O .bss	00000800 USB_tx_Buf
00000f52 g     F .text	0000006a TIM2_Init
00000e9e  w      .text	00000000 USART1_IRQHandler
00002bfa g     F .text	000000a2 __smakebuf_r
00001fca g     F .text	000000ac DMA2_CH4_Init
00000e9e  w      .text	00000000 SPI3_IRQHandler
2000055c g     O .bss	00000004 __malloc_sbrk_start
00000a14 g     F .text	0000001e RCC_APB2PeriphResetCmd
00000e9e  w      .text	00000000 I2C1_ER_IRQHandler
000007e4 g     F .text	00000006 NVIC_PriorityGroupConfig
000003ba g     F .text	00000230 DMA_DeInit
20000538 g     O .bss	00000001 USBHS_DevEnumStatus
00000fbc g     F .text	00000132 UART2_CfgInit
20000560 g     O .bss	00000004 __malloc_free_list
20001194 g     O .bss	00000010 USBHS_Endp_Busy
00000e58 g     F .text	0000001e USART_DMACmd
00000e9e  w      .text	00000000 USBWakeUp_IRQHandler
20000554 g     O .bss	00000001 __lock___sfp_recursive_mutex
0000307c g     F .text	0000000c _close
00002a16 g     F .text	00000006 __sinit_lock_acquire
00000e9e  w      .text	00000000 DMA2_Channel3_IRQHandler



Disassembly of section .init:

00000000 <_sinit>:
   0:	6a10006f          	j	ea0 <handle_reset>

Disassembly of section .vector:

00000004 <_vector_base>:
	...
   c:	00001e34          	.word	0x00001e34
  10:	00001f94          	.word	0x00001f94
  14:	00000000          	.word	0x00000000
  18:	00000e9e          	.word	0x00000e9e
	...
  24:	00000e9e          	.word	0x00000e9e
  28:	00000e9e          	.word	0x00000e9e
	...
  34:	00000e9e          	.word	0x00000e9e
  38:	00000000          	.word	0x00000000
  3c:	00000e9e          	.word	0x00000e9e
  40:	00000000          	.word	0x00000000
  44:	00000e9e          	.word	0x00000e9e
  48:	00000e9e          	.word	0x00000e9e
  4c:	00000e9e          	.word	0x00000e9e
  50:	00000e9e          	.word	0x00000e9e
  54:	00000e9e          	.word	0x00000e9e
  58:	00000e9e          	.word	0x00000e9e
  5c:	00000e9e          	.word	0x00000e9e
  60:	00000e9e          	.word	0x00000e9e
  64:	00000e9e          	.word	0x00000e9e
  68:	00000e9e          	.word	0x00000e9e
  6c:	00000e9e          	.word	0x00000e9e
  70:	00000e9e          	.word	0x00000e9e
  74:	00000e9e          	.word	0x00000e9e
  78:	00000e9e          	.word	0x00000e9e
  7c:	00000e9e          	.word	0x00000e9e
  80:	00000e9e          	.word	0x00000e9e
  84:	00000e9e          	.word	0x00000e9e
  88:	00000e9e          	.word	0x00000e9e
  8c:	00000e9e          	.word	0x00000e9e
  90:	00000e9e          	.word	0x00000e9e
  94:	00000e9e          	.word	0x00000e9e
  98:	00000e9e          	.word	0x00000e9e
  9c:	00000e9e          	.word	0x00000e9e
  a0:	00000e9e          	.word	0x00000e9e
  a4:	00000e9e          	.word	0x00000e9e
  a8:	00000e9e          	.word	0x00000e9e
  ac:	00000e9e          	.word	0x00000e9e
  b0:	00000e9e          	.word	0x00000e9e
  b4:	00001e38          	.word	0x00001e38
  b8:	00000e9e          	.word	0x00000e9e
  bc:	00000e9e          	.word	0x00000e9e
  c0:	00000e9e          	.word	0x00000e9e
  c4:	00000e9e          	.word	0x00000e9e
  c8:	00000e9e          	.word	0x00000e9e
  cc:	00000e9e          	.word	0x00000e9e
  d0:	00000e9e          	.word	0x00000e9e
  d4:	00000e9e          	.word	0x00000e9e
  d8:	00000e9e          	.word	0x00000e9e
  dc:	00000e9e          	.word	0x00000e9e
  e0:	00000e9e          	.word	0x00000e9e
  e4:	00000e9e          	.word	0x00000e9e
  e8:	00000e9e          	.word	0x00000e9e
  ec:	00000e9e          	.word	0x00000e9e
  f0:	00000e9e          	.word	0x00000e9e
  f4:	00000e9e          	.word	0x00000e9e
  f8:	00000e9e          	.word	0x00000e9e
  fc:	00000e9e          	.word	0x00000e9e
 100:	00000e9e          	.word	0x00000e9e
 104:	00000000          	.word	0x00000000
 108:	00000e9e          	.word	0x00000e9e
 10c:	00000e9e          	.word	0x00000e9e
 110:	00000e9e          	.word	0x00000e9e
 114:	00000e9e          	.word	0x00000e9e
 118:	00000e9e          	.word	0x00000e9e
 11c:	00000e9e          	.word	0x00000e9e
 120:	00000e9e          	.word	0x00000e9e
 124:	00000e9e          	.word	0x00000e9e
 128:	00000e9e          	.word	0x00000e9e
 12c:	00000e9e          	.word	0x00000e9e
 130:	00001ea8          	.word	0x00001ea8
 134:	00000e9e          	.word	0x00000e9e
 138:	00000e9e          	.word	0x00000e9e
 13c:	00000e9e          	.word	0x00000e9e
 140:	00000e9e          	.word	0x00000e9e
 144:	00000e9e          	.word	0x00000e9e
 148:	00000e9e          	.word	0x00000e9e
 14c:	00000e9e          	.word	0x00000e9e
 150:	00000e9e          	.word	0x00000e9e
 154:	00000e9e          	.word	0x00000e9e
 158:	0000146a          	.word	0x0000146a
 15c:	00000e9e          	.word	0x00000e9e
 160:	00000e9e          	.word	0x00000e9e
 164:	00000e9e          	.word	0x00000e9e
 168:	00000e9e          	.word	0x00000e9e
 16c:	00000e9e          	.word	0x00000e9e
 170:	00000e9e          	.word	0x00000e9e
 174:	00000e9e          	.word	0x00000e9e
 178:	00000e9e          	.word	0x00000e9e
 17c:	00000e9e          	.word	0x00000e9e
 180:	00000e9e          	.word	0x00000e9e
 184:	00000e9e          	.word	0x00000e9e
 188:	00000e9e          	.word	0x00000e9e
 18c:	00000e9e          	.word	0x00000e9e
 190:	00000e9e          	.word	0x00000e9e
 194:	00000e9e          	.word	0x00000e9e
 198:	00000e9e          	.word	0x00000e9e
 19c:	00000e9e          	.word	0x00000e9e
 1a0:	00000e9e          	.word	0x00000e9e
	...

Disassembly of section .text:

000001c0 <memcpy>:
     1c0:	832a                	mv	t1,a0
     1c2:	ca09                	beqz	a2,1d4 <memcpy+0x14>
     1c4:	00058383          	lb	t2,0(a1)
     1c8:	00730023          	sb	t2,0(t1)
     1cc:	167d                	addi	a2,a2,-1
     1ce:	0305                	addi	t1,t1,1
     1d0:	0585                	addi	a1,a1,1
     1d2:	fa6d                	bnez	a2,1c4 <memcpy+0x4>
     1d4:	8082                	ret

000001d6 <memset>:
     1d6:	832a                	mv	t1,a0
     1d8:	c611                	beqz	a2,1e4 <memset+0xe>
     1da:	00b30023          	sb	a1,0(t1)
     1de:	167d                	addi	a2,a2,-1
     1e0:	0305                	addi	t1,t1,1
     1e2:	fe65                	bnez	a2,1da <memset+0x4>
     1e4:	8082                	ret

000001e6 <Delay_Init>:
     1e6:	8101a783          	lw	a5,-2032(gp) # 20000518 <SystemCoreClock>
     1ea:	007a1737          	lui	a4,0x7a1
     1ee:	20070713          	addi	a4,a4,512 # 7a1200 <_data_lma+0x79df98>
     1f2:	02e7d7b3          	divu	a5,a5,a4
     1f6:	0ff7f793          	zext.b	a5,a5
     1fa:	82f18123          	sb	a5,-2014(gp) # 2000052a <p_us>
     1fe:	3e800713          	li	a4,1000
     202:	02e787b3          	mul	a5,a5,a4
     206:	82f19023          	sh	a5,-2016(gp) # 20000528 <p_ms>
     20a:	8082                	ret

0000020c <Delay_Us>:
     20c:	e000f7b7          	lui	a5,0xe000f
     210:	43d8                	lw	a4,4(a5)
     212:	9b79                	andi	a4,a4,-2
     214:	c3d8                	sw	a4,4(a5)
     216:	8221c703          	lbu	a4,-2014(gp) # 2000052a <p_us>
     21a:	02a70633          	mul	a2,a4,a0
     21e:	4681                	li	a3,0
     220:	cb90                	sw	a2,16(a5)
     222:	cbd4                	sw	a3,20(a5)
     224:	4398                	lw	a4,0(a5)
     226:	01076713          	ori	a4,a4,16
     22a:	c398                	sw	a4,0(a5)
     22c:	4398                	lw	a4,0(a5)
     22e:	02176713          	ori	a4,a4,33
     232:	c398                	sw	a4,0(a5)
     234:	e000f7b7          	lui	a5,0xe000f
     238:	43dc                	lw	a5,4(a5)
     23a:	8b85                	andi	a5,a5,1
     23c:	dfe5                	beqz	a5,234 <Delay_Us+0x28>
     23e:	e000f737          	lui	a4,0xe000f
     242:	431c                	lw	a5,0(a4)
     244:	9bf9                	andi	a5,a5,-2
     246:	c31c                	sw	a5,0(a4)
     248:	8082                	ret

0000024a <USART_Printf_Init>:
     24a:	7179                	addi	sp,sp,-48
     24c:	d606                	sw	ra,44(sp)
     24e:	d422                	sw	s0,40(sp)
     250:	842a                	mv	s0,a0
     252:	4585                	li	a1,1
     254:	6511                	lui	a0,0x4
     256:	0511                	addi	a0,a0,4 # 4004 <_data_lma+0xd9c>
     258:	2741                	jal	9d8 <RCC_APB2PeriphClockCmd>
     25a:	20000793          	li	a5,512
     25e:	00f11a23          	sh	a5,20(sp)
     262:	478d                	li	a5,3
     264:	cc3e                	sw	a5,24(sp)
     266:	47e1                	li	a5,24
     268:	ce3e                	sw	a5,28(sp)
     26a:	084c                	addi	a1,sp,20
     26c:	40011537          	lui	a0,0x40011
     270:	80050513          	addi	a0,a0,-2048 # 40010800 <_eusrstack+0x20008800>
     274:	2951                	jal	708 <GPIO_Init>
     276:	c222                	sw	s0,4(sp)
     278:	00011423          	sh	zero,8(sp)
     27c:	00011523          	sh	zero,10(sp)
     280:	00011623          	sh	zero,12(sp)
     284:	00011823          	sh	zero,16(sp)
     288:	47a1                	li	a5,8
     28a:	00f11723          	sh	a5,14(sp)
     28e:	004c                	addi	a1,sp,4
     290:	40014437          	lui	s0,0x40014
     294:	80040513          	addi	a0,s0,-2048 # 40013800 <_eusrstack+0x2000b800>
     298:	2e3000ef          	jal	ra,d7a <USART_Init>
     29c:	4585                	li	a1,1
     29e:	80040513          	addi	a0,s0,-2048
     2a2:	393000ef          	jal	ra,e34 <USART_Cmd>
     2a6:	50b2                	lw	ra,44(sp)
     2a8:	5422                	lw	s0,40(sp)
     2aa:	6145                	addi	sp,sp,48
     2ac:	8082                	ret

000002ae <_write>:
     2ae:	1101                	addi	sp,sp,-32
     2b0:	ce06                	sw	ra,28(sp)
     2b2:	cc22                	sw	s0,24(sp)
     2b4:	ca26                	sw	s1,20(sp)
     2b6:	c84a                	sw	s2,16(sp)
     2b8:	c64e                	sw	s3,12(sp)
     2ba:	842e                	mv	s0,a1
     2bc:	89b2                	mv	s3,a2
     2be:	4481                	li	s1,0
     2c0:	a805                	j	2f0 <_write+0x42>
     2c2:	04000593          	li	a1,64
     2c6:	40014537          	lui	a0,0x40014
     2ca:	80050513          	addi	a0,a0,-2048 # 40013800 <_eusrstack+0x2000b800>
     2ce:	3b3000ef          	jal	ra,e80 <USART_GetFlagStatus>
     2d2:	d965                	beqz	a0,2c2 <_write+0x14>
     2d4:	00140913          	addi	s2,s0,1
     2d8:	00040583          	lb	a1,0(s0)
     2dc:	05c2                	slli	a1,a1,0x10
     2de:	81c1                	srli	a1,a1,0x10
     2e0:	40014537          	lui	a0,0x40014
     2e4:	80050513          	addi	a0,a0,-2048 # 40013800 <_eusrstack+0x2000b800>
     2e8:	38f000ef          	jal	ra,e76 <USART_SendData>
     2ec:	0485                	addi	s1,s1,1
     2ee:	844a                	mv	s0,s2
     2f0:	fd34c9e3          	blt	s1,s3,2c2 <_write+0x14>
     2f4:	854e                	mv	a0,s3
     2f6:	40f2                	lw	ra,28(sp)
     2f8:	4462                	lw	s0,24(sp)
     2fa:	44d2                	lw	s1,20(sp)
     2fc:	4942                	lw	s2,16(sp)
     2fe:	49b2                	lw	s3,12(sp)
     300:	6105                	addi	sp,sp,32
     302:	8082                	ret

00000304 <_sbrk>:
     304:	87aa                	mv	a5,a0
     306:	20000517          	auipc	a0,0x20000
     30a:	20252503          	lw	a0,514(a0) # 20000508 <curbrk.0>
     30e:	97aa                	add	a5,a5,a0
     310:	20002717          	auipc	a4,0x20002
     314:	2e070713          	addi	a4,a4,736 # 200025f0 <_ebss>
     318:	00e7ed63          	bltu	a5,a4,332 <_sbrk+0x2e>
     31c:	20007717          	auipc	a4,0x20007
     320:	4e470713          	addi	a4,a4,1252 # 20007800 <_heap_end>
     324:	00f76963          	bltu	a4,a5,336 <_sbrk+0x32>
     328:	20000717          	auipc	a4,0x20000
     32c:	1ef72023          	sw	a5,480(a4) # 20000508 <curbrk.0>
     330:	8082                	ret
     332:	557d                	li	a0,-1
     334:	8082                	ret
     336:	557d                	li	a0,-1
     338:	8082                	ret

0000033a <DAC_Init>:
     33a:	400076b7          	lui	a3,0x40007
     33e:	4006a783          	lw	a5,1024(a3) # 40007400 <_eusrstack+0x1ffff400>
     342:	6705                	lui	a4,0x1
     344:	1779                	addi	a4,a4,-2 # ffe <UART2_CfgInit+0x42>
     346:	00a71733          	sll	a4,a4,a0
     34a:	fff74713          	not	a4,a4
     34e:	8f7d                	and	a4,a4,a5
     350:	419c                	lw	a5,0(a1)
     352:	41d0                	lw	a2,4(a1)
     354:	8fd1                	or	a5,a5,a2
     356:	4590                	lw	a2,8(a1)
     358:	8fd1                	or	a5,a5,a2
     35a:	45d0                	lw	a2,12(a1)
     35c:	8fd1                	or	a5,a5,a2
     35e:	00a79533          	sll	a0,a5,a0
     362:	8d59                	or	a0,a0,a4
     364:	40a6a023          	sw	a0,1024(a3)
     368:	8082                	ret

0000036a <DAC_Cmd>:
     36a:	cd81                	beqz	a1,382 <DAC_Cmd+0x18>
     36c:	400076b7          	lui	a3,0x40007
     370:	4006a783          	lw	a5,1024(a3) # 40007400 <_eusrstack+0x1ffff400>
     374:	4705                	li	a4,1
     376:	00a71733          	sll	a4,a4,a0
     37a:	8fd9                	or	a5,a5,a4
     37c:	40f6a023          	sw	a5,1024(a3)
     380:	8082                	ret
     382:	400076b7          	lui	a3,0x40007
     386:	4006a703          	lw	a4,1024(a3) # 40007400 <_eusrstack+0x1ffff400>
     38a:	4785                	li	a5,1
     38c:	00a797b3          	sll	a5,a5,a0
     390:	fff7c793          	not	a5,a5
     394:	8ff9                	and	a5,a5,a4
     396:	40f6a023          	sw	a5,1024(a3)
     39a:	8082                	ret

0000039c <DAC_SetChannel1Data>:
     39c:	1141                	addi	sp,sp,-16
     39e:	c602                	sw	zero,12(sp)
     3a0:	400077b7          	lui	a5,0x40007
     3a4:	40078793          	addi	a5,a5,1024 # 40007400 <_eusrstack+0x1ffff400>
     3a8:	c63e                	sw	a5,12(sp)
     3aa:	47b2                	lw	a5,12(sp)
     3ac:	97aa                	add	a5,a5,a0
     3ae:	07a1                	addi	a5,a5,8
     3b0:	c63e                	sw	a5,12(sp)
     3b2:	47b2                	lw	a5,12(sp)
     3b4:	c38c                	sw	a1,0(a5)
     3b6:	0141                	addi	sp,sp,16
     3b8:	8082                	ret

000003ba <DMA_DeInit>:
     3ba:	411c                	lw	a5,0(a0)
     3bc:	6741                	lui	a4,0x10
     3be:	1779                	addi	a4,a4,-2 # fffe <_data_lma+0xcd96>
     3c0:	8ff9                	and	a5,a5,a4
     3c2:	c11c                	sw	a5,0(a0)
     3c4:	00052023          	sw	zero,0(a0)
     3c8:	00052223          	sw	zero,4(a0)
     3cc:	00052423          	sw	zero,8(a0)
     3d0:	00052623          	sw	zero,12(a0)
     3d4:	400207b7          	lui	a5,0x40020
     3d8:	07a1                	addi	a5,a5,8 # 40020008 <_eusrstack+0x20018008>
     3da:	0cf50863          	beq	a0,a5,4aa <DMA_DeInit+0xf0>
     3de:	400207b7          	lui	a5,0x40020
     3e2:	07f1                	addi	a5,a5,28 # 4002001c <_eusrstack+0x2001801c>
     3e4:	0cf50a63          	beq	a0,a5,4b8 <DMA_DeInit+0xfe>
     3e8:	400207b7          	lui	a5,0x40020
     3ec:	03078793          	addi	a5,a5,48 # 40020030 <_eusrstack+0x20018030>
     3f0:	0cf50b63          	beq	a0,a5,4c6 <DMA_DeInit+0x10c>
     3f4:	400207b7          	lui	a5,0x40020
     3f8:	04478793          	addi	a5,a5,68 # 40020044 <_eusrstack+0x20018044>
     3fc:	0cf50e63          	beq	a0,a5,4d8 <DMA_DeInit+0x11e>
     400:	400207b7          	lui	a5,0x40020
     404:	05878793          	addi	a5,a5,88 # 40020058 <_eusrstack+0x20018058>
     408:	0cf50f63          	beq	a0,a5,4e6 <DMA_DeInit+0x12c>
     40c:	400207b7          	lui	a5,0x40020
     410:	06c78793          	addi	a5,a5,108 # 4002006c <_eusrstack+0x2001806c>
     414:	0ef50163          	beq	a0,a5,4f6 <DMA_DeInit+0x13c>
     418:	400207b7          	lui	a5,0x40020
     41c:	08078793          	addi	a5,a5,128 # 40020080 <_eusrstack+0x20018080>
     420:	0ef50363          	beq	a0,a5,506 <DMA_DeInit+0x14c>
     424:	400207b7          	lui	a5,0x40020
     428:	40878793          	addi	a5,a5,1032 # 40020408 <_eusrstack+0x20018408>
     42c:	0ef50563          	beq	a0,a5,516 <DMA_DeInit+0x15c>
     430:	400207b7          	lui	a5,0x40020
     434:	41c78793          	addi	a5,a5,1052 # 4002041c <_eusrstack+0x2001841c>
     438:	0ef50863          	beq	a0,a5,528 <DMA_DeInit+0x16e>
     43c:	400207b7          	lui	a5,0x40020
     440:	43078793          	addi	a5,a5,1072 # 40020430 <_eusrstack+0x20018430>
     444:	0ef50b63          	beq	a0,a5,53a <DMA_DeInit+0x180>
     448:	400207b7          	lui	a5,0x40020
     44c:	44478793          	addi	a5,a5,1092 # 40020444 <_eusrstack+0x20018444>
     450:	10f50063          	beq	a0,a5,550 <DMA_DeInit+0x196>
     454:	400207b7          	lui	a5,0x40020
     458:	45878793          	addi	a5,a5,1112 # 40020458 <_eusrstack+0x20018458>
     45c:	10f50363          	beq	a0,a5,562 <DMA_DeInit+0x1a8>
     460:	400207b7          	lui	a5,0x40020
     464:	46c78793          	addi	a5,a5,1132 # 4002046c <_eusrstack+0x2001846c>
     468:	10f50763          	beq	a0,a5,576 <DMA_DeInit+0x1bc>
     46c:	400207b7          	lui	a5,0x40020
     470:	48078793          	addi	a5,a5,1152 # 40020480 <_eusrstack+0x20018480>
     474:	10f50b63          	beq	a0,a5,58a <DMA_DeInit+0x1d0>
     478:	400207b7          	lui	a5,0x40020
     47c:	49078793          	addi	a5,a5,1168 # 40020490 <_eusrstack+0x20018490>
     480:	10f50f63          	beq	a0,a5,59e <DMA_DeInit+0x1e4>
     484:	400207b7          	lui	a5,0x40020
     488:	4a078793          	addi	a5,a5,1184 # 400204a0 <_eusrstack+0x200184a0>
     48c:	12f50263          	beq	a0,a5,5b0 <DMA_DeInit+0x1f6>
     490:	400207b7          	lui	a5,0x40020
     494:	4b078793          	addi	a5,a5,1200 # 400204b0 <_eusrstack+0x200184b0>
     498:	12f50563          	beq	a0,a5,5c2 <DMA_DeInit+0x208>
     49c:	400207b7          	lui	a5,0x40020
     4a0:	4c078793          	addi	a5,a5,1216 # 400204c0 <_eusrstack+0x200184c0>
     4a4:	12f50a63          	beq	a0,a5,5d8 <DMA_DeInit+0x21e>
     4a8:	8082                	ret
     4aa:	40020737          	lui	a4,0x40020
     4ae:	435c                	lw	a5,4(a4)
     4b0:	00f7e793          	ori	a5,a5,15
     4b4:	c35c                	sw	a5,4(a4)
     4b6:	8082                	ret
     4b8:	40020737          	lui	a4,0x40020
     4bc:	435c                	lw	a5,4(a4)
     4be:	0f07e793          	ori	a5,a5,240
     4c2:	c35c                	sw	a5,4(a4)
     4c4:	8082                	ret
     4c6:	400206b7          	lui	a3,0x40020
     4ca:	42dc                	lw	a5,4(a3)
     4cc:	6705                	lui	a4,0x1
     4ce:	f0070713          	addi	a4,a4,-256 # f00 <handle_reset+0x60>
     4d2:	8fd9                	or	a5,a5,a4
     4d4:	c2dc                	sw	a5,4(a3)
     4d6:	8082                	ret
     4d8:	40020737          	lui	a4,0x40020
     4dc:	435c                	lw	a5,4(a4)
     4de:	66bd                	lui	a3,0xf
     4e0:	8fd5                	or	a5,a5,a3
     4e2:	c35c                	sw	a5,4(a4)
     4e4:	8082                	ret
     4e6:	40020737          	lui	a4,0x40020
     4ea:	435c                	lw	a5,4(a4)
     4ec:	000f06b7          	lui	a3,0xf0
     4f0:	8fd5                	or	a5,a5,a3
     4f2:	c35c                	sw	a5,4(a4)
     4f4:	8082                	ret
     4f6:	40020737          	lui	a4,0x40020
     4fa:	435c                	lw	a5,4(a4)
     4fc:	00f006b7          	lui	a3,0xf00
     500:	8fd5                	or	a5,a5,a3
     502:	c35c                	sw	a5,4(a4)
     504:	8082                	ret
     506:	40020737          	lui	a4,0x40020
     50a:	435c                	lw	a5,4(a4)
     50c:	0f0006b7          	lui	a3,0xf000
     510:	8fd5                	or	a5,a5,a3
     512:	c35c                	sw	a5,4(a4)
     514:	8082                	ret
     516:	400207b7          	lui	a5,0x40020
     51a:	4047a703          	lw	a4,1028(a5) # 40020404 <_eusrstack+0x20018404>
     51e:	00f76713          	ori	a4,a4,15
     522:	40e7a223          	sw	a4,1028(a5)
     526:	8082                	ret
     528:	400207b7          	lui	a5,0x40020
     52c:	4047a703          	lw	a4,1028(a5) # 40020404 <_eusrstack+0x20018404>
     530:	0f076713          	ori	a4,a4,240
     534:	40e7a223          	sw	a4,1028(a5)
     538:	8082                	ret
     53a:	400207b7          	lui	a5,0x40020
     53e:	4047a703          	lw	a4,1028(a5) # 40020404 <_eusrstack+0x20018404>
     542:	6685                	lui	a3,0x1
     544:	f0068693          	addi	a3,a3,-256 # f00 <handle_reset+0x60>
     548:	8f55                	or	a4,a4,a3
     54a:	40e7a223          	sw	a4,1028(a5)
     54e:	8082                	ret
     550:	400207b7          	lui	a5,0x40020
     554:	4047a703          	lw	a4,1028(a5) # 40020404 <_eusrstack+0x20018404>
     558:	66bd                	lui	a3,0xf
     55a:	8f55                	or	a4,a4,a3
     55c:	40e7a223          	sw	a4,1028(a5)
     560:	8082                	ret
     562:	400207b7          	lui	a5,0x40020
     566:	4047a703          	lw	a4,1028(a5) # 40020404 <_eusrstack+0x20018404>
     56a:	000f06b7          	lui	a3,0xf0
     56e:	8f55                	or	a4,a4,a3
     570:	40e7a223          	sw	a4,1028(a5)
     574:	8082                	ret
     576:	400207b7          	lui	a5,0x40020
     57a:	4047a703          	lw	a4,1028(a5) # 40020404 <_eusrstack+0x20018404>
     57e:	00f006b7          	lui	a3,0xf00
     582:	8f55                	or	a4,a4,a3
     584:	40e7a223          	sw	a4,1028(a5)
     588:	8082                	ret
     58a:	400207b7          	lui	a5,0x40020
     58e:	4047a703          	lw	a4,1028(a5) # 40020404 <_eusrstack+0x20018404>
     592:	0f0006b7          	lui	a3,0xf000
     596:	8f55                	or	a4,a4,a3
     598:	40e7a223          	sw	a4,1028(a5)
     59c:	8082                	ret
     59e:	400207b7          	lui	a5,0x40020
     5a2:	4d47a703          	lw	a4,1236(a5) # 400204d4 <_eusrstack+0x200184d4>
     5a6:	00f76713          	ori	a4,a4,15
     5aa:	4ce7aa23          	sw	a4,1236(a5)
     5ae:	8082                	ret
     5b0:	400207b7          	lui	a5,0x40020
     5b4:	4d47a703          	lw	a4,1236(a5) # 400204d4 <_eusrstack+0x200184d4>
     5b8:	0f076713          	ori	a4,a4,240
     5bc:	4ce7aa23          	sw	a4,1236(a5)
     5c0:	8082                	ret
     5c2:	400207b7          	lui	a5,0x40020
     5c6:	4d078793          	addi	a5,a5,1232 # 400204d0 <_eusrstack+0x200184d0>
     5ca:	43d8                	lw	a4,4(a5)
     5cc:	6685                	lui	a3,0x1
     5ce:	f0068693          	addi	a3,a3,-256 # f00 <handle_reset+0x60>
     5d2:	8f55                	or	a4,a4,a3
     5d4:	c3d8                	sw	a4,4(a5)
     5d6:	8082                	ret
     5d8:	400207b7          	lui	a5,0x40020
     5dc:	4d078793          	addi	a5,a5,1232 # 400204d0 <_eusrstack+0x200184d0>
     5e0:	43d8                	lw	a4,4(a5)
     5e2:	66bd                	lui	a3,0xf
     5e4:	8f55                	or	a4,a4,a3
     5e6:	c3d8                	sw	a4,4(a5)
     5e8:	b5c1                	j	4a8 <DMA_DeInit+0xee>

000005ea <DMA_Init>:
     5ea:	4118                	lw	a4,0(a0)
     5ec:	77e1                	lui	a5,0xffff8
     5ee:	07bd                	addi	a5,a5,15 # ffff800f <_eusrstack+0xdfff000f>
     5f0:	8f7d                	and	a4,a4,a5
     5f2:	459c                	lw	a5,8(a1)
     5f4:	5194                	lw	a3,32(a1)
     5f6:	8fd5                	or	a5,a5,a3
     5f8:	4994                	lw	a3,16(a1)
     5fa:	8fd5                	or	a5,a5,a3
     5fc:	49d4                	lw	a3,20(a1)
     5fe:	8fd5                	or	a5,a5,a3
     600:	4d94                	lw	a3,24(a1)
     602:	8fd5                	or	a5,a5,a3
     604:	4dd4                	lw	a3,28(a1)
     606:	8fd5                	or	a5,a5,a3
     608:	51d4                	lw	a3,36(a1)
     60a:	8fd5                	or	a5,a5,a3
     60c:	5594                	lw	a3,40(a1)
     60e:	8fd5                	or	a5,a5,a3
     610:	8fd9                	or	a5,a5,a4
     612:	c11c                	sw	a5,0(a0)
     614:	45dc                	lw	a5,12(a1)
     616:	c15c                	sw	a5,4(a0)
     618:	419c                	lw	a5,0(a1)
     61a:	c51c                	sw	a5,8(a0)
     61c:	41dc                	lw	a5,4(a1)
     61e:	c55c                	sw	a5,12(a0)
     620:	8082                	ret

00000622 <DMA_StructInit>:
     622:	00052023          	sw	zero,0(a0)
     626:	00052223          	sw	zero,4(a0)
     62a:	00052423          	sw	zero,8(a0)
     62e:	00052623          	sw	zero,12(a0)
     632:	00052823          	sw	zero,16(a0)
     636:	00052a23          	sw	zero,20(a0)
     63a:	00052c23          	sw	zero,24(a0)
     63e:	00052e23          	sw	zero,28(a0)
     642:	02052023          	sw	zero,32(a0)
     646:	02052223          	sw	zero,36(a0)
     64a:	02052423          	sw	zero,40(a0)
     64e:	8082                	ret

00000650 <DMA_Cmd>:
     650:	c591                	beqz	a1,65c <DMA_Cmd+0xc>
     652:	411c                	lw	a5,0(a0)
     654:	0017e793          	ori	a5,a5,1
     658:	c11c                	sw	a5,0(a0)
     65a:	8082                	ret
     65c:	411c                	lw	a5,0(a0)
     65e:	6741                	lui	a4,0x10
     660:	1779                	addi	a4,a4,-2 # fffe <_data_lma+0xcd96>
     662:	8ff9                	and	a5,a5,a4
     664:	c11c                	sw	a5,0(a0)
     666:	8082                	ret

00000668 <DMA_ITConfig>:
     668:	c609                	beqz	a2,672 <DMA_ITConfig+0xa>
     66a:	411c                	lw	a5,0(a0)
     66c:	8fcd                	or	a5,a5,a1
     66e:	c11c                	sw	a5,0(a0)
     670:	8082                	ret
     672:	411c                	lw	a5,0(a0)
     674:	fff5c593          	not	a1,a1
     678:	8fed                	and	a5,a5,a1
     67a:	c11c                	sw	a5,0(a0)
     67c:	8082                	ret

0000067e <DMA_GetFlagStatus>:
     67e:	100007b7          	lui	a5,0x10000
     682:	8fe9                	and	a5,a5,a0
     684:	cb89                	beqz	a5,696 <DMA_GetFlagStatus+0x18>
     686:	400207b7          	lui	a5,0x40020
     68a:	4007a783          	lw	a5,1024(a5) # 40020400 <_eusrstack+0x20018400>
     68e:	8d7d                	and	a0,a0,a5
     690:	c111                	beqz	a0,694 <DMA_GetFlagStatus+0x16>
     692:	4505                	li	a0,1
     694:	8082                	ret
     696:	200007b7          	lui	a5,0x20000
     69a:	8fe9                	and	a5,a5,a0
     69c:	c791                	beqz	a5,6a8 <DMA_GetFlagStatus+0x2a>
     69e:	400207b7          	lui	a5,0x40020
     6a2:	4d07a783          	lw	a5,1232(a5) # 400204d0 <_eusrstack+0x200184d0>
     6a6:	b7e5                	j	68e <DMA_GetFlagStatus+0x10>
     6a8:	400207b7          	lui	a5,0x40020
     6ac:	439c                	lw	a5,0(a5)
     6ae:	b7c5                	j	68e <DMA_GetFlagStatus+0x10>

000006b0 <DMA_ClearFlag>:
     6b0:	100007b7          	lui	a5,0x10000
     6b4:	8fe9                	and	a5,a5,a0
     6b6:	c791                	beqz	a5,6c2 <DMA_ClearFlag+0x12>
     6b8:	400207b7          	lui	a5,0x40020
     6bc:	40a7a223          	sw	a0,1028(a5) # 40020404 <_eusrstack+0x20018404>
     6c0:	8082                	ret
     6c2:	200007b7          	lui	a5,0x20000
     6c6:	8fe9                	and	a5,a5,a0
     6c8:	c791                	beqz	a5,6d4 <DMA_ClearFlag+0x24>
     6ca:	400207b7          	lui	a5,0x40020
     6ce:	4ca7aa23          	sw	a0,1236(a5) # 400204d4 <_eusrstack+0x200184d4>
     6d2:	8082                	ret
     6d4:	400207b7          	lui	a5,0x40020
     6d8:	c3c8                	sw	a0,4(a5)
     6da:	8082                	ret

000006dc <DMA_ClearITPendingBit>:
     6dc:	100007b7          	lui	a5,0x10000
     6e0:	8fe9                	and	a5,a5,a0
     6e2:	c791                	beqz	a5,6ee <DMA_ClearITPendingBit+0x12>
     6e4:	400207b7          	lui	a5,0x40020
     6e8:	40a7a223          	sw	a0,1028(a5) # 40020404 <_eusrstack+0x20018404>
     6ec:	8082                	ret
     6ee:	200007b7          	lui	a5,0x20000
     6f2:	8fe9                	and	a5,a5,a0
     6f4:	c791                	beqz	a5,700 <DMA_ClearITPendingBit+0x24>
     6f6:	400207b7          	lui	a5,0x40020
     6fa:	4ca7aa23          	sw	a0,1236(a5) # 400204d4 <_eusrstack+0x200184d4>
     6fe:	8082                	ret
     700:	400207b7          	lui	a5,0x40020
     704:	c3c8                	sw	a0,4(a5)
     706:	8082                	ret

00000708 <GPIO_Init>:
     708:	459c                	lw	a5,8(a1)
     70a:	00f7f893          	andi	a7,a5,15
     70e:	8bc1                	andi	a5,a5,16
     710:	c781                	beqz	a5,718 <GPIO_Init+0x10>
     712:	41dc                	lw	a5,4(a1)
     714:	00f8e8b3          	or	a7,a7,a5
     718:	0005c783          	lbu	a5,0(a1)
     71c:	cfa1                	beqz	a5,774 <GPIO_Init+0x6c>
     71e:	00052803          	lw	a6,0(a0)
     722:	4701                	li	a4,0
     724:	a019                	j	72a <GPIO_Init+0x22>
     726:	c95c                	sw	a5,20(a0)
     728:	0705                	addi	a4,a4,1
     72a:	479d                	li	a5,7
     72c:	04e7e263          	bltu	a5,a4,770 <GPIO_Init+0x68>
     730:	4785                	li	a5,1
     732:	00e797b3          	sll	a5,a5,a4
     736:	0005d683          	lhu	a3,0(a1)
     73a:	8efd                	and	a3,a3,a5
     73c:	fed796e3          	bne	a5,a3,728 <GPIO_Init+0x20>
     740:	00271613          	slli	a2,a4,0x2
     744:	46bd                	li	a3,15
     746:	00c696b3          	sll	a3,a3,a2
     74a:	fff6c693          	not	a3,a3
     74e:	0106f833          	and	a6,a3,a6
     752:	00c89633          	sll	a2,a7,a2
     756:	01066833          	or	a6,a2,a6
     75a:	4594                	lw	a3,8(a1)
     75c:	02800613          	li	a2,40
     760:	fcc683e3          	beq	a3,a2,726 <GPIO_Init+0x1e>
     764:	04800613          	li	a2,72
     768:	fcc690e3          	bne	a3,a2,728 <GPIO_Init+0x20>
     76c:	c91c                	sw	a5,16(a0)
     76e:	bf6d                	j	728 <GPIO_Init+0x20>
     770:	01052023          	sw	a6,0(a0)
     774:	0005d703          	lhu	a4,0(a1)
     778:	0ff00793          	li	a5,255
     77c:	06e7f163          	bgeu	a5,a4,7de <GPIO_Init+0xd6>
     780:	00452803          	lw	a6,4(a0)
     784:	4701                	li	a4,0
     786:	a039                	j	794 <GPIO_Init+0x8c>
     788:	4590                	lw	a2,8(a1)
     78a:	04800693          	li	a3,72
     78e:	04d60463          	beq	a2,a3,7d6 <GPIO_Init+0xce>
     792:	0705                	addi	a4,a4,1
     794:	479d                	li	a5,7
     796:	04e7e263          	bltu	a5,a4,7da <GPIO_Init+0xd2>
     79a:	00870693          	addi	a3,a4,8
     79e:	4785                	li	a5,1
     7a0:	00d797b3          	sll	a5,a5,a3
     7a4:	0005d683          	lhu	a3,0(a1)
     7a8:	8efd                	and	a3,a3,a5
     7aa:	fed794e3          	bne	a5,a3,792 <GPIO_Init+0x8a>
     7ae:	00271613          	slli	a2,a4,0x2
     7b2:	46bd                	li	a3,15
     7b4:	00c696b3          	sll	a3,a3,a2
     7b8:	fff6c693          	not	a3,a3
     7bc:	0106f833          	and	a6,a3,a6
     7c0:	00c89633          	sll	a2,a7,a2
     7c4:	01066833          	or	a6,a2,a6
     7c8:	4590                	lw	a2,8(a1)
     7ca:	02800693          	li	a3,40
     7ce:	fad61de3          	bne	a2,a3,788 <GPIO_Init+0x80>
     7d2:	c95c                	sw	a5,20(a0)
     7d4:	bf55                	j	788 <GPIO_Init+0x80>
     7d6:	c91c                	sw	a5,16(a0)
     7d8:	bf6d                	j	792 <GPIO_Init+0x8a>
     7da:	01052223          	sw	a6,4(a0)
     7de:	8082                	ret

000007e0 <GPIO_SetBits>:
     7e0:	c90c                	sw	a1,16(a0)
     7e2:	8082                	ret

000007e4 <NVIC_PriorityGroupConfig>:
     7e4:	82a1a223          	sw	a0,-2012(gp) # 2000052c <NVIC_Priority_Group>
     7e8:	8082                	ret

000007ea <RCC_GetClocksFreq>:
     7ea:	400217b7          	lui	a5,0x40021
     7ee:	43dc                	lw	a5,4(a5)
     7f0:	8bb1                	andi	a5,a5,12
     7f2:	4711                	li	a4,4
     7f4:	08e78363          	beq	a5,a4,87a <__stack_size+0x7a>
     7f8:	4721                	li	a4,8
     7fa:	08e78663          	beq	a5,a4,886 <__stack_size+0x86>
     7fe:	c799                	beqz	a5,80c <__stack_size+0xc>
     800:	007a17b7          	lui	a5,0x7a1
     804:	20078793          	addi	a5,a5,512 # 7a1200 <_data_lma+0x79df98>
     808:	c11c                	sw	a5,0(a0)
     80a:	a031                	j	816 <__stack_size+0x16>
     80c:	007a17b7          	lui	a5,0x7a1
     810:	20078793          	addi	a5,a5,512 # 7a1200 <_data_lma+0x79df98>
     814:	c11c                	sw	a5,0(a0)
     816:	40021637          	lui	a2,0x40021
     81a:	425c                	lw	a5,4(a2)
     81c:	8391                	srli	a5,a5,0x4
     81e:	8bbd                	andi	a5,a5,15
     820:	1ffff697          	auipc	a3,0x1ffff
     824:	7e068693          	addi	a3,a3,2016 # 20000000 <APBAHBPrescTable>
     828:	97b6                	add	a5,a5,a3
     82a:	0007c703          	lbu	a4,0(a5)
     82e:	411c                	lw	a5,0(a0)
     830:	00e7d7b3          	srl	a5,a5,a4
     834:	c15c                	sw	a5,4(a0)
     836:	4258                	lw	a4,4(a2)
     838:	8321                	srli	a4,a4,0x8
     83a:	8b1d                	andi	a4,a4,7
     83c:	9736                	add	a4,a4,a3
     83e:	00074703          	lbu	a4,0(a4)
     842:	00e7d733          	srl	a4,a5,a4
     846:	c518                	sw	a4,8(a0)
     848:	4258                	lw	a4,4(a2)
     84a:	832d                	srli	a4,a4,0xb
     84c:	8b1d                	andi	a4,a4,7
     84e:	96ba                	add	a3,a3,a4
     850:	0006c703          	lbu	a4,0(a3)
     854:	00e7d7b3          	srl	a5,a5,a4
     858:	c55c                	sw	a5,12(a0)
     85a:	4258                	lw	a4,4(a2)
     85c:	8339                	srli	a4,a4,0xe
     85e:	8b0d                	andi	a4,a4,3
     860:	20000697          	auipc	a3,0x20000
     864:	cac68693          	addi	a3,a3,-852 # 2000050c <ADCPrescTable>
     868:	9736                	add	a4,a4,a3
     86a:	00074703          	lbu	a4,0(a4)
     86e:	0ff77713          	zext.b	a4,a4
     872:	02e7d7b3          	divu	a5,a5,a4
     876:	c91c                	sw	a5,16(a0)
     878:	8082                	ret
     87a:	007a17b7          	lui	a5,0x7a1
     87e:	20078793          	addi	a5,a5,512 # 7a1200 <_data_lma+0x79df98>
     882:	c11c                	sw	a5,0(a0)
     884:	bf49                	j	816 <__stack_size+0x16>
     886:	40021737          	lui	a4,0x40021
     88a:	435c                	lw	a5,4(a4)
     88c:	4358                	lw	a4,4(a4)
     88e:	66c1                	lui	a3,0x10
     890:	8f75                	and	a4,a4,a3
     892:	83c9                	srli	a5,a5,0x12
     894:	8bbd                	andi	a5,a5,15
     896:	0789                	addi	a5,a5,2
     898:	1ffff6b7          	lui	a3,0x1ffff
     89c:	70c6a683          	lw	a3,1804(a3) # 1ffff70c <_data_lma+0x1fffc4a4>
     8a0:	6611                	lui	a2,0x4
     8a2:	8ef1                	and	a3,a3,a2
     8a4:	e685                	bnez	a3,8cc <__stack_size+0xcc>
     8a6:	46c5                	li	a3,17
     8a8:	04d78663          	beq	a5,a3,8f4 <__stack_size+0xf4>
     8ac:	4681                	li	a3,0
     8ae:	e32d                	bnez	a4,910 <__stack_size+0x110>
     8b0:	40024737          	lui	a4,0x40024
     8b4:	80072703          	lw	a4,-2048(a4) # 40023800 <_eusrstack+0x2001b800>
     8b8:	8b41                	andi	a4,a4,16
     8ba:	c339                	beqz	a4,900 <__stack_size+0x100>
     8bc:	007a1737          	lui	a4,0x7a1
     8c0:	20070713          	addi	a4,a4,512 # 7a1200 <_data_lma+0x79df98>
     8c4:	02e787b3          	mul	a5,a5,a4
     8c8:	c11c                	sw	a5,0(a0)
     8ca:	a861                	j	962 <__stack_size+0x162>
     8cc:	4689                	li	a3,2
     8ce:	00d78e63          	beq	a5,a3,8ea <__stack_size+0xea>
     8d2:	46bd                	li	a3,15
     8d4:	00d78d63          	beq	a5,a3,8ee <__stack_size+0xee>
     8d8:	46c1                	li	a3,16
     8da:	02d78063          	beq	a5,a3,8fa <__stack_size+0xfa>
     8de:	4681                	li	a3,0
     8e0:	4645                	li	a2,17
     8e2:	fcc796e3          	bne	a5,a2,8ae <__stack_size+0xae>
     8e6:	47c1                	li	a5,16
     8e8:	b7d9                	j	8ae <__stack_size+0xae>
     8ea:	47c9                	li	a5,18
     8ec:	b7f5                	j	8d8 <__stack_size+0xd8>
     8ee:	4685                	li	a3,1
     8f0:	47b5                	li	a5,13
     8f2:	b7fd                	j	8e0 <__stack_size+0xe0>
     8f4:	4681                	li	a3,0
     8f6:	47c9                	li	a5,18
     8f8:	bf5d                	j	8ae <__stack_size+0xae>
     8fa:	4681                	li	a3,0
     8fc:	47bd                	li	a5,15
     8fe:	bf45                	j	8ae <__stack_size+0xae>
     900:	003d1737          	lui	a4,0x3d1
     904:	90070713          	addi	a4,a4,-1792 # 3d0900 <_data_lma+0x3cd698>
     908:	02e787b3          	mul	a5,a5,a4
     90c:	c11c                	sw	a5,0(a0)
     90e:	a891                	j	962 <__stack_size+0x162>
     910:	40021737          	lui	a4,0x40021
     914:	5758                	lw	a4,44(a4)
     916:	6641                	lui	a2,0x10
     918:	8f71                	and	a4,a4,a2
     91a:	c359                	beqz	a4,9a0 <__stack_size+0x1a0>
     91c:	400215b7          	lui	a1,0x40021
     920:	55d0                	lw	a2,44(a1)
     922:	8211                	srli	a2,a2,0x4
     924:	8a3d                	andi	a2,a2,15
     926:	0605                	addi	a2,a2,1 # 10001 <_data_lma+0xcd99>
     928:	007a1737          	lui	a4,0x7a1
     92c:	20070713          	addi	a4,a4,512 # 7a1200 <_data_lma+0x79df98>
     930:	02c75733          	divu	a4,a4,a2
     934:	c118                	sw	a4,0(a0)
     936:	55d0                	lw	a2,44(a1)
     938:	8221                	srli	a2,a2,0x8
     93a:	8a3d                	andi	a2,a2,15
     93c:	ea0d                	bnez	a2,96e <__stack_size+0x16e>
     93e:	00271613          	slli	a2,a4,0x2
     942:	9732                	add	a4,a4,a2
     944:	8305                	srli	a4,a4,0x1
     946:	c118                	sw	a4,0(a0)
     948:	4110                	lw	a2,0(a0)
     94a:	40021737          	lui	a4,0x40021
     94e:	5758                	lw	a4,44(a4)
     950:	8b3d                	andi	a4,a4,15
     952:	0705                	addi	a4,a4,1 # 40021001 <_eusrstack+0x20019001>
     954:	02e65733          	divu	a4,a2,a4
     958:	c118                	sw	a4,0(a0)
     95a:	4118                	lw	a4,0(a0)
     95c:	02f707b3          	mul	a5,a4,a5
     960:	c11c                	sw	a5,0(a0)
     962:	ea068ae3          	beqz	a3,816 <__stack_size+0x16>
     966:	411c                	lw	a5,0(a0)
     968:	8385                	srli	a5,a5,0x1
     96a:	c11c                	sw	a5,0(a0)
     96c:	b56d                	j	816 <__stack_size+0x16>
     96e:	4585                	li	a1,1
     970:	00b60a63          	beq	a2,a1,984 <__stack_size+0x184>
     974:	45bd                	li	a1,15
     976:	00b60f63          	beq	a2,a1,994 <__stack_size+0x194>
     97a:	0609                	addi	a2,a2,2
     97c:	02c70733          	mul	a4,a4,a2
     980:	c118                	sw	a4,0(a0)
     982:	b7d9                	j	948 <__stack_size+0x148>
     984:	00171613          	slli	a2,a4,0x1
     988:	963a                	add	a2,a2,a4
     98a:	060e                	slli	a2,a2,0x3
     98c:	9732                	add	a4,a4,a2
     98e:	8305                	srli	a4,a4,0x1
     990:	c118                	sw	a4,0(a0)
     992:	bf5d                	j	948 <__stack_size+0x148>
     994:	00271613          	slli	a2,a4,0x2
     998:	9732                	add	a4,a4,a2
     99a:	070a                	slli	a4,a4,0x2
     99c:	c118                	sw	a4,0(a0)
     99e:	b76d                	j	948 <__stack_size+0x148>
     9a0:	40021737          	lui	a4,0x40021
     9a4:	5750                	lw	a2,44(a4)
     9a6:	8a3d                	andi	a2,a2,15
     9a8:	0605                	addi	a2,a2,1
     9aa:	007a1737          	lui	a4,0x7a1
     9ae:	20070713          	addi	a4,a4,512 # 7a1200 <_data_lma+0x79df98>
     9b2:	02c75733          	divu	a4,a4,a2
     9b6:	c118                	sw	a4,0(a0)
     9b8:	b74d                	j	95a <__stack_size+0x15a>

000009ba <RCC_AHBPeriphClockCmd>:
     9ba:	c599                	beqz	a1,9c8 <RCC_AHBPeriphClockCmd+0xe>
     9bc:	40021737          	lui	a4,0x40021
     9c0:	4b5c                	lw	a5,20(a4)
     9c2:	8fc9                	or	a5,a5,a0
     9c4:	cb5c                	sw	a5,20(a4)
     9c6:	8082                	ret
     9c8:	40021737          	lui	a4,0x40021
     9cc:	4b5c                	lw	a5,20(a4)
     9ce:	fff54513          	not	a0,a0
     9d2:	8fe9                	and	a5,a5,a0
     9d4:	cb5c                	sw	a5,20(a4)
     9d6:	8082                	ret

000009d8 <RCC_APB2PeriphClockCmd>:
     9d8:	c599                	beqz	a1,9e6 <RCC_APB2PeriphClockCmd+0xe>
     9da:	40021737          	lui	a4,0x40021
     9de:	4f1c                	lw	a5,24(a4)
     9e0:	8fc9                	or	a5,a5,a0
     9e2:	cf1c                	sw	a5,24(a4)
     9e4:	8082                	ret
     9e6:	40021737          	lui	a4,0x40021
     9ea:	4f1c                	lw	a5,24(a4)
     9ec:	fff54513          	not	a0,a0
     9f0:	8fe9                	and	a5,a5,a0
     9f2:	cf1c                	sw	a5,24(a4)
     9f4:	8082                	ret

000009f6 <RCC_APB1PeriphClockCmd>:
     9f6:	c599                	beqz	a1,a04 <RCC_APB1PeriphClockCmd+0xe>
     9f8:	40021737          	lui	a4,0x40021
     9fc:	4f5c                	lw	a5,28(a4)
     9fe:	8fc9                	or	a5,a5,a0
     a00:	cf5c                	sw	a5,28(a4)
     a02:	8082                	ret
     a04:	40021737          	lui	a4,0x40021
     a08:	4f5c                	lw	a5,28(a4)
     a0a:	fff54513          	not	a0,a0
     a0e:	8fe9                	and	a5,a5,a0
     a10:	cf5c                	sw	a5,28(a4)
     a12:	8082                	ret

00000a14 <RCC_APB2PeriphResetCmd>:
     a14:	c599                	beqz	a1,a22 <RCC_APB2PeriphResetCmd+0xe>
     a16:	40021737          	lui	a4,0x40021
     a1a:	475c                	lw	a5,12(a4)
     a1c:	8fc9                	or	a5,a5,a0
     a1e:	c75c                	sw	a5,12(a4)
     a20:	8082                	ret
     a22:	40021737          	lui	a4,0x40021
     a26:	475c                	lw	a5,12(a4)
     a28:	fff54513          	not	a0,a0
     a2c:	8fe9                	and	a5,a5,a0
     a2e:	c75c                	sw	a5,12(a4)
     a30:	8082                	ret

00000a32 <RCC_APB1PeriphResetCmd>:
     a32:	c599                	beqz	a1,a40 <RCC_APB1PeriphResetCmd+0xe>
     a34:	40021737          	lui	a4,0x40021
     a38:	4b1c                	lw	a5,16(a4)
     a3a:	8fc9                	or	a5,a5,a0
     a3c:	cb1c                	sw	a5,16(a4)
     a3e:	8082                	ret
     a40:	40021737          	lui	a4,0x40021
     a44:	4b1c                	lw	a5,16(a4)
     a46:	fff54513          	not	a0,a0
     a4a:	8fe9                	and	a5,a5,a0
     a4c:	cb1c                	sw	a5,16(a4)
     a4e:	8082                	ret

00000a50 <RCC_USBHSConfig>:
     a50:	400217b7          	lui	a5,0x40021
     a54:	57d8                	lw	a4,44(a5)
     a56:	f90006b7          	lui	a3,0xf9000
     a5a:	16fd                	addi	a3,a3,-1 # f8ffffff <_eusrstack+0xd8ff7fff>
     a5c:	8f75                	and	a4,a4,a3
     a5e:	d7d8                	sw	a4,44(a5)
     a60:	57d8                	lw	a4,44(a5)
     a62:	0562                	slli	a0,a0,0x18
     a64:	8f49                	or	a4,a4,a0
     a66:	d7d8                	sw	a4,44(a5)
     a68:	8082                	ret

00000a6a <RCC_USBHSPLLCLKConfig>:
     a6a:	400217b7          	lui	a5,0x40021
     a6e:	57d8                	lw	a4,44(a5)
     a70:	f80006b7          	lui	a3,0xf8000
     a74:	16fd                	addi	a3,a3,-1 # f7ffffff <_eusrstack+0xd7ff7fff>
     a76:	8f75                	and	a4,a4,a3
     a78:	d7d8                	sw	a4,44(a5)
     a7a:	57d8                	lw	a4,44(a5)
     a7c:	056e                	slli	a0,a0,0x1b
     a7e:	8f49                	or	a4,a4,a0
     a80:	d7d8                	sw	a4,44(a5)
     a82:	8082                	ret

00000a84 <RCC_USBHSPLLCKREFCLKConfig>:
     a84:	400217b7          	lui	a5,0x40021
     a88:	57d8                	lw	a4,44(a5)
     a8a:	d00006b7          	lui	a3,0xd0000
     a8e:	16fd                	addi	a3,a3,-1 # cfffffff <_eusrstack+0xafff7fff>
     a90:	8f75                	and	a4,a4,a3
     a92:	d7d8                	sw	a4,44(a5)
     a94:	57d8                	lw	a4,44(a5)
     a96:	0572                	slli	a0,a0,0x1c
     a98:	8f49                	or	a4,a4,a0
     a9a:	d7d8                	sw	a4,44(a5)
     a9c:	8082                	ret

00000a9e <RCC_USBHSPHYPLLALIVEcmd>:
     a9e:	c909                	beqz	a0,ab0 <RCC_USBHSPHYPLLALIVEcmd+0x12>
     aa0:	40021737          	lui	a4,0x40021
     aa4:	575c                	lw	a5,44(a4)
     aa6:	400006b7          	lui	a3,0x40000
     aaa:	8fd5                	or	a5,a5,a3
     aac:	d75c                	sw	a5,44(a4)
     aae:	8082                	ret
     ab0:	400216b7          	lui	a3,0x40021
     ab4:	56dc                	lw	a5,44(a3)
     ab6:	c0000737          	lui	a4,0xc0000
     aba:	177d                	addi	a4,a4,-1 # bfffffff <_eusrstack+0x9fff7fff>
     abc:	8ff9                	and	a5,a5,a4
     abe:	d6dc                	sw	a5,44(a3)
     ac0:	8082                	ret

00000ac2 <RCC_USBCLK48MConfig>:
     ac2:	400217b7          	lui	a5,0x40021
     ac6:	57d8                	lw	a4,44(a5)
     ac8:	800006b7          	lui	a3,0x80000
     acc:	16fd                	addi	a3,a3,-1 # 7fffffff <_eusrstack+0x5fff7fff>
     ace:	8f75                	and	a4,a4,a3
     ad0:	d7d8                	sw	a4,44(a5)
     ad2:	57d8                	lw	a4,44(a5)
     ad4:	057e                	slli	a0,a0,0x1f
     ad6:	8f49                	or	a4,a4,a0
     ad8:	d7d8                	sw	a4,44(a5)
     ada:	8082                	ret

00000adc <TIM_DeInit>:
     adc:	1141                	addi	sp,sp,-16
     ade:	c606                	sw	ra,12(sp)
     ae0:	c422                	sw	s0,8(sp)
     ae2:	400137b7          	lui	a5,0x40013
     ae6:	c0078793          	addi	a5,a5,-1024 # 40012c00 <_eusrstack+0x2000ac00>
     aea:	06f50b63          	beq	a0,a5,b60 <TIM_DeInit+0x84>
     aee:	400137b7          	lui	a5,0x40013
     af2:	40078793          	addi	a5,a5,1024 # 40013400 <_eusrstack+0x2000b400>
     af6:	08f50263          	beq	a0,a5,b7a <TIM_DeInit+0x9e>
     afa:	400157b7          	lui	a5,0x40015
     afe:	c0078793          	addi	a5,a5,-1024 # 40014c00 <_eusrstack+0x2000cc00>
     b02:	08f50363          	beq	a0,a5,b88 <TIM_DeInit+0xac>
     b06:	400157b7          	lui	a5,0x40015
     b0a:	08f50863          	beq	a0,a5,b9a <TIM_DeInit+0xbe>
     b0e:	400007b7          	lui	a5,0x40000
     b12:	08f50d63          	beq	a0,a5,bac <TIM_DeInit+0xd0>
     b16:	400007b7          	lui	a5,0x40000
     b1a:	40078793          	addi	a5,a5,1024 # 40000400 <_eusrstack+0x1fff8400>
     b1e:	08f50e63          	beq	a0,a5,bba <TIM_DeInit+0xde>
     b22:	400017b7          	lui	a5,0x40001
     b26:	80078793          	addi	a5,a5,-2048 # 40000800 <_eusrstack+0x1fff8800>
     b2a:	08f50f63          	beq	a0,a5,bc8 <TIM_DeInit+0xec>
     b2e:	400017b7          	lui	a5,0x40001
     b32:	c0078793          	addi	a5,a5,-1024 # 40000c00 <_eusrstack+0x1fff8c00>
     b36:	0af50063          	beq	a0,a5,bd6 <TIM_DeInit+0xfa>
     b3a:	400017b7          	lui	a5,0x40001
     b3e:	0af50363          	beq	a0,a5,be4 <TIM_DeInit+0x108>
     b42:	400017b7          	lui	a5,0x40001
     b46:	40078793          	addi	a5,a5,1024 # 40001400 <_eusrstack+0x1fff9400>
     b4a:	02f51463          	bne	a0,a5,b72 <TIM_DeInit+0x96>
     b4e:	4585                	li	a1,1
     b50:	02000513          	li	a0,32
     b54:	3df9                	jal	a32 <RCC_APB1PeriphResetCmd>
     b56:	4581                	li	a1,0
     b58:	02000513          	li	a0,32
     b5c:	3dd9                	jal	a32 <RCC_APB1PeriphResetCmd>
     b5e:	a811                	j	b72 <TIM_DeInit+0x96>
     b60:	4585                	li	a1,1
     b62:	6405                	lui	s0,0x1
     b64:	80040513          	addi	a0,s0,-2048 # 800 <__stack_size>
     b68:	3575                	jal	a14 <RCC_APB2PeriphResetCmd>
     b6a:	4581                	li	a1,0
     b6c:	80040513          	addi	a0,s0,-2048
     b70:	3555                	jal	a14 <RCC_APB2PeriphResetCmd>
     b72:	40b2                	lw	ra,12(sp)
     b74:	4422                	lw	s0,8(sp)
     b76:	0141                	addi	sp,sp,16
     b78:	8082                	ret
     b7a:	4585                	li	a1,1
     b7c:	6509                	lui	a0,0x2
     b7e:	3d59                	jal	a14 <RCC_APB2PeriphResetCmd>
     b80:	4581                	li	a1,0
     b82:	6509                	lui	a0,0x2
     b84:	3d41                	jal	a14 <RCC_APB2PeriphResetCmd>
     b86:	b7f5                	j	b72 <TIM_DeInit+0x96>
     b88:	4585                	li	a1,1
     b8a:	00080537          	lui	a0,0x80
     b8e:	3559                	jal	a14 <RCC_APB2PeriphResetCmd>
     b90:	4581                	li	a1,0
     b92:	00080537          	lui	a0,0x80
     b96:	3dbd                	jal	a14 <RCC_APB2PeriphResetCmd>
     b98:	bfe9                	j	b72 <TIM_DeInit+0x96>
     b9a:	4585                	li	a1,1
     b9c:	00100537          	lui	a0,0x100
     ba0:	3d95                	jal	a14 <RCC_APB2PeriphResetCmd>
     ba2:	4581                	li	a1,0
     ba4:	00100537          	lui	a0,0x100
     ba8:	35b5                	jal	a14 <RCC_APB2PeriphResetCmd>
     baa:	b7e1                	j	b72 <TIM_DeInit+0x96>
     bac:	4585                	li	a1,1
     bae:	4505                	li	a0,1
     bb0:	3549                	jal	a32 <RCC_APB1PeriphResetCmd>
     bb2:	4581                	li	a1,0
     bb4:	4505                	li	a0,1
     bb6:	3db5                	jal	a32 <RCC_APB1PeriphResetCmd>
     bb8:	bf6d                	j	b72 <TIM_DeInit+0x96>
     bba:	4585                	li	a1,1
     bbc:	4509                	li	a0,2
     bbe:	3d95                	jal	a32 <RCC_APB1PeriphResetCmd>
     bc0:	4581                	li	a1,0
     bc2:	4509                	li	a0,2
     bc4:	35bd                	jal	a32 <RCC_APB1PeriphResetCmd>
     bc6:	b775                	j	b72 <TIM_DeInit+0x96>
     bc8:	4585                	li	a1,1
     bca:	4511                	li	a0,4
     bcc:	359d                	jal	a32 <RCC_APB1PeriphResetCmd>
     bce:	4581                	li	a1,0
     bd0:	4511                	li	a0,4
     bd2:	3585                	jal	a32 <RCC_APB1PeriphResetCmd>
     bd4:	bf79                	j	b72 <TIM_DeInit+0x96>
     bd6:	4585                	li	a1,1
     bd8:	4521                	li	a0,8
     bda:	3da1                	jal	a32 <RCC_APB1PeriphResetCmd>
     bdc:	4581                	li	a1,0
     bde:	4521                	li	a0,8
     be0:	3d89                	jal	a32 <RCC_APB1PeriphResetCmd>
     be2:	bf41                	j	b72 <TIM_DeInit+0x96>
     be4:	4585                	li	a1,1
     be6:	4541                	li	a0,16
     be8:	35a9                	jal	a32 <RCC_APB1PeriphResetCmd>
     bea:	4581                	li	a1,0
     bec:	4541                	li	a0,16
     bee:	3591                	jal	a32 <RCC_APB1PeriphResetCmd>
     bf0:	b749                	j	b72 <TIM_DeInit+0x96>

00000bf2 <TIM_TimeBaseInit>:
     bf2:	00055783          	lhu	a5,0(a0) # 100000 <_data_lma+0xfcd98>
     bf6:	07c2                	slli	a5,a5,0x10
     bf8:	83c1                	srli	a5,a5,0x10
     bfa:	40013737          	lui	a4,0x40013
     bfe:	c0070713          	addi	a4,a4,-1024 # 40012c00 <_eusrstack+0x2000ac00>
     c02:	04e50663          	beq	a0,a4,c4e <TIM_TimeBaseInit+0x5c>
     c06:	40000737          	lui	a4,0x40000
     c0a:	04e50263          	beq	a0,a4,c4e <TIM_TimeBaseInit+0x5c>
     c0e:	40070713          	addi	a4,a4,1024 # 40000400 <_eusrstack+0x1fff8400>
     c12:	02e50e63          	beq	a0,a4,c4e <TIM_TimeBaseInit+0x5c>
     c16:	40001737          	lui	a4,0x40001
     c1a:	80070713          	addi	a4,a4,-2048 # 40000800 <_eusrstack+0x1fff8800>
     c1e:	02e50863          	beq	a0,a4,c4e <TIM_TimeBaseInit+0x5c>
     c22:	40001737          	lui	a4,0x40001
     c26:	c0070713          	addi	a4,a4,-1024 # 40000c00 <_eusrstack+0x1fff8c00>
     c2a:	02e50263          	beq	a0,a4,c4e <TIM_TimeBaseInit+0x5c>
     c2e:	40013737          	lui	a4,0x40013
     c32:	40070713          	addi	a4,a4,1024 # 40013400 <_eusrstack+0x2000b400>
     c36:	00e50c63          	beq	a0,a4,c4e <TIM_TimeBaseInit+0x5c>
     c3a:	40015737          	lui	a4,0x40015
     c3e:	c0070713          	addi	a4,a4,-1024 # 40014c00 <_eusrstack+0x2000cc00>
     c42:	00e50663          	beq	a0,a4,c4e <TIM_TimeBaseInit+0x5c>
     c46:	40015737          	lui	a4,0x40015
     c4a:	00e51763          	bne	a0,a4,c58 <TIM_TimeBaseInit+0x66>
     c4e:	f8f7f793          	andi	a5,a5,-113
     c52:	0025d703          	lhu	a4,2(a1) # 40021002 <_eusrstack+0x20019002>
     c56:	8fd9                	or	a5,a5,a4
     c58:	40001737          	lui	a4,0x40001
     c5c:	00e50d63          	beq	a0,a4,c76 <TIM_TimeBaseInit+0x84>
     c60:	40070713          	addi	a4,a4,1024 # 40001400 <_eusrstack+0x1fff9400>
     c64:	00e50963          	beq	a0,a4,c76 <TIM_TimeBaseInit+0x84>
     c68:	cff7f793          	andi	a5,a5,-769
     c6c:	07c2                	slli	a5,a5,0x10
     c6e:	83c1                	srli	a5,a5,0x10
     c70:	0065d703          	lhu	a4,6(a1)
     c74:	8fd9                	or	a5,a5,a4
     c76:	00f51023          	sh	a5,0(a0)
     c7a:	0045d783          	lhu	a5,4(a1)
     c7e:	02f51623          	sh	a5,44(a0)
     c82:	0005d783          	lhu	a5,0(a1)
     c86:	02f51423          	sh	a5,40(a0)
     c8a:	400137b7          	lui	a5,0x40013
     c8e:	c0078793          	addi	a5,a5,-1024 # 40012c00 <_eusrstack+0x2000ac00>
     c92:	02f50263          	beq	a0,a5,cb6 <TIM_TimeBaseInit+0xc4>
     c96:	400137b7          	lui	a5,0x40013
     c9a:	40078793          	addi	a5,a5,1024 # 40013400 <_eusrstack+0x2000b400>
     c9e:	00f50c63          	beq	a0,a5,cb6 <TIM_TimeBaseInit+0xc4>
     ca2:	400157b7          	lui	a5,0x40015
     ca6:	c0078793          	addi	a5,a5,-1024 # 40014c00 <_eusrstack+0x2000cc00>
     caa:	00f50663          	beq	a0,a5,cb6 <TIM_TimeBaseInit+0xc4>
     cae:	400157b7          	lui	a5,0x40015
     cb2:	00f51663          	bne	a0,a5,cbe <TIM_TimeBaseInit+0xcc>
     cb6:	0085c783          	lbu	a5,8(a1)
     cba:	02f51823          	sh	a5,48(a0)
     cbe:	4785                	li	a5,1
     cc0:	00f51a23          	sh	a5,20(a0)
     cc4:	8082                	ret

00000cc6 <TIM_Cmd>:
     cc6:	c981                	beqz	a1,cd6 <TIM_Cmd+0x10>
     cc8:	00055783          	lhu	a5,0(a0)
     ccc:	0017e793          	ori	a5,a5,1
     cd0:	00f51023          	sh	a5,0(a0)
     cd4:	8082                	ret
     cd6:	00055783          	lhu	a5,0(a0)
     cda:	07c2                	slli	a5,a5,0x10
     cdc:	83c1                	srli	a5,a5,0x10
     cde:	9bf9                	andi	a5,a5,-2
     ce0:	07c2                	slli	a5,a5,0x10
     ce2:	83c1                	srli	a5,a5,0x10
     ce4:	00f51023          	sh	a5,0(a0)
     ce8:	8082                	ret

00000cea <TIM_ITConfig>:
     cea:	c619                	beqz	a2,cf8 <TIM_ITConfig+0xe>
     cec:	00c55783          	lhu	a5,12(a0)
     cf0:	8fcd                	or	a5,a5,a1
     cf2:	00f51623          	sh	a5,12(a0)
     cf6:	8082                	ret
     cf8:	00c55783          	lhu	a5,12(a0)
     cfc:	fff5c593          	not	a1,a1
     d00:	8dfd                	and	a1,a1,a5
     d02:	00b51623          	sh	a1,12(a0)
     d06:	8082                	ret

00000d08 <TIM_DMACmd>:
     d08:	c619                	beqz	a2,d16 <TIM_DMACmd+0xe>
     d0a:	00c55783          	lhu	a5,12(a0)
     d0e:	8fcd                	or	a5,a5,a1
     d10:	00f51623          	sh	a5,12(a0)
     d14:	8082                	ret
     d16:	00c55783          	lhu	a5,12(a0)
     d1a:	fff5c593          	not	a1,a1
     d1e:	8dfd                	and	a1,a1,a5
     d20:	00b51623          	sh	a1,12(a0)
     d24:	8082                	ret

00000d26 <TIM_ARRPreloadConfig>:
     d26:	c981                	beqz	a1,d36 <TIM_ARRPreloadConfig+0x10>
     d28:	00055783          	lhu	a5,0(a0)
     d2c:	0807e793          	ori	a5,a5,128
     d30:	00f51023          	sh	a5,0(a0)
     d34:	8082                	ret
     d36:	00055783          	lhu	a5,0(a0)
     d3a:	07c2                	slli	a5,a5,0x10
     d3c:	83c1                	srli	a5,a5,0x10
     d3e:	f7f7f793          	andi	a5,a5,-129
     d42:	07c2                	slli	a5,a5,0x10
     d44:	83c1                	srli	a5,a5,0x10
     d46:	00f51023          	sh	a5,0(a0)
     d4a:	8082                	ret

00000d4c <TIM_SelectOutputTrigger>:
     d4c:	00455783          	lhu	a5,4(a0)
     d50:	07c2                	slli	a5,a5,0x10
     d52:	83c1                	srli	a5,a5,0x10
     d54:	f8f7f793          	andi	a5,a5,-113
     d58:	07c2                	slli	a5,a5,0x10
     d5a:	83c1                	srli	a5,a5,0x10
     d5c:	00f51223          	sh	a5,4(a0)
     d60:	00455783          	lhu	a5,4(a0)
     d64:	8fcd                	or	a5,a5,a1
     d66:	00f51223          	sh	a5,4(a0)
     d6a:	8082                	ret

00000d6c <TIM_ClearFlag>:
     d6c:	fff5c593          	not	a1,a1
     d70:	05c2                	slli	a1,a1,0x10
     d72:	81c1                	srli	a1,a1,0x10
     d74:	00b51823          	sh	a1,16(a0)
     d78:	8082                	ret

00000d7a <USART_Init>:
     d7a:	7179                	addi	sp,sp,-48
     d7c:	d606                	sw	ra,44(sp)
     d7e:	d422                	sw	s0,40(sp)
     d80:	d226                	sw	s1,36(sp)
     d82:	842a                	mv	s0,a0
     d84:	84ae                	mv	s1,a1
     d86:	01055703          	lhu	a4,16(a0)
     d8a:	0065d783          	lhu	a5,6(a1)
     d8e:	76f5                	lui	a3,0xffffd
     d90:	16fd                	addi	a3,a3,-1 # ffffcfff <_eusrstack+0xdfff4fff>
     d92:	8f75                	and	a4,a4,a3
     d94:	8fd9                	or	a5,a5,a4
     d96:	00f51823          	sh	a5,16(a0)
     d9a:	00c55703          	lhu	a4,12(a0)
     d9e:	0045d683          	lhu	a3,4(a1)
     da2:	0085d603          	lhu	a2,8(a1)
     da6:	00a5d783          	lhu	a5,10(a1)
     daa:	8ed1                	or	a3,a3,a2
     dac:	8fd5                	or	a5,a5,a3
     dae:	76fd                	lui	a3,0xfffff
     db0:	9f368693          	addi	a3,a3,-1549 # ffffe9f3 <_eusrstack+0xdfff69f3>
     db4:	8f75                	and	a4,a4,a3
     db6:	8fd9                	or	a5,a5,a4
     db8:	00f51623          	sh	a5,12(a0)
     dbc:	01455783          	lhu	a5,20(a0)
     dc0:	07c2                	slli	a5,a5,0x10
     dc2:	83c1                	srli	a5,a5,0x10
     dc4:	00c5d703          	lhu	a4,12(a1)
     dc8:	cff7f793          	andi	a5,a5,-769
     dcc:	8fd9                	or	a5,a5,a4
     dce:	00f51a23          	sh	a5,20(a0)
     dd2:	0068                	addi	a0,sp,12
     dd4:	3c19                	jal	7ea <RCC_GetClocksFreq>
     dd6:	400147b7          	lui	a5,0x40014
     dda:	80078793          	addi	a5,a5,-2048 # 40013800 <_eusrstack+0x2000b800>
     dde:	04f40963          	beq	s0,a5,e30 <USART_Init+0xb6>
     de2:	4752                	lw	a4,20(sp)
     de4:	00171793          	slli	a5,a4,0x1
     de8:	97ba                	add	a5,a5,a4
     dea:	078e                	slli	a5,a5,0x3
     dec:	97ba                	add	a5,a5,a4
     dee:	4098                	lw	a4,0(s1)
     df0:	070a                	slli	a4,a4,0x2
     df2:	02e7d7b3          	divu	a5,a5,a4
     df6:	06400693          	li	a3,100
     dfa:	02d7d733          	divu	a4,a5,a3
     dfe:	00471593          	slli	a1,a4,0x4
     e02:	10000637          	lui	a2,0x10000
     e06:	167d                	addi	a2,a2,-1 # fffffff <_data_lma+0xfffcd97>
     e08:	8f71                	and	a4,a4,a2
     e0a:	02d70733          	mul	a4,a4,a3
     e0e:	8f99                	sub	a5,a5,a4
     e10:	0792                	slli	a5,a5,0x4
     e12:	03278793          	addi	a5,a5,50
     e16:	02d7d7b3          	divu	a5,a5,a3
     e1a:	8bbd                	andi	a5,a5,15
     e1c:	8fcd                	or	a5,a5,a1
     e1e:	07c2                	slli	a5,a5,0x10
     e20:	83c1                	srli	a5,a5,0x10
     e22:	00f41423          	sh	a5,8(s0)
     e26:	50b2                	lw	ra,44(sp)
     e28:	5422                	lw	s0,40(sp)
     e2a:	5492                	lw	s1,36(sp)
     e2c:	6145                	addi	sp,sp,48
     e2e:	8082                	ret
     e30:	4762                	lw	a4,24(sp)
     e32:	bf4d                	j	de4 <USART_Init+0x6a>

00000e34 <USART_Cmd>:
     e34:	c991                	beqz	a1,e48 <USART_Cmd+0x14>
     e36:	00c55783          	lhu	a5,12(a0)
     e3a:	6709                	lui	a4,0x2
     e3c:	8fd9                	or	a5,a5,a4
     e3e:	07c2                	slli	a5,a5,0x10
     e40:	83c1                	srli	a5,a5,0x10
     e42:	00f51623          	sh	a5,12(a0)
     e46:	8082                	ret
     e48:	00c55783          	lhu	a5,12(a0)
     e4c:	7779                	lui	a4,0xffffe
     e4e:	177d                	addi	a4,a4,-1 # ffffdfff <_eusrstack+0xdfff5fff>
     e50:	8ff9                	and	a5,a5,a4
     e52:	00f51623          	sh	a5,12(a0)
     e56:	8082                	ret

00000e58 <USART_DMACmd>:
     e58:	c619                	beqz	a2,e66 <USART_DMACmd+0xe>
     e5a:	01455783          	lhu	a5,20(a0)
     e5e:	8fcd                	or	a5,a5,a1
     e60:	00f51a23          	sh	a5,20(a0)
     e64:	8082                	ret
     e66:	01455783          	lhu	a5,20(a0)
     e6a:	fff5c593          	not	a1,a1
     e6e:	8dfd                	and	a1,a1,a5
     e70:	00b51a23          	sh	a1,20(a0)
     e74:	8082                	ret

00000e76 <USART_SendData>:
     e76:	1ff5f593          	andi	a1,a1,511
     e7a:	00b51223          	sh	a1,4(a0)
     e7e:	8082                	ret

00000e80 <USART_GetFlagStatus>:
     e80:	00055783          	lhu	a5,0(a0)
     e84:	8fed                	and	a5,a5,a1
     e86:	c399                	beqz	a5,e8c <USART_GetFlagStatus+0xc>
     e88:	4505                	li	a0,1
     e8a:	8082                	ret
     e8c:	4501                	li	a0,0
     e8e:	8082                	ret

00000e90 <USART_ClearFlag>:
     e90:	fff5c593          	not	a1,a1
     e94:	05c2                	slli	a1,a1,0x10
     e96:	81c1                	srli	a1,a1,0x10
     e98:	00b51023          	sh	a1,0(a0)
     e9c:	8082                	ret

00000e9e <ADC1_2_IRQHandler>:
     e9e:	a001                	j	e9e <ADC1_2_IRQHandler>

00000ea0 <handle_reset>:
     ea0:	20000197          	auipc	gp,0x20000
     ea4:	e6818193          	addi	gp,gp,-408 # 20000d08 <__global_pointer$>
     ea8:	20007117          	auipc	sp,0x20007
     eac:	15810113          	addi	sp,sp,344 # 20008000 <_eusrstack>
     eb0:	00002517          	auipc	a0,0x2
     eb4:	3b850513          	addi	a0,a0,952 # 3268 <_data_lma>
     eb8:	1ffff597          	auipc	a1,0x1ffff
     ebc:	14858593          	addi	a1,a1,328 # 20000000 <APBAHBPrescTable>
     ec0:	82018613          	addi	a2,gp,-2016 # 20000528 <p_ms>
     ec4:	00c5fa63          	bgeu	a1,a2,ed8 <handle_reset+0x38>
     ec8:	00052283          	lw	t0,0(a0)
     ecc:	0055a023          	sw	t0,0(a1)
     ed0:	0511                	addi	a0,a0,4
     ed2:	0591                	addi	a1,a1,4
     ed4:	fec5eae3          	bltu	a1,a2,ec8 <handle_reset+0x28>
     ed8:	82018513          	addi	a0,gp,-2016 # 20000528 <p_ms>
     edc:	20001597          	auipc	a1,0x20001
     ee0:	71458593          	addi	a1,a1,1812 # 200025f0 <_ebss>
     ee4:	00b57763          	bgeu	a0,a1,ef2 <handle_reset+0x52>
     ee8:	00052023          	sw	zero,0(a0)
     eec:	0511                	addi	a0,a0,4
     eee:	feb56de3          	bltu	a0,a1,ee8 <handle_reset+0x48>
     ef2:	42fd                	li	t0,31
     ef4:	bc029073          	csrw	0xbc0,t0
     ef8:	42ad                	li	t0,11
     efa:	80429073          	csrw	0x804,t0
     efe:	6299                	lui	t0,0x6
     f00:	08828293          	addi	t0,t0,136 # 6088 <_data_lma+0x2e20>
     f04:	30029073          	csrw	mstatus,t0
     f08:	fffff297          	auipc	t0,0xfffff
     f0c:	0fc28293          	addi	t0,t0,252 # 4 <_einit>
     f10:	0032e293          	ori	t0,t0,3
     f14:	30529073          	csrw	mtvec,t0
     f18:	438010ef          	jal	ra,2350 <SystemInit>
     f1c:	00001297          	auipc	t0,0x1
     f20:	28a28293          	addi	t0,t0,650 # 21a6 <main>
     f24:	34129073          	csrw	mepc,t0
     f28:	30200073          	mret

00000f2c <RCC_Configuration>:
     f2c:	1141                	addi	sp,sp,-16
     f2e:	c606                	sw	ra,12(sp)
     f30:	4585                	li	a1,1
     f32:	4511                	li	a0,4
     f34:	3455                	jal	9d8 <RCC_APB2PeriphClockCmd>
     f36:	4585                	li	a1,1
     f38:	00020537          	lui	a0,0x20
     f3c:	3c6d                	jal	9f6 <RCC_APB1PeriphClockCmd>
     f3e:	4585                	li	a1,1
     f40:	4505                	li	a0,1
     f42:	3c55                	jal	9f6 <RCC_APB1PeriphClockCmd>
     f44:	4585                	li	a1,1
     f46:	4505                	li	a0,1
     f48:	3c8d                	jal	9ba <RCC_AHBPeriphClockCmd>
     f4a:	4501                	li	a0,0
     f4c:	40b2                	lw	ra,12(sp)
     f4e:	0141                	addi	sp,sp,16
     f50:	8082                	ret

00000f52 <TIM2_Init>:
     f52:	1101                	addi	sp,sp,-32
     f54:	ce06                	sw	ra,28(sp)
     f56:	c202                	sw	zero,4(sp)
     f58:	c402                	sw	zero,8(sp)
     f5a:	00011623          	sh	zero,12(sp)
     f5e:	40000537          	lui	a0,0x40000
     f62:	3ead                	jal	adc <TIM_DeInit>
     f64:	06300793          	li	a5,99
     f68:	00f11423          	sh	a5,8(sp)
     f6c:	8101a783          	lw	a5,-2032(gp) # 20000518 <SystemCoreClock>
     f70:	000f4737          	lui	a4,0xf4
     f74:	24070713          	addi	a4,a4,576 # f4240 <_data_lma+0xf0fd8>
     f78:	02e7d7b3          	divu	a5,a5,a4
     f7c:	17fd                	addi	a5,a5,-1
     f7e:	00f11223          	sh	a5,4(sp)
     f82:	00011523          	sh	zero,10(sp)
     f86:	00011323          	sh	zero,6(sp)
     f8a:	004c                	addi	a1,sp,4
     f8c:	40000537          	lui	a0,0x40000
     f90:	318d                	jal	bf2 <TIM_TimeBaseInit>
     f92:	4585                	li	a1,1
     f94:	40000537          	lui	a0,0x40000
     f98:	3bd1                	jal	d6c <TIM_ClearFlag>
     f9a:	4605                	li	a2,1
     f9c:	4585                	li	a1,1
     f9e:	40000537          	lui	a0,0x40000
     fa2:	33a1                	jal	cea <TIM_ITConfig>
     fa4:	e000e7b7          	lui	a5,0xe000e
     fa8:	6705                	lui	a4,0x1
     faa:	10e7a223          	sw	a4,260(a5) # e000e104 <_eusrstack+0xc0006104>
     fae:	4585                	li	a1,1
     fb0:	40000537          	lui	a0,0x40000
     fb4:	3b09                	jal	cc6 <TIM_Cmd>
     fb6:	40f2                	lw	ra,28(sp)
     fb8:	6105                	addi	sp,sp,32
     fba:	8082                	ret

00000fbc <UART2_CfgInit>:
     fbc:	7139                	addi	sp,sp,-64
     fbe:	de06                	sw	ra,60(sp)
     fc0:	dc22                	sw	s0,56(sp)
     fc2:	da26                	sw	s1,52(sp)
     fc4:	d84a                	sw	s2,48(sp)
     fc6:	d64e                	sw	s3,44(sp)
     fc8:	d452                	sw	s4,40(sp)
     fca:	d256                	sw	s5,36(sp)
     fcc:	d05a                	sw	s6,32(sp)
     fce:	89aa                	mv	s3,a0
     fd0:	892e                	mv	s2,a1
     fd2:	84b2                	mv	s1,a2
     fd4:	c802                	sw	zero,16(sp)
     fd6:	ca02                	sw	zero,20(sp)
     fd8:	cc02                	sw	zero,24(sp)
     fda:	ce02                	sw	zero,28(sp)
     fdc:	c202                	sw	zero,4(sp)
     fde:	c402                	sw	zero,8(sp)
     fe0:	c602                	sw	zero,12(sp)
     fe2:	4591                	li	a1,4
     fe4:	40011437          	lui	s0,0x40011
     fe8:	80040513          	addi	a0,s0,-2048 # 40010800 <_eusrstack+0x20008800>
     fec:	ff4ff0ef          	jal	ra,7e0 <GPIO_SetBits>
     ff0:	4b11                	li	s6,4
     ff2:	01611223          	sh	s6,4(sp)
     ff6:	4a0d                	li	s4,3
     ff8:	c452                	sw	s4,8(sp)
     ffa:	4ac1                	li	s5,16
     ffc:	c656                	sw	s5,12(sp)
     ffe:	004c                	addi	a1,sp,4
    1000:	80040513          	addi	a0,s0,-2048
    1004:	f04ff0ef          	jal	ra,708 <GPIO_Init>
    1008:	40004737          	lui	a4,0x40004
    100c:	40c75783          	lhu	a5,1036(a4) # 4000440c <_eusrstack+0x1fffc40c>
    1010:	07c2                	slli	a5,a5,0x10
    1012:	83c1                	srli	a5,a5,0x10
    1014:	9bcd                	andi	a5,a5,-13
    1016:	07c2                	slli	a5,a5,0x10
    1018:	83c1                	srli	a5,a5,0x10
    101a:	40f71623          	sh	a5,1036(a4)
    101e:	47a1                	li	a5,8
    1020:	00f11223          	sh	a5,4(sp)
    1024:	04800793          	li	a5,72
    1028:	c63e                	sw	a5,12(sp)
    102a:	004c                	addi	a1,sp,4
    102c:	80040513          	addi	a0,s0,-2048
    1030:	ed8ff0ef          	jal	ra,708 <GPIO_Init>
    1034:	01611223          	sh	s6,4(sp)
    1038:	c452                	sw	s4,8(sp)
    103a:	47e1                	li	a5,24
    103c:	c63e                	sw	a5,12(sp)
    103e:	004c                	addi	a1,sp,4
    1040:	80040513          	addi	a0,s0,-2048
    1044:	ec4ff0ef          	jal	ra,708 <GPIO_Init>
    1048:	77e1                	lui	a5,0xffff8
    104a:	00f11223          	sh	a5,4(sp)
    104e:	c452                	sw	s4,8(sp)
    1050:	c656                	sw	s5,12(sp)
    1052:	004c                	addi	a1,sp,4
    1054:	80040513          	addi	a0,s0,-2048
    1058:	eb0ff0ef          	jal	ra,708 <GPIO_Init>
    105c:	c84e                	sw	s3,16(sp)
    105e:	00011a23          	sh	zero,20(sp)
    1062:	4785                	li	a5,1
    1064:	04f90d63          	beq	s2,a5,10be <UART2_CfgInit+0x102>
    1068:	4789                	li	a5,2
    106a:	04f90e63          	beq	s2,a5,10c6 <UART2_CfgInit+0x10a>
    106e:	00011b23          	sh	zero,22(sp)
    1072:	4785                	li	a5,1
    1074:	04f48d63          	beq	s1,a5,10ce <UART2_CfgInit+0x112>
    1078:	4789                	li	a5,2
    107a:	06f48263          	beq	s1,a5,10de <UART2_CfgInit+0x122>
    107e:	00011c23          	sh	zero,24(sp)
    1082:	00011e23          	sh	zero,28(sp)
    1086:	47b1                	li	a5,12
    1088:	00f11d23          	sh	a5,26(sp)
    108c:	080c                	addi	a1,sp,16
    108e:	40004437          	lui	s0,0x40004
    1092:	40040513          	addi	a0,s0,1024 # 40004400 <_eusrstack+0x1fffc400>
    1096:	31d5                	jal	d7a <USART_Init>
    1098:	04000593          	li	a1,64
    109c:	40040513          	addi	a0,s0,1024
    10a0:	3bc5                	jal	e90 <USART_ClearFlag>
    10a2:	4585                	li	a1,1
    10a4:	40040513          	addi	a0,s0,1024
    10a8:	3371                	jal	e34 <USART_Cmd>
    10aa:	50f2                	lw	ra,60(sp)
    10ac:	5462                	lw	s0,56(sp)
    10ae:	54d2                	lw	s1,52(sp)
    10b0:	5942                	lw	s2,48(sp)
    10b2:	59b2                	lw	s3,44(sp)
    10b4:	5a22                	lw	s4,40(sp)
    10b6:	5a92                	lw	s5,36(sp)
    10b8:	5b02                	lw	s6,32(sp)
    10ba:	6121                	addi	sp,sp,64
    10bc:	8082                	ret
    10be:	678d                	lui	a5,0x3
    10c0:	00f11b23          	sh	a5,22(sp)
    10c4:	b77d                	j	1072 <UART2_CfgInit+0xb6>
    10c6:	6789                	lui	a5,0x2
    10c8:	00f11b23          	sh	a5,22(sp)
    10cc:	b75d                	j	1072 <UART2_CfgInit+0xb6>
    10ce:	60000793          	li	a5,1536
    10d2:	00f11c23          	sh	a5,24(sp)
    10d6:	6785                	lui	a5,0x1
    10d8:	00f11a23          	sh	a5,20(sp)
    10dc:	b75d                	j	1082 <UART2_CfgInit+0xc6>
    10de:	40000793          	li	a5,1024
    10e2:	00f11c23          	sh	a5,24(sp)
    10e6:	6785                	lui	a5,0x1
    10e8:	00f11a23          	sh	a5,20(sp)
    10ec:	bf59                	j	1082 <UART2_CfgInit+0xc6>

000010ee <UART2_ParaInit>:
    10ee:	46018793          	addi	a5,gp,1120 # 20001168 <Uart>
    10f2:	00079023          	sh	zero,0(a5) # 1000 <UART2_CfgInit+0x44>
    10f6:	00079123          	sh	zero,2(a5)
    10fa:	00079223          	sh	zero,4(a5)
    10fe:	00078323          	sb	zero,6(a5)
    1102:	4779                	li	a4,30
    1104:	00e783a3          	sb	a4,7(a5)
    1108:	00079423          	sh	zero,8(a5)
    110c:	00079523          	sh	zero,10(a5)
    1110:	00079623          	sh	zero,12(a5)
    1114:	4781                	li	a5,0
    1116:	a819                	j	112c <UART2_ParaInit+0x3e>
    1118:	00179693          	slli	a3,a5,0x1
    111c:	46018713          	addi	a4,gp,1120 # 20001168 <Uart>
    1120:	9736                	add	a4,a4,a3
    1122:	00071723          	sh	zero,14(a4)
    1126:	0785                	addi	a5,a5,1
    1128:	0ff7f793          	zext.b	a5,a5
    112c:	4705                	li	a4,1
    112e:	fef775e3          	bgeu	a4,a5,1118 <UART2_ParaInit+0x2a>
    1132:	46018793          	addi	a5,gp,1120 # 20001168 <Uart>
    1136:	00078923          	sb	zero,18(a5)
    113a:	00079a23          	sh	zero,20(a5)
    113e:	00079b23          	sh	zero,22(a5)
    1142:	00078c23          	sb	zero,24(a5)
    1146:	00079d23          	sh	zero,26(a5)
    114a:	00078e23          	sb	zero,28(a5)
    114e:	00078ea3          	sb	zero,29(a5)
    1152:	8201a623          	sw	zero,-2004(gp) # 20000534 <UARTx_Rx_DMACurCount>
    1156:	8201a423          	sw	zero,-2008(gp) # 20000530 <UARTx_Rx_DMALastCount>
    115a:	c905                	beqz	a0,118a <UART2_ParaInit+0x9c>
    115c:	46018793          	addi	a5,gp,1120 # 20001168 <Uart>
    1160:	00078f23          	sb	zero,30(a5)
    1164:	fc200713          	li	a4,-62
    1168:	00e78fa3          	sb	a4,31(a5)
    116c:	4705                	li	a4,1
    116e:	02e78023          	sb	a4,32(a5)
    1172:	020780a3          	sb	zero,33(a5)
    1176:	02078123          	sb	zero,34(a5)
    117a:	020781a3          	sb	zero,35(a5)
    117e:	4721                	li	a4,8
    1180:	02e78223          	sb	a4,36(a5)
    1184:	4779                	li	a4,30
    1186:	02e782a3          	sb	a4,37(a5)
    118a:	8082                	ret

0000118c <UART2_DMAInit>:
    118c:	7139                	addi	sp,sp,-64
    118e:	de06                	sw	ra,60(sp)
    1190:	dc22                	sw	s0,56(sp)
    1192:	da26                	sw	s1,52(sp)
    1194:	d84a                	sw	s2,48(sp)
    1196:	84ae                	mv	s1,a1
    1198:	8432                	mv	s0,a2
    119a:	c202                	sw	zero,4(sp)
    119c:	c402                	sw	zero,8(sp)
    119e:	c602                	sw	zero,12(sp)
    11a0:	c802                	sw	zero,16(sp)
    11a2:	ca02                	sw	zero,20(sp)
    11a4:	cc02                	sw	zero,24(sp)
    11a6:	ce02                	sw	zero,28(sp)
    11a8:	d002                	sw	zero,32(sp)
    11aa:	d202                	sw	zero,36(sp)
    11ac:	d402                	sw	zero,40(sp)
    11ae:	d602                	sw	zero,44(sp)
    11b0:	e931                	bnez	a0,1204 <UART2_DMAInit+0x78>
    11b2:	40020937          	lui	s2,0x40020
    11b6:	08090513          	addi	a0,s2,128 # 40020080 <_eusrstack+0x20018080>
    11ba:	a00ff0ef          	jal	ra,3ba <DMA_DeInit>
    11be:	400047b7          	lui	a5,0x40004
    11c2:	40478793          	addi	a5,a5,1028 # 40004404 <_eusrstack+0x1fffc404>
    11c6:	c23e                	sw	a5,4(sp)
    11c8:	c426                	sw	s1,8(sp)
    11ca:	47c1                	li	a5,16
    11cc:	c63e                	sw	a5,12(sp)
    11ce:	c822                	sw	s0,16(sp)
    11d0:	ca02                	sw	zero,20(sp)
    11d2:	08000793          	li	a5,128
    11d6:	cc3e                	sw	a5,24(sp)
    11d8:	ce02                	sw	zero,28(sp)
    11da:	d002                	sw	zero,32(sp)
    11dc:	d202                	sw	zero,36(sp)
    11de:	6785                	lui	a5,0x1
    11e0:	d43e                	sw	a5,40(sp)
    11e2:	d602                	sw	zero,44(sp)
    11e4:	004c                	addi	a1,sp,4
    11e6:	08090513          	addi	a0,s2,128
    11ea:	c00ff0ef          	jal	ra,5ea <DMA_Init>
    11ee:	4585                	li	a1,1
    11f0:	08090513          	addi	a0,s2,128
    11f4:	c5cff0ef          	jal	ra,650 <DMA_Cmd>
    11f8:	50f2                	lw	ra,60(sp)
    11fa:	5462                	lw	s0,56(sp)
    11fc:	54d2                	lw	s1,52(sp)
    11fe:	5942                	lw	s2,48(sp)
    1200:	6121                	addi	sp,sp,64
    1202:	8082                	ret
    1204:	40020937          	lui	s2,0x40020
    1208:	06c90513          	addi	a0,s2,108 # 4002006c <_eusrstack+0x2001806c>
    120c:	9aeff0ef          	jal	ra,3ba <DMA_DeInit>
    1210:	400047b7          	lui	a5,0x40004
    1214:	40478793          	addi	a5,a5,1028 # 40004404 <_eusrstack+0x1fffc404>
    1218:	c23e                	sw	a5,4(sp)
    121a:	c426                	sw	s1,8(sp)
    121c:	c602                	sw	zero,12(sp)
    121e:	c822                	sw	s0,16(sp)
    1220:	ca02                	sw	zero,20(sp)
    1222:	08000793          	li	a5,128
    1226:	cc3e                	sw	a5,24(sp)
    1228:	ce02                	sw	zero,28(sp)
    122a:	d002                	sw	zero,32(sp)
    122c:	02000793          	li	a5,32
    1230:	d23e                	sw	a5,36(sp)
    1232:	6785                	lui	a5,0x1
    1234:	d43e                	sw	a5,40(sp)
    1236:	d602                	sw	zero,44(sp)
    1238:	004c                	addi	a1,sp,4
    123a:	06c90513          	addi	a0,s2,108
    123e:	bacff0ef          	jal	ra,5ea <DMA_Init>
    1242:	4585                	li	a1,1
    1244:	06c90513          	addi	a0,s2,108
    1248:	c08ff0ef          	jal	ra,650 <DMA_Cmd>
    124c:	b775                	j	11f8 <UART2_DMAInit+0x6c>

0000124e <UART2_Init>:
    124e:	1101                	addi	sp,sp,-32
    1250:	ce06                	sw	ra,28(sp)
    1252:	cc22                	sw	s0,24(sp)
    1254:	ca26                	sw	s1,20(sp)
    1256:	c84a                	sw	s2,16(sp)
    1258:	c64e                	sw	s3,12(sp)
    125a:	c452                	sw	s4,8(sp)
    125c:	c256                	sw	s5,4(sp)
    125e:	842a                	mv	s0,a0
    1260:	84ae                	mv	s1,a1
    1262:	8932                	mv	s2,a2
    1264:	89b6                	mv	s3,a3
    1266:	4601                	li	a2,0
    1268:	04000593          	li	a1,64
    126c:	40004a37          	lui	s4,0x40004
    1270:	400a0513          	addi	a0,s4,1024 # 40004400 <_eusrstack+0x1fffc400>
    1274:	36d5                	jal	e58 <USART_DMACmd>
    1276:	4581                	li	a1,0
    1278:	40020ab7          	lui	s5,0x40020
    127c:	06ca8513          	addi	a0,s5,108 # 4002006c <_eusrstack+0x2001806c>
    1280:	bd0ff0ef          	jal	ra,650 <DMA_Cmd>
    1284:	4581                	li	a1,0
    1286:	080a8513          	addi	a0,s5,128
    128a:	bc6ff0ef          	jal	ra,650 <DMA_Cmd>
    128e:	864e                	mv	a2,s3
    1290:	85ca                	mv	a1,s2
    1292:	8526                	mv	a0,s1
    1294:	3325                	jal	fbc <UART2_CfgInit>
    1296:	4601                	li	a2,0
    1298:	06018593          	addi	a1,gp,96 # 20000d68 <UART2_Tx_Buf>
    129c:	4501                	li	a0,0
    129e:	35fd                	jal	118c <UART2_DMAInit>
    12a0:	6605                	lui	a2,0x1
    12a2:	80060613          	addi	a2,a2,-2048 # 800 <__stack_size>
    12a6:	1ffff597          	auipc	a1,0x1ffff
    12aa:	2c258593          	addi	a1,a1,706 # 20000568 <UART2_Rx_Buf>
    12ae:	4505                	li	a0,1
    12b0:	3df1                	jal	118c <UART2_DMAInit>
    12b2:	4605                	li	a2,1
    12b4:	04000593          	li	a1,64
    12b8:	400a0513          	addi	a0,s4,1024
    12bc:	3e71                	jal	e58 <USART_DMACmd>
    12be:	8522                	mv	a0,s0
    12c0:	353d                	jal	10ee <UART2_ParaInit>
    12c2:	40f2                	lw	ra,28(sp)
    12c4:	4462                	lw	s0,24(sp)
    12c6:	44d2                	lw	s1,20(sp)
    12c8:	4942                	lw	s2,16(sp)
    12ca:	49b2                	lw	s3,12(sp)
    12cc:	4a22                	lw	s4,8(sp)
    12ce:	4a92                	lw	s5,4(sp)
    12d0:	6105                	addi	sp,sp,32
    12d2:	8082                	ret

000012d4 <UART2_USB_Init>:
    12d4:	1141                	addi	sp,sp,-16
    12d6:	c606                	sw	ra,12(sp)
    12d8:	46018793          	addi	a5,gp,1120 # 20001168 <Uart>
    12dc:	0217c703          	lbu	a4,33(a5) # 1021 <UART2_CfgInit+0x65>
    12e0:	0762                	slli	a4,a4,0x18
    12e2:	0207c683          	lbu	a3,32(a5)
    12e6:	06c2                	slli	a3,a3,0x10
    12e8:	9736                	add	a4,a4,a3
    12ea:	01f7c683          	lbu	a3,31(a5)
    12ee:	06a2                	slli	a3,a3,0x8
    12f0:	01e7c583          	lbu	a1,30(a5)
    12f4:	95b6                	add	a1,a1,a3
    12f6:	0227c603          	lbu	a2,34(a5)
    12fa:	0237c683          	lbu	a3,35(a5)
    12fe:	95ba                	add	a1,a1,a4
    1300:	4501                	li	a0,0
    1302:	37b1                	jal	124e <UART2_Init>
    1304:	400237b7          	lui	a5,0x40023
    1308:	06018713          	addi	a4,gp,96 # 20000d68 <UART2_Tx_Buf>
    130c:	42e7a223          	sw	a4,1060(a5) # 40023424 <_eusrstack+0x2001b424>
    1310:	4e37c703          	lbu	a4,1251(a5)
    1314:	0fc77713          	andi	a4,a4,252
    1318:	4ee781a3          	sb	a4,1251(a5)
    131c:	4e37c703          	lbu	a4,1251(a5)
    1320:	0ff77713          	zext.b	a4,a4
    1324:	4ee781a3          	sb	a4,1251(a5)
    1328:	40b2                	lw	ra,12(sp)
    132a:	0141                	addi	sp,sp,16
    132c:	8082                	ret

0000132e <USBHS_RCC_Init>:
    132e:	1141                	addi	sp,sp,-16
    1330:	c606                	sw	ra,12(sp)
    1332:	4505                	li	a0,1
    1334:	f8eff0ef          	jal	ra,ac2 <RCC_USBCLK48MConfig>
    1338:	4501                	li	a0,0
    133a:	f30ff0ef          	jal	ra,a6a <RCC_USBHSPLLCLKConfig>
    133e:	4505                	li	a0,1
    1340:	f10ff0ef          	jal	ra,a50 <RCC_USBHSConfig>
    1344:	4505                	li	a0,1
    1346:	f3eff0ef          	jal	ra,a84 <RCC_USBHSPLLCKREFCLKConfig>
    134a:	4505                	li	a0,1
    134c:	f52ff0ef          	jal	ra,a9e <RCC_USBHSPHYPLLALIVEcmd>
    1350:	4585                	li	a1,1
    1352:	6505                	lui	a0,0x1
    1354:	80050513          	addi	a0,a0,-2048 # 800 <__stack_size>
    1358:	e62ff0ef          	jal	ra,9ba <RCC_AHBPeriphClockCmd>
    135c:	40b2                	lw	ra,12(sp)
    135e:	0141                	addi	sp,sp,16
    1360:	8082                	ret

00001362 <USBHS_Device_Endp_Init>:
    1362:	400237b7          	lui	a5,0x40023
    1366:	40078793          	addi	a5,a5,1024 # 40023400 <_eusrstack+0x2001b400>
    136a:	000c0737          	lui	a4,0xc0
    136e:	0731                	addi	a4,a4,12 # c000c <_data_lma+0xbcda4>
    1370:	cb98                	sw	a4,16(a5)
    1372:	04000713          	li	a4,64
    1376:	08e79c23          	sh	a4,152(a5)
    137a:	20000713          	li	a4,512
    137e:	0ae79023          	sh	a4,160(a5)
    1382:	0ae79223          	sh	a4,164(a5)
    1386:	20000717          	auipc	a4,0x20000
    138a:	21e70713          	addi	a4,a4,542 # 200015a4 <USBHS_EP0_Buf>
    138e:	cfd8                	sw	a4,28(a5)
    1390:	49c18713          	addi	a4,gp,1180 # 200011a4 <USBHS_EP3_Tx_Buf>
    1394:	d798                	sw	a4,40(a5)
    1396:	06018713          	addi	a4,gp,96 # 20000d68 <UART2_Tx_Buf>
    139a:	d3d8                	sw	a4,36(a5)
    139c:	20000717          	auipc	a4,0x20000
    13a0:	00870713          	addi	a4,a4,8 # 200013a4 <USBHS_EP2_Tx_Buf>
    13a4:	d3b8                	sw	a4,96(a5)
    13a6:	0c079c23          	sh	zero,216(a5)
    13aa:	4709                	li	a4,2
    13ac:	0ce78d23          	sb	a4,218(a5)
    13b0:	0c078da3          	sb	zero,219(a5)
    13b4:	0e079023          	sh	zero,224(a5)
    13b8:	0ee78123          	sb	a4,226(a5)
    13bc:	0e0781a3          	sb	zero,227(a5)
    13c0:	0e079223          	sh	zero,228(a5)
    13c4:	0ee78323          	sb	a4,230(a5)
    13c8:	0e0783a3          	sb	zero,231(a5)
    13cc:	4781                	li	a5,0
    13ce:	a809                	j	13e0 <USBHS_Device_Endp_Init+0x7e>
    13d0:	48c18713          	addi	a4,gp,1164 # 20001194 <USBHS_Endp_Busy>
    13d4:	973e                	add	a4,a4,a5
    13d6:	00070023          	sb	zero,0(a4)
    13da:	0785                	addi	a5,a5,1
    13dc:	0ff7f793          	zext.b	a5,a5
    13e0:	473d                	li	a4,15
    13e2:	fef777e3          	bgeu	a4,a5,13d0 <USBHS_Device_Endp_Init+0x6e>
    13e6:	8082                	ret

000013e8 <USBHS_Device_Init>:
    13e8:	1141                	addi	sp,sp,-16
    13ea:	c606                	sw	ra,12(sp)
    13ec:	c422                	sw	s0,8(sp)
    13ee:	c226                	sw	s1,4(sp)
    13f0:	cd21                	beqz	a0,1448 <USBHS_Device_Init+0x60>
    13f2:	40023437          	lui	s0,0x40023
    13f6:	4799                	li	a5,6
    13f8:	40f40023          	sb	a5,1024(s0) # 40023400 <_eusrstack+0x2001b400>
    13fc:	4529                	li	a0,10
    13fe:	e0ffe0ef          	jal	ra,20c <Delay_Us>
    1402:	40044783          	lbu	a5,1024(s0)
    1406:	0fb7f793          	andi	a5,a5,251
    140a:	40f40023          	sb	a5,1024(s0)
    140e:	47c1                	li	a5,16
    1410:	40f400a3          	sb	a5,1025(s0)
    1414:	02900793          	li	a5,41
    1418:	40f40023          	sb	a5,1024(s0)
    141c:	02700793          	li	a5,39
    1420:	40f40123          	sb	a5,1026(s0)
    1424:	3f3d                	jal	1362 <USBHS_Device_Endp_Init>
    1426:	40044783          	lbu	a5,1024(s0)
    142a:	0107e793          	ori	a5,a5,16
    142e:	40f40023          	sb	a5,1024(s0)
    1432:	e000e7b7          	lui	a5,0xe000e
    1436:	00200737          	lui	a4,0x200
    143a:	10e7a423          	sw	a4,264(a5) # e000e108 <_eusrstack+0xc0006108>
    143e:	40b2                	lw	ra,12(sp)
    1440:	4422                	lw	s0,8(sp)
    1442:	4492                	lw	s1,4(sp)
    1444:	0141                	addi	sp,sp,16
    1446:	8082                	ret
    1448:	40023437          	lui	s0,0x40023
    144c:	4799                	li	a5,6
    144e:	40f40023          	sb	a5,1024(s0) # 40023400 <_eusrstack+0x2001b400>
    1452:	4529                	li	a0,10
    1454:	db9fe0ef          	jal	ra,20c <Delay_Us>
    1458:	40040023          	sb	zero,1024(s0)
    145c:	e000e7b7          	lui	a5,0xe000e
    1460:	00200737          	lui	a4,0x200
    1464:	18e7a423          	sw	a4,392(a5) # e000e188 <_eusrstack+0xc0006188>
    1468:	bfd9                	j	143e <USBHS_Device_Init+0x56>

0000146a <USBHS_IRQHandler>:
    146a:	711d                	addi	sp,sp,-96
    146c:	cea2                	sw	s0,92(sp)
    146e:	cca6                	sw	s1,88(sp)
    1470:	caca                	sw	s2,84(sp)
    1472:	c8ce                	sw	s3,80(sp)
    1474:	e682                	fsw	ft0,76(sp)
    1476:	e486                	fsw	ft1,72(sp)
    1478:	e28a                	fsw	ft2,68(sp)
    147a:	e08e                	fsw	ft3,64(sp)
    147c:	fe12                	fsw	ft4,60(sp)
    147e:	fc16                	fsw	ft5,56(sp)
    1480:	fa1a                	fsw	ft6,52(sp)
    1482:	f81e                	fsw	ft7,48(sp)
    1484:	f62a                	fsw	fa0,44(sp)
    1486:	f42e                	fsw	fa1,40(sp)
    1488:	f232                	fsw	fa2,36(sp)
    148a:	f036                	fsw	fa3,32(sp)
    148c:	ee3a                	fsw	fa4,28(sp)
    148e:	ec3e                	fsw	fa5,24(sp)
    1490:	ea42                	fsw	fa6,20(sp)
    1492:	e846                	fsw	fa7,16(sp)
    1494:	e672                	fsw	ft8,12(sp)
    1496:	e476                	fsw	ft9,8(sp)
    1498:	e27a                	fsw	ft10,4(sp)
    149a:	e07e                	fsw	ft11,0(sp)
    149c:	400237b7          	lui	a5,0x40023
    14a0:	40a7c703          	lbu	a4,1034(a5) # 4002340a <_eusrstack+0x2001b40a>
    14a4:	40078793          	addi	a5,a5,1024
    14a8:	00b7c783          	lbu	a5,11(a5)
    14ac:	00277413          	andi	s0,a4,2
    14b0:	2a040a63          	beqz	s0,1764 <USBHS_IRQHandler+0x2fa>
    14b4:	0ff7f793          	zext.b	a5,a5
    14b8:	0307f713          	andi	a4,a5,48
    14bc:	16070963          	beqz	a4,162e <USBHS_IRQHandler+0x1c4>
    14c0:	02000693          	li	a3,32
    14c4:	02d71063          	bne	a4,a3,14e4 <USBHS_IRQHandler+0x7a>
    14c8:	03f7f793          	andi	a5,a5,63
    14cc:	02200713          	li	a4,34
    14d0:	0ee78b63          	beq	a5,a4,15c6 <USBHS_IRQHandler+0x15c>
    14d4:	02300713          	li	a4,35
    14d8:	12e78263          	beq	a5,a4,15fc <USBHS_IRQHandler+0x192>
    14dc:	02000713          	li	a4,32
    14e0:	04e78463          	beq	a5,a4,1528 <USBHS_IRQHandler+0xbe>
    14e4:	400237b7          	lui	a5,0x40023
    14e8:	4709                	li	a4,2
    14ea:	40e78523          	sb	a4,1034(a5) # 4002340a <_eusrstack+0x2001b40a>
    14ee:	40078793          	addi	a5,a5,1024
    14f2:	4476                	lw	s0,92(sp)
    14f4:	44e6                	lw	s1,88(sp)
    14f6:	4956                	lw	s2,84(sp)
    14f8:	49c6                	lw	s3,80(sp)
    14fa:	6036                	flw	ft0,76(sp)
    14fc:	60a6                	flw	ft1,72(sp)
    14fe:	6116                	flw	ft2,68(sp)
    1500:	6186                	flw	ft3,64(sp)
    1502:	7272                	flw	ft4,60(sp)
    1504:	72e2                	flw	ft5,56(sp)
    1506:	7352                	flw	ft6,52(sp)
    1508:	73c2                	flw	ft7,48(sp)
    150a:	7532                	flw	fa0,44(sp)
    150c:	75a2                	flw	fa1,40(sp)
    150e:	7612                	flw	fa2,36(sp)
    1510:	7682                	flw	fa3,32(sp)
    1512:	6772                	flw	fa4,28(sp)
    1514:	67e2                	flw	fa5,24(sp)
    1516:	6852                	flw	fa6,20(sp)
    1518:	68c2                	flw	fa7,16(sp)
    151a:	6e32                	flw	ft8,12(sp)
    151c:	6ea2                	flw	ft9,8(sp)
    151e:	6f12                	flw	ft10,4(sp)
    1520:	6f82                	flw	ft11,0(sp)
    1522:	6125                	addi	sp,sp,96
    1524:	30200073          	mret
    1528:	8381d783          	lhu	a5,-1992(gp) # 20000540 <USBHS_SetupReqLen>
    152c:	e791                	bnez	a5,1538 <USBHS_IRQHandler+0xce>
    152e:	400237b7          	lui	a5,0x40023
    1532:	4721                	li	a4,8
    1534:	4ce78da3          	sb	a4,1243(a5) # 400234db <_eusrstack+0x2001b4db>
    1538:	83e1c783          	lbu	a5,-1986(gp) # 20000546 <USBHS_SetupReqType>
    153c:	0607f793          	andi	a5,a5,96
    1540:	f3d5                	bnez	a5,14e4 <USBHS_IRQHandler+0x7a>
    1542:	83f1c783          	lbu	a5,-1985(gp) # 20000547 <USBHS_SetupReqCode>
    1546:	4715                	li	a4,5
    1548:	06e78363          	beq	a5,a4,15ae <USBHS_IRQHandler+0x144>
    154c:	4719                	li	a4,6
    154e:	06e79763          	bne	a5,a4,15bc <USBHS_IRQHandler+0x152>
    1552:	8381d703          	lhu	a4,-1992(gp) # 20000540 <USBHS_SetupReqLen>
    1556:	03f00793          	li	a5,63
    155a:	00e7e563          	bltu	a5,a4,1564 <USBHS_IRQHandler+0xfa>
    155e:	8381d403          	lhu	s0,-1992(gp) # 20000540 <USBHS_SetupReqLen>
    1562:	a019                	j	1568 <USBHS_IRQHandler+0xfe>
    1564:	04000413          	li	s0,64
    1568:	84018913          	addi	s2,gp,-1984 # 20000548 <pUSBHS_Descr>
    156c:	00092483          	lw	s1,0(s2)
    1570:	8622                	mv	a2,s0
    1572:	85a6                	mv	a1,s1
    1574:	20000517          	auipc	a0,0x20000
    1578:	03050513          	addi	a0,a0,48 # 200015a4 <USBHS_EP0_Buf>
    157c:	c45fe0ef          	jal	ra,1c0 <memcpy>
    1580:	83818713          	addi	a4,gp,-1992 # 20000540 <USBHS_SetupReqLen>
    1584:	00075783          	lhu	a5,0(a4) # 200000 <_data_lma+0x1fcd98>
    1588:	8f81                	sub	a5,a5,s0
    158a:	07c2                	slli	a5,a5,0x10
    158c:	83c1                	srli	a5,a5,0x10
    158e:	00f71023          	sh	a5,0(a4)
    1592:	94a2                	add	s1,s1,s0
    1594:	00992023          	sw	s1,0(s2)
    1598:	400237b7          	lui	a5,0x40023
    159c:	4c879c23          	sh	s0,1240(a5) # 400234d8 <_eusrstack+0x2001b4d8>
    15a0:	4da7c703          	lbu	a4,1242(a5)
    15a4:	00874713          	xori	a4,a4,8
    15a8:	4ce78d23          	sb	a4,1242(a5)
    15ac:	bf25                	j	14e4 <USBHS_IRQHandler+0x7a>
    15ae:	8361c703          	lbu	a4,-1994(gp) # 2000053e <USBHS_DevAddr>
    15b2:	400237b7          	lui	a5,0x40023
    15b6:	40e781a3          	sb	a4,1027(a5) # 40023403 <_eusrstack+0x2001b403>
    15ba:	b72d                	j	14e4 <USBHS_IRQHandler+0x7a>
    15bc:	400237b7          	lui	a5,0x40023
    15c0:	4c079c23          	sh	zero,1240(a5) # 400234d8 <_eusrstack+0x2001b4d8>
    15c4:	b705                	j	14e4 <USBHS_IRQHandler+0x7a>
    15c6:	400237b7          	lui	a5,0x40023
    15ca:	4e27c703          	lbu	a4,1250(a5) # 400234e2 <_eusrstack+0x2001b4e2>
    15ce:	0fc77713          	andi	a4,a4,252
    15d2:	00276713          	ori	a4,a4,2
    15d6:	4ee78123          	sb	a4,1250(a5)
    15da:	4e27c703          	lbu	a4,1250(a5)
    15de:	00874713          	xori	a4,a4,8
    15e2:	4ee78123          	sb	a4,1250(a5)
    15e6:	48c18713          	addi	a4,gp,1164 # 20001194 <USBHS_Endp_Busy>
    15ea:	00274783          	lbu	a5,2(a4)
    15ee:	0fe7f793          	andi	a5,a5,254
    15f2:	00f70123          	sb	a5,2(a4)
    15f6:	46018c23          	sb	zero,1144(gp) # 20001180 <Uart+0x18>
    15fa:	b5ed                	j	14e4 <USBHS_IRQHandler+0x7a>
    15fc:	400237b7          	lui	a5,0x40023
    1600:	4e67c703          	lbu	a4,1254(a5) # 400234e6 <_eusrstack+0x2001b4e6>
    1604:	0fc77713          	andi	a4,a4,252
    1608:	00276713          	ori	a4,a4,2
    160c:	4ee78323          	sb	a4,1254(a5)
    1610:	4e67c703          	lbu	a4,1254(a5)
    1614:	00874713          	xori	a4,a4,8
    1618:	4ee78323          	sb	a4,1254(a5)
    161c:	48c18713          	addi	a4,gp,1164 # 20001194 <USBHS_Endp_Busy>
    1620:	00374783          	lbu	a5,3(a4)
    1624:	0fe7f793          	andi	a5,a5,254
    1628:	00f701a3          	sb	a5,3(a4)
    162c:	bd65                	j	14e4 <USBHS_IRQHandler+0x7a>
    162e:	03f7f713          	andi	a4,a5,63
    1632:	cb49                	beqz	a4,16c4 <USBHS_IRQHandler+0x25a>
    1634:	4789                	li	a5,2
    1636:	eaf717e3          	bne	a4,a5,14e4 <USBHS_IRQHandler+0x7a>
    163a:	400236b7          	lui	a3,0x40023
    163e:	4e36c783          	lbu	a5,1251(a3) # 400234e3 <_eusrstack+0x2001b4e3>
    1642:	0087c793          	xori	a5,a5,8
    1646:	4ef681a3          	sb	a5,1251(a3)
    164a:	46018713          	addi	a4,gp,1120 # 20001168 <Uart>
    164e:	00874783          	lbu	a5,8(a4)
    1652:	00974603          	lbu	a2,9(a4)
    1656:	0622                	slli	a2,a2,0x8
    1658:	8fd1                	or	a5,a5,a2
    165a:	40c6d603          	lhu	a2,1036(a3)
    165e:	0786                	slli	a5,a5,0x1
    1660:	97ba                	add	a5,a5,a4
    1662:	0ff67593          	zext.b	a1,a2
    1666:	00e7c503          	lbu	a0,14(a5)
    166a:	00b78723          	sb	a1,14(a5)
    166e:	8221                	srli	a2,a2,0x8
    1670:	00f7c583          	lbu	a1,15(a5)
    1674:	00c787a3          	sb	a2,15(a5)
    1678:	00874783          	lbu	a5,8(a4)
    167c:	00974603          	lbu	a2,9(a4)
    1680:	0622                	slli	a2,a2,0x8
    1682:	8fd1                	or	a5,a5,a2
    1684:	0785                	addi	a5,a5,1
    1686:	01079613          	slli	a2,a5,0x10
    168a:	8241                	srli	a2,a2,0x10
    168c:	0ff7f793          	zext.b	a5,a5
    1690:	00874583          	lbu	a1,8(a4)
    1694:	00f70423          	sb	a5,8(a4)
    1698:	00865793          	srli	a5,a2,0x8
    169c:	00974603          	lbu	a2,9(a4)
    16a0:	00f704a3          	sb	a5,9(a4)
    16a4:	20000797          	auipc	a5,0x20000
    16a8:	f4078793          	addi	a5,a5,-192 # 200015e4 <USB_rx_Buf>
    16ac:	42f6a223          	sw	a5,1060(a3)
    16b0:	4785                	li	a5,1
    16b2:	84f18323          	sb	a5,-1978(gp) # 2000054e <usb_rx_flg1>
    16b6:	40c6d783          	lhu	a5,1036(a3)
    16ba:	40068693          	addi	a3,a3,1024
    16be:	84f19223          	sh	a5,-1980(gp) # 2000054c <usb_rx_len>
    16c2:	b50d                	j	14e4 <USBHS_IRQHandler+0x7a>
    16c4:	40023737          	lui	a4,0x40023
    16c8:	40070713          	addi	a4,a4,1024 # 40023400 <_eusrstack+0x2001b400>
    16cc:	00c75703          	lhu	a4,12(a4)
    16d0:	0407f793          	andi	a5,a5,64
    16d4:	e00788e3          	beqz	a5,14e4 <USBHS_IRQHandler+0x7a>
    16d8:	83e1c783          	lbu	a5,-1986(gp) # 20000546 <USBHS_SetupReqType>
    16dc:	0607f793          	andi	a5,a5,96
    16e0:	cb89                	beqz	a5,16f2 <USBHS_IRQHandler+0x288>
    16e2:	82019c23          	sh	zero,-1992(gp) # 20000540 <USBHS_SetupReqLen>
    16e6:	83f1c703          	lbu	a4,-1985(gp) # 20000547 <USBHS_SetupReqCode>
    16ea:	02000793          	li	a5,32
    16ee:	00f70e63          	beq	a4,a5,170a <USBHS_IRQHandler+0x2a0>
    16f2:	8381d783          	lhu	a5,-1992(gp) # 20000540 <USBHS_SetupReqLen>
    16f6:	de0797e3          	bnez	a5,14e4 <USBHS_IRQHandler+0x7a>
    16fa:	400237b7          	lui	a5,0x40023
    16fe:	4c079c23          	sh	zero,1240(a5) # 400234d8 <_eusrstack+0x2001b4d8>
    1702:	4721                	li	a4,8
    1704:	4ce78d23          	sb	a4,1242(a5)
    1708:	bbf1                	j	14e4 <USBHS_IRQHandler+0x7a>
    170a:	20000717          	auipc	a4,0x20000
    170e:	e9a70713          	addi	a4,a4,-358 # 200015a4 <USBHS_EP0_Buf>
    1712:	00074683          	lbu	a3,0(a4)
    1716:	46018793          	addi	a5,gp,1120 # 20001168 <Uart>
    171a:	00d78f23          	sb	a3,30(a5)
    171e:	00174683          	lbu	a3,1(a4)
    1722:	00d78fa3          	sb	a3,31(a5)
    1726:	00274683          	lbu	a3,2(a4)
    172a:	02d78023          	sb	a3,32(a5)
    172e:	00374683          	lbu	a3,3(a4)
    1732:	02d780a3          	sb	a3,33(a5)
    1736:	00474683          	lbu	a3,4(a4)
    173a:	02d78123          	sb	a3,34(a5)
    173e:	00574683          	lbu	a3,5(a4)
    1742:	02d781a3          	sb	a3,35(a5)
    1746:	00674703          	lbu	a4,6(a4)
    174a:	02e78223          	sb	a4,36(a5)
    174e:	4779                	li	a4,30
    1750:	02e782a3          	sb	a4,37(a5)
    1754:	0077c703          	lbu	a4,7(a5)
    1758:	0ff77713          	zext.b	a4,a4
    175c:	02e782a3          	sb	a4,37(a5)
    1760:	3e95                	jal	12d4 <UART2_USB_Init>
    1762:	bf41                	j	16f2 <USBHS_IRQHandler+0x288>
    1764:	0ff77693          	zext.b	a3,a4
    1768:	0206f793          	andi	a5,a3,32
    176c:	5e078263          	beqz	a5,1d50 <USBHS_IRQHandler+0x8e6>
    1770:	400237b7          	lui	a5,0x40023
    1774:	4729                	li	a4,10
    1776:	4ce78d23          	sb	a4,1242(a5) # 400234da <_eusrstack+0x2001b4da>
    177a:	4ce78da3          	sb	a4,1243(a5)
    177e:	20000797          	auipc	a5,0x20000
    1782:	e2678793          	addi	a5,a5,-474 # 200015a4 <USBHS_EP0_Buf>
    1786:	0007c683          	lbu	a3,0(a5)
    178a:	83e18713          	addi	a4,gp,-1986 # 20000546 <USBHS_SetupReqType>
    178e:	00d70023          	sb	a3,0(a4)
    1792:	0017c683          	lbu	a3,1(a5)
    1796:	82d18fa3          	sb	a3,-1985(gp) # 20000547 <USBHS_SetupReqCode>
    179a:	0067d683          	lhu	a3,6(a5)
    179e:	82d19c23          	sh	a3,-1992(gp) # 20000540 <USBHS_SetupReqLen>
    17a2:	0027d683          	lhu	a3,2(a5)
    17a6:	82d19e23          	sh	a3,-1988(gp) # 20000544 <USBHS_SetupReqValue>
    17aa:	0047d783          	lhu	a5,4(a5)
    17ae:	82f19d23          	sh	a5,-1990(gp) # 20000542 <USBHS_SetupReqIndex>
    17b2:	00074483          	lbu	s1,0(a4)
    17b6:	0604f493          	andi	s1,s1,96
    17ba:	ccc5                	beqz	s1,1872 <USBHS_IRQHandler+0x408>
    17bc:	83e1c783          	lbu	a5,-1986(gp) # 20000546 <USBHS_SetupReqType>
    17c0:	0207f793          	andi	a5,a5,32
    17c4:	c7d9                	beqz	a5,1852 <USBHS_IRQHandler+0x3e8>
    17c6:	83f1c783          	lbu	a5,-1985(gp) # 20000547 <USBHS_SetupReqCode>
    17ca:	02100713          	li	a4,33
    17ce:	06e78d63          	beq	a5,a4,1848 <USBHS_IRQHandler+0x3de>
    17d2:	00f77c63          	bgeu	a4,a5,17ea <USBHS_IRQHandler+0x380>
    17d6:	fde78793          	addi	a5,a5,-34
    17da:	0ff7f793          	zext.b	a5,a5
    17de:	4705                	li	a4,1
    17e0:	00f77963          	bgeu	a4,a5,17f2 <USBHS_IRQHandler+0x388>
    17e4:	0ff00413          	li	s0,255
    17e8:	a029                	j	17f2 <USBHS_IRQHandler+0x388>
    17ea:	02000713          	li	a4,32
    17ee:	06e79963          	bne	a5,a4,1860 <USBHS_IRQHandler+0x3f6>
    17f2:	8381d703          	lhu	a4,-1992(gp) # 20000540 <USBHS_SetupReqLen>
    17f6:	03f00793          	li	a5,63
    17fa:	06e7e963          	bltu	a5,a4,186c <USBHS_IRQHandler+0x402>
    17fe:	8381d983          	lhu	s3,-1992(gp) # 20000540 <USBHS_SetupReqLen>
    1802:	84018913          	addi	s2,gp,-1984 # 20000548 <pUSBHS_Descr>
    1806:	00092483          	lw	s1,0(s2)
    180a:	864e                	mv	a2,s3
    180c:	85a6                	mv	a1,s1
    180e:	20000517          	auipc	a0,0x20000
    1812:	d9650513          	addi	a0,a0,-618 # 200015a4 <USBHS_EP0_Buf>
    1816:	9abfe0ef          	jal	ra,1c0 <memcpy>
    181a:	94ce                	add	s1,s1,s3
    181c:	00992023          	sw	s1,0(s2)
    1820:	0ff00793          	li	a5,255
    1824:	2cf40c63          	beq	s0,a5,1afc <USBHS_IRQHandler+0x692>
    1828:	83e18783          	lb	a5,-1986(gp) # 20000546 <USBHS_SetupReqType>
    182c:	4e07c063          	bltz	a5,1d0c <USBHS_IRQHandler+0x8a2>
    1830:	8381d783          	lhu	a5,-1992(gp) # 20000540 <USBHS_SetupReqLen>
    1834:	50079863          	bnez	a5,1d44 <USBHS_IRQHandler+0x8da>
    1838:	400237b7          	lui	a5,0x40023
    183c:	4c079c23          	sh	zero,1240(a5) # 400234d8 <_eusrstack+0x2001b4d8>
    1840:	4721                	li	a4,8
    1842:	4ce78d23          	sb	a4,1242(a5)
    1846:	a4d1                	j	1b0a <USBHS_IRQHandler+0x6a0>
    1848:	47e18793          	addi	a5,gp,1150 # 20001186 <Uart+0x1e>
    184c:	84f1a023          	sw	a5,-1984(gp) # 20000548 <pUSBHS_Descr>
    1850:	b74d                	j	17f2 <USBHS_IRQHandler+0x388>
    1852:	83e1c703          	lbu	a4,-1986(gp) # 20000546 <USBHS_SetupReqType>
    1856:	04077713          	andi	a4,a4,64
    185a:	c711                	beqz	a4,1866 <USBHS_IRQHandler+0x3fc>
    185c:	843e                	mv	s0,a5
    185e:	bf51                	j	17f2 <USBHS_IRQHandler+0x388>
    1860:	0ff00413          	li	s0,255
    1864:	b779                	j	17f2 <USBHS_IRQHandler+0x388>
    1866:	0ff00413          	li	s0,255
    186a:	b761                	j	17f2 <USBHS_IRQHandler+0x388>
    186c:	04000993          	li	s3,64
    1870:	bf49                	j	1802 <USBHS_IRQHandler+0x398>
    1872:	83f1c403          	lbu	s0,-1985(gp) # 20000547 <USBHS_SetupReqCode>
    1876:	47ad                	li	a5,11
    1878:	2887e263          	bltu	a5,s0,1afc <USBHS_IRQHandler+0x692>
    187c:	00241793          	slli	a5,s0,0x2
    1880:	00002717          	auipc	a4,0x2
    1884:	83870713          	addi	a4,a4,-1992 # 30b8 <_read+0xc>
    1888:	97ba                	add	a5,a5,a4
    188a:	439c                	lw	a5,0(a5)
    188c:	97ba                	add	a5,a5,a4
    188e:	8782                	jr	a5
    1890:	83c1d783          	lhu	a5,-1988(gp) # 20000544 <USBHS_SetupReqValue>
    1894:	83a1                	srli	a5,a5,0x8
    1896:	471d                	li	a4,7
    1898:	1ef76663          	bltu	a4,a5,1a84 <USBHS_IRQHandler+0x61a>
    189c:	078a                	slli	a5,a5,0x2
    189e:	00002717          	auipc	a4,0x2
    18a2:	84a70713          	addi	a4,a4,-1974 # 30e8 <_read+0x3c>
    18a6:	97ba                	add	a5,a5,a4
    18a8:	439c                	lw	a5,0(a5)
    18aa:	97ba                	add	a5,a5,a4
    18ac:	8782                	jr	a5
    18ae:	00002797          	auipc	a5,0x2
    18b2:	92e78793          	addi	a5,a5,-1746 # 31dc <MyDevDescr>
    18b6:	84f1a023          	sw	a5,-1984(gp) # 20000548 <pUSBHS_Descr>
    18ba:	0007c783          	lbu	a5,0(a5)
    18be:	8426                	mv	s0,s1
    18c0:	8381d703          	lhu	a4,-1992(gp) # 20000540 <USBHS_SetupReqLen>
    18c4:	00e7f463          	bgeu	a5,a4,18cc <USBHS_IRQHandler+0x462>
    18c8:	82f19c23          	sh	a5,-1992(gp) # 20000540 <USBHS_SetupReqLen>
    18cc:	8381d703          	lhu	a4,-1992(gp) # 20000540 <USBHS_SetupReqLen>
    18d0:	03f00793          	li	a5,63
    18d4:	1ae7ec63          	bltu	a5,a4,1a8c <USBHS_IRQHandler+0x622>
    18d8:	8381d983          	lhu	s3,-1992(gp) # 20000540 <USBHS_SetupReqLen>
    18dc:	aa55                	j	1a90 <USBHS_IRQHandler+0x626>
    18de:	400237b7          	lui	a5,0x40023
    18e2:	40078793          	addi	a5,a5,1024 # 40023400 <_eusrstack+0x2001b400>
    18e6:	0087c783          	lbu	a5,8(a5)
    18ea:	8b8d                	andi	a5,a5,3
    18ec:	4705                	li	a4,1
    18ee:	02e78d63          	beq	a5,a4,1928 <USBHS_IRQHandler+0x4be>
    18f2:	82018923          	sb	zero,-1998(gp) # 2000053a <USBHS_DevSpeed>
    18f6:	04000793          	li	a5,64
    18fa:	82f19a23          	sh	a5,-1996(gp) # 2000053c <USBHS_DevMaxPackLen>
    18fe:	8321c703          	lbu	a4,-1998(gp) # 2000053a <USBHS_DevSpeed>
    1902:	4785                	li	a5,1
    1904:	02f70a63          	beq	a4,a5,1938 <USBHS_IRQHandler+0x4ce>
    1908:	00002717          	auipc	a4,0x2
    190c:	89070713          	addi	a4,a4,-1904 # 3198 <MyCfgDescr_FS>
    1910:	84e1a023          	sw	a4,-1984(gp) # 20000548 <pUSBHS_Descr>
    1914:	00274783          	lbu	a5,2(a4)
    1918:	00374703          	lbu	a4,3(a4)
    191c:	0722                	slli	a4,a4,0x8
    191e:	97ba                	add	a5,a5,a4
    1920:	07c2                	slli	a5,a5,0x10
    1922:	83c1                	srli	a5,a5,0x10
    1924:	8426                	mv	s0,s1
    1926:	bf69                	j	18c0 <USBHS_IRQHandler+0x456>
    1928:	4785                	li	a5,1
    192a:	82f18923          	sb	a5,-1998(gp) # 2000053a <USBHS_DevSpeed>
    192e:	20000793          	li	a5,512
    1932:	82f19a23          	sh	a5,-1996(gp) # 2000053c <USBHS_DevMaxPackLen>
    1936:	b7e1                	j	18fe <USBHS_IRQHandler+0x494>
    1938:	00002717          	auipc	a4,0x2
    193c:	81c70713          	addi	a4,a4,-2020 # 3154 <MyCfgDescr_HS>
    1940:	84e1a023          	sw	a4,-1984(gp) # 20000548 <pUSBHS_Descr>
    1944:	00274783          	lbu	a5,2(a4)
    1948:	00374703          	lbu	a4,3(a4)
    194c:	0722                	slli	a4,a4,0x8
    194e:	97ba                	add	a5,a5,a4
    1950:	07c2                	slli	a5,a5,0x10
    1952:	83c1                	srli	a5,a5,0x10
    1954:	8426                	mv	s0,s1
    1956:	b7ad                	j	18c0 <USBHS_IRQHandler+0x456>
    1958:	83c1d703          	lhu	a4,-1988(gp) # 20000544 <USBHS_SetupReqValue>
    195c:	0ff77413          	zext.b	s0,a4
    1960:	4789                	li	a5,2
    1962:	04f40e63          	beq	s0,a5,19be <USBHS_IRQHandler+0x554>
    1966:	0287e463          	bltu	a5,s0,198e <USBHS_IRQHandler+0x524>
    196a:	c039                	beqz	s0,19b0 <USBHS_IRQHandler+0x546>
    196c:	4785                	li	a5,1
    196e:	00f41c63          	bne	s0,a5,1986 <USBHS_IRQHandler+0x51c>
    1972:	00001797          	auipc	a5,0x1
    1976:	7d278793          	addi	a5,a5,2002 # 3144 <MyManuInfo>
    197a:	84f1a023          	sw	a5,-1984(gp) # 20000548 <pUSBHS_Descr>
    197e:	0007c783          	lbu	a5,0(a5)
    1982:	8426                	mv	s0,s1
    1984:	bf35                	j	18c0 <USBHS_IRQHandler+0x456>
    1986:	4781                	li	a5,0
    1988:	0ff00413          	li	s0,255
    198c:	bf15                	j	18c0 <USBHS_IRQHandler+0x456>
    198e:	478d                	li	a5,3
    1990:	00f41c63          	bne	s0,a5,19a8 <USBHS_IRQHandler+0x53e>
    1994:	00001797          	auipc	a5,0x1
    1998:	78078793          	addi	a5,a5,1920 # 3114 <MySerNumInfo>
    199c:	84f1a023          	sw	a5,-1984(gp) # 20000548 <pUSBHS_Descr>
    19a0:	0007c783          	lbu	a5,0(a5)
    19a4:	8426                	mv	s0,s1
    19a6:	bf29                	j	18c0 <USBHS_IRQHandler+0x456>
    19a8:	4781                	li	a5,0
    19aa:	0ff00413          	li	s0,255
    19ae:	bf09                	j	18c0 <USBHS_IRQHandler+0x456>
    19b0:	81818793          	addi	a5,gp,-2024 # 20000520 <MyLangDescr>
    19b4:	84f1a023          	sw	a5,-1984(gp) # 20000548 <pUSBHS_Descr>
    19b8:	0007c783          	lbu	a5,0(a5)
    19bc:	b711                	j	18c0 <USBHS_IRQHandler+0x456>
    19be:	00001797          	auipc	a5,0x1
    19c2:	76e78793          	addi	a5,a5,1902 # 312c <MyProdInfo>
    19c6:	84f1a023          	sw	a5,-1984(gp) # 20000548 <pUSBHS_Descr>
    19ca:	0007c783          	lbu	a5,0(a5)
    19ce:	8426                	mv	s0,s1
    19d0:	bdc5                	j	18c0 <USBHS_IRQHandler+0x456>
    19d2:	00001797          	auipc	a5,0x1
    19d6:	73678793          	addi	a5,a5,1846 # 3108 <MyQuaDesc>
    19da:	84f1a023          	sw	a5,-1984(gp) # 20000548 <pUSBHS_Descr>
    19de:	0007c783          	lbu	a5,0(a5)
    19e2:	8426                	mv	s0,s1
    19e4:	bdf1                	j	18c0 <USBHS_IRQHandler+0x456>
    19e6:	8321c703          	lbu	a4,-1998(gp) # 2000053a <USBHS_DevSpeed>
    19ea:	4785                	li	a5,1
    19ec:	00f70963          	beq	a4,a5,19fe <USBHS_IRQHandler+0x594>
    19f0:	8321c403          	lbu	s0,-1998(gp) # 2000053a <USBHS_DevSpeed>
    19f4:	c439                	beqz	s0,1a42 <USBHS_IRQHandler+0x5d8>
    19f6:	4781                	li	a5,0
    19f8:	0ff00413          	li	s0,255
    19fc:	b5d1                	j	18c0 <USBHS_IRQHandler+0x456>
    19fe:	00001717          	auipc	a4,0x1
    1a02:	79a70713          	addi	a4,a4,1946 # 3198 <MyCfgDescr_FS>
    1a06:	00274783          	lbu	a5,2(a4)
    1a0a:	00374703          	lbu	a4,3(a4)
    1a0e:	0722                	slli	a4,a4,0x8
    1a10:	00e78433          	add	s0,a5,a4
    1a14:	ffe40613          	addi	a2,s0,-2
    1a18:	00001597          	auipc	a1,0x1
    1a1c:	78258593          	addi	a1,a1,1922 # 319a <MyCfgDescr_FS+0x2>
    1a20:	1fffe517          	auipc	a0,0x1fffe
    1a24:	5f250513          	addi	a0,a0,1522 # 20000012 <TAB_USB_HS_OSC_DESC+0x2>
    1a28:	f98fe0ef          	jal	ra,1c0 <memcpy>
    1a2c:	1fffe797          	auipc	a5,0x1fffe
    1a30:	5e478793          	addi	a5,a5,1508 # 20000010 <TAB_USB_HS_OSC_DESC>
    1a34:	84f1a023          	sw	a5,-1984(gp) # 20000548 <pUSBHS_Descr>
    1a38:	01041793          	slli	a5,s0,0x10
    1a3c:	83c1                	srli	a5,a5,0x10
    1a3e:	8426                	mv	s0,s1
    1a40:	b541                	j	18c0 <USBHS_IRQHandler+0x456>
    1a42:	00001717          	auipc	a4,0x1
    1a46:	71270713          	addi	a4,a4,1810 # 3154 <MyCfgDescr_HS>
    1a4a:	00274783          	lbu	a5,2(a4)
    1a4e:	00374703          	lbu	a4,3(a4)
    1a52:	0722                	slli	a4,a4,0x8
    1a54:	00e784b3          	add	s1,a5,a4
    1a58:	ffe48613          	addi	a2,s1,-2
    1a5c:	00001597          	auipc	a1,0x1
    1a60:	6fa58593          	addi	a1,a1,1786 # 3156 <MyCfgDescr_HS+0x2>
    1a64:	1fffe517          	auipc	a0,0x1fffe
    1a68:	5f250513          	addi	a0,a0,1522 # 20000056 <TAB_USB_FS_OSC_DESC+0x2>
    1a6c:	f54fe0ef          	jal	ra,1c0 <memcpy>
    1a70:	1fffe797          	auipc	a5,0x1fffe
    1a74:	5e478793          	addi	a5,a5,1508 # 20000054 <TAB_USB_FS_OSC_DESC>
    1a78:	84f1a023          	sw	a5,-1984(gp) # 20000548 <pUSBHS_Descr>
    1a7c:	01049793          	slli	a5,s1,0x10
    1a80:	83c1                	srli	a5,a5,0x10
    1a82:	bd3d                	j	18c0 <USBHS_IRQHandler+0x456>
    1a84:	4781                	li	a5,0
    1a86:	0ff00413          	li	s0,255
    1a8a:	bd1d                	j	18c0 <USBHS_IRQHandler+0x456>
    1a8c:	04000993          	li	s3,64
    1a90:	84018913          	addi	s2,gp,-1984 # 20000548 <pUSBHS_Descr>
    1a94:	00092483          	lw	s1,0(s2)
    1a98:	864e                	mv	a2,s3
    1a9a:	85a6                	mv	a1,s1
    1a9c:	20000517          	auipc	a0,0x20000
    1aa0:	b0850513          	addi	a0,a0,-1272 # 200015a4 <USBHS_EP0_Buf>
    1aa4:	f1cfe0ef          	jal	ra,1c0 <memcpy>
    1aa8:	94ce                	add	s1,s1,s3
    1aaa:	00992023          	sw	s1,0(s2)
    1aae:	bb8d                	j	1820 <USBHS_IRQHandler+0x3b6>
    1ab0:	83c1d783          	lhu	a5,-1988(gp) # 20000544 <USBHS_SetupReqValue>
    1ab4:	82f18b23          	sb	a5,-1994(gp) # 2000053e <USBHS_DevAddr>
    1ab8:	bb85                	j	1828 <USBHS_IRQHandler+0x3be>
    1aba:	8371c783          	lbu	a5,-1993(gp) # 2000053f <USBHS_DevConfig>
    1abe:	20000717          	auipc	a4,0x20000
    1ac2:	aef70323          	sb	a5,-1306(a4) # 200015a4 <USBHS_EP0_Buf>
    1ac6:	8381d703          	lhu	a4,-1992(gp) # 20000540 <USBHS_SetupReqLen>
    1aca:	4785                	li	a5,1
    1acc:	d4e7fee3          	bgeu	a5,a4,1828 <USBHS_IRQHandler+0x3be>
    1ad0:	82f19c23          	sh	a5,-1992(gp) # 20000540 <USBHS_SetupReqLen>
    1ad4:	bb91                	j	1828 <USBHS_IRQHandler+0x3be>
    1ad6:	83c1d783          	lhu	a5,-1988(gp) # 20000544 <USBHS_SetupReqValue>
    1ada:	82f18ba3          	sb	a5,-1993(gp) # 2000053f <USBHS_DevConfig>
    1ade:	4785                	li	a5,1
    1ae0:	82f18823          	sb	a5,-2000(gp) # 20000538 <USBHS_DevEnumStatus>
    1ae4:	b391                	j	1828 <USBHS_IRQHandler+0x3be>
    1ae6:	83e1c783          	lbu	a5,-1986(gp) # 20000546 <USBHS_SetupReqType>
    1aea:	8bfd                	andi	a5,a5,31
    1aec:	e3a9                	bnez	a5,1b2e <USBHS_IRQHandler+0x6c4>
    1aee:	83c1d783          	lhu	a5,-1988(gp) # 20000544 <USBHS_SetupReqValue>
    1af2:	0ff7f793          	zext.b	a5,a5
    1af6:	4705                	li	a4,1
    1af8:	02e78263          	beq	a5,a4,1b1c <USBHS_IRQHandler+0x6b2>
    1afc:	400237b7          	lui	a5,0x40023
    1b00:	472d                	li	a4,11
    1b02:	4ce78d23          	sb	a4,1242(a5) # 400234da <_eusrstack+0x2001b4da>
    1b06:	4ce78da3          	sb	a4,1243(a5)
    1b0a:	400237b7          	lui	a5,0x40023
    1b0e:	02000713          	li	a4,32
    1b12:	40e78523          	sb	a4,1034(a5) # 4002340a <_eusrstack+0x2001b40a>
    1b16:	40078793          	addi	a5,a5,1024
    1b1a:	bae1                	j	14f2 <USBHS_IRQHandler+0x88>
    1b1c:	83118713          	addi	a4,gp,-1999 # 20000539 <USBHS_DevSleepStatus>
    1b20:	00074783          	lbu	a5,0(a4)
    1b24:	0fe7f793          	andi	a5,a5,254
    1b28:	00f70023          	sb	a5,0(a4)
    1b2c:	b9f5                	j	1828 <USBHS_IRQHandler+0x3be>
    1b2e:	83e1c783          	lbu	a5,-1986(gp) # 20000546 <USBHS_SetupReqType>
    1b32:	8bfd                	andi	a5,a5,31
    1b34:	4709                	li	a4,2
    1b36:	fce793e3          	bne	a5,a4,1afc <USBHS_IRQHandler+0x692>
    1b3a:	83c1d783          	lhu	a5,-1988(gp) # 20000544 <USBHS_SetupReqValue>
    1b3e:	0ff7f793          	zext.b	a5,a5
    1b42:	ffcd                	bnez	a5,1afc <USBHS_IRQHandler+0x692>
    1b44:	83a1d783          	lhu	a5,-1990(gp) # 20000542 <USBHS_SetupReqIndex>
    1b48:	0ff7f793          	zext.b	a5,a5
    1b4c:	08200713          	li	a4,130
    1b50:	00e78e63          	beq	a5,a4,1b6c <USBHS_IRQHandler+0x702>
    1b54:	08300713          	li	a4,131
    1b58:	02e78063          	beq	a5,a4,1b78 <USBHS_IRQHandler+0x70e>
    1b5c:	4709                	li	a4,2
    1b5e:	f8e79fe3          	bne	a5,a4,1afc <USBHS_IRQHandler+0x692>
    1b62:	400237b7          	lui	a5,0x40023
    1b66:	4e0781a3          	sb	zero,1251(a5) # 400234e3 <_eusrstack+0x2001b4e3>
    1b6a:	b97d                	j	1828 <USBHS_IRQHandler+0x3be>
    1b6c:	400237b7          	lui	a5,0x40023
    1b70:	4709                	li	a4,2
    1b72:	4ee78123          	sb	a4,1250(a5) # 400234e2 <_eusrstack+0x2001b4e2>
    1b76:	b94d                	j	1828 <USBHS_IRQHandler+0x3be>
    1b78:	400237b7          	lui	a5,0x40023
    1b7c:	4709                	li	a4,2
    1b7e:	4ee78323          	sb	a4,1254(a5) # 400234e6 <_eusrstack+0x2001b4e6>
    1b82:	b15d                	j	1828 <USBHS_IRQHandler+0x3be>
    1b84:	83e1c783          	lbu	a5,-1986(gp) # 20000546 <USBHS_SetupReqType>
    1b88:	8bfd                	andi	a5,a5,31
    1b8a:	eb85                	bnez	a5,1bba <USBHS_IRQHandler+0x750>
    1b8c:	83c1d783          	lhu	a5,-1988(gp) # 20000544 <USBHS_SetupReqValue>
    1b90:	0ff7f793          	zext.b	a5,a5
    1b94:	4705                	li	a4,1
    1b96:	f6e793e3          	bne	a5,a4,1afc <USBHS_IRQHandler+0x692>
    1b9a:	00001797          	auipc	a5,0x1
    1b9e:	6057c783          	lbu	a5,1541(a5) # 319f <MyCfgDescr_FS+0x7>
    1ba2:	0207f793          	andi	a5,a5,32
    1ba6:	dbb9                	beqz	a5,1afc <USBHS_IRQHandler+0x692>
    1ba8:	83118713          	addi	a4,gp,-1999 # 20000539 <USBHS_DevSleepStatus>
    1bac:	00074783          	lbu	a5,0(a4)
    1bb0:	0017e793          	ori	a5,a5,1
    1bb4:	00f70023          	sb	a5,0(a4)
    1bb8:	b985                	j	1828 <USBHS_IRQHandler+0x3be>
    1bba:	83e1c783          	lbu	a5,-1986(gp) # 20000546 <USBHS_SetupReqType>
    1bbe:	8bfd                	andi	a5,a5,31
    1bc0:	4709                	li	a4,2
    1bc2:	c6e793e3          	bne	a5,a4,1828 <USBHS_IRQHandler+0x3be>
    1bc6:	83c1d783          	lhu	a5,-1988(gp) # 20000544 <USBHS_SetupReqValue>
    1bca:	0ff7f793          	zext.b	a5,a5
    1bce:	c4079de3          	bnez	a5,1828 <USBHS_IRQHandler+0x3be>
    1bd2:	83a1d783          	lhu	a5,-1990(gp) # 20000542 <USBHS_SetupReqIndex>
    1bd6:	0ff7f793          	zext.b	a5,a5
    1bda:	08200713          	li	a4,130
    1bde:	02e78263          	beq	a5,a4,1c02 <USBHS_IRQHandler+0x798>
    1be2:	08300713          	li	a4,131
    1be6:	02e78763          	beq	a5,a4,1c14 <USBHS_IRQHandler+0x7aa>
    1bea:	4709                	li	a4,2
    1bec:	f0e798e3          	bne	a5,a4,1afc <USBHS_IRQHandler+0x692>
    1bf0:	400237b7          	lui	a5,0x40023
    1bf4:	4e37c703          	lbu	a4,1251(a5) # 400234e3 <_eusrstack+0x2001b4e3>
    1bf8:	00376713          	ori	a4,a4,3
    1bfc:	4ee781a3          	sb	a4,1251(a5)
    1c00:	b125                	j	1828 <USBHS_IRQHandler+0x3be>
    1c02:	400237b7          	lui	a5,0x40023
    1c06:	4e27c703          	lbu	a4,1250(a5) # 400234e2 <_eusrstack+0x2001b4e2>
    1c0a:	00376713          	ori	a4,a4,3
    1c0e:	4ee78123          	sb	a4,1250(a5)
    1c12:	b919                	j	1828 <USBHS_IRQHandler+0x3be>
    1c14:	400237b7          	lui	a5,0x40023
    1c18:	4e67c703          	lbu	a4,1254(a5) # 400234e6 <_eusrstack+0x2001b4e6>
    1c1c:	00376713          	ori	a4,a4,3
    1c20:	4ee78323          	sb	a4,1254(a5)
    1c24:	b111                	j	1828 <USBHS_IRQHandler+0x3be>
    1c26:	20000797          	auipc	a5,0x20000
    1c2a:	96078f23          	sb	zero,-1666(a5) # 200015a4 <USBHS_EP0_Buf>
    1c2e:	8381d703          	lhu	a4,-1992(gp) # 20000540 <USBHS_SetupReqLen>
    1c32:	4785                	li	a5,1
    1c34:	bee7fae3          	bgeu	a5,a4,1828 <USBHS_IRQHandler+0x3be>
    1c38:	82f19c23          	sh	a5,-1992(gp) # 20000540 <USBHS_SetupReqLen>
    1c3c:	b6f5                	j	1828 <USBHS_IRQHandler+0x3be>
    1c3e:	20000797          	auipc	a5,0x20000
    1c42:	96678793          	addi	a5,a5,-1690 # 200015a4 <USBHS_EP0_Buf>
    1c46:	00078023          	sb	zero,0(a5)
    1c4a:	000780a3          	sb	zero,1(a5)
    1c4e:	83e1c783          	lbu	a5,-1986(gp) # 20000546 <USBHS_SetupReqType>
    1c52:	8bfd                	andi	a5,a5,31
    1c54:	4709                	li	a4,2
    1c56:	02e78263          	beq	a5,a4,1c7a <USBHS_IRQHandler+0x810>
    1c5a:	83e1c783          	lbu	a5,-1986(gp) # 20000546 <USBHS_SetupReqType>
    1c5e:	8bfd                	andi	a5,a5,31
    1c60:	ef95                	bnez	a5,1c9c <USBHS_IRQHandler+0x832>
    1c62:	8311c703          	lbu	a4,-1999(gp) # 20000539 <USBHS_DevSleepStatus>
    1c66:	00177413          	andi	s0,a4,1
    1c6a:	c80d                	beqz	s0,1c9c <USBHS_IRQHandler+0x832>
    1c6c:	4709                	li	a4,2
    1c6e:	20000697          	auipc	a3,0x20000
    1c72:	92e68b23          	sb	a4,-1738(a3) # 200015a4 <USBHS_EP0_Buf>
    1c76:	843e                	mv	s0,a5
    1c78:	a015                	j	1c9c <USBHS_IRQHandler+0x832>
    1c7a:	83a1d783          	lhu	a5,-1990(gp) # 20000542 <USBHS_SetupReqIndex>
    1c7e:	0ff7f793          	zext.b	a5,a5
    1c82:	08200713          	li	a4,130
    1c86:	02e78363          	beq	a5,a4,1cac <USBHS_IRQHandler+0x842>
    1c8a:	08300713          	li	a4,131
    1c8e:	04e78f63          	beq	a5,a4,1cec <USBHS_IRQHandler+0x882>
    1c92:	4709                	li	a4,2
    1c94:	02e78c63          	beq	a5,a4,1ccc <USBHS_IRQHandler+0x862>
    1c98:	0ff00413          	li	s0,255
    1c9c:	8381d703          	lhu	a4,-1992(gp) # 20000540 <USBHS_SetupReqLen>
    1ca0:	4789                	li	a5,2
    1ca2:	b6e7ffe3          	bgeu	a5,a4,1820 <USBHS_IRQHandler+0x3b6>
    1ca6:	82f19c23          	sh	a5,-1992(gp) # 20000540 <USBHS_SetupReqLen>
    1caa:	be9d                	j	1820 <USBHS_IRQHandler+0x3b6>
    1cac:	400237b7          	lui	a5,0x40023
    1cb0:	40078793          	addi	a5,a5,1024 # 40023400 <_eusrstack+0x2001b400>
    1cb4:	0e27c783          	lbu	a5,226(a5)
    1cb8:	8b8d                	andi	a5,a5,3
    1cba:	470d                	li	a4,3
    1cbc:	fee790e3          	bne	a5,a4,1c9c <USBHS_IRQHandler+0x832>
    1cc0:	4785                	li	a5,1
    1cc2:	20000717          	auipc	a4,0x20000
    1cc6:	8ef70123          	sb	a5,-1822(a4) # 200015a4 <USBHS_EP0_Buf>
    1cca:	bfc9                	j	1c9c <USBHS_IRQHandler+0x832>
    1ccc:	400237b7          	lui	a5,0x40023
    1cd0:	40078793          	addi	a5,a5,1024 # 40023400 <_eusrstack+0x2001b400>
    1cd4:	0e37c783          	lbu	a5,227(a5)
    1cd8:	8b8d                	andi	a5,a5,3
    1cda:	470d                	li	a4,3
    1cdc:	fce790e3          	bne	a5,a4,1c9c <USBHS_IRQHandler+0x832>
    1ce0:	4785                	li	a5,1
    1ce2:	20000717          	auipc	a4,0x20000
    1ce6:	8cf70123          	sb	a5,-1854(a4) # 200015a4 <USBHS_EP0_Buf>
    1cea:	bf4d                	j	1c9c <USBHS_IRQHandler+0x832>
    1cec:	400237b7          	lui	a5,0x40023
    1cf0:	40078793          	addi	a5,a5,1024 # 40023400 <_eusrstack+0x2001b400>
    1cf4:	0e67c783          	lbu	a5,230(a5)
    1cf8:	8b8d                	andi	a5,a5,3
    1cfa:	470d                	li	a4,3
    1cfc:	fae790e3          	bne	a5,a4,1c9c <USBHS_IRQHandler+0x832>
    1d00:	4785                	li	a5,1
    1d02:	20000717          	auipc	a4,0x20000
    1d06:	8af70123          	sb	a5,-1886(a4) # 200015a4 <USBHS_EP0_Buf>
    1d0a:	bf49                	j	1c9c <USBHS_IRQHandler+0x832>
    1d0c:	8381d703          	lhu	a4,-1992(gp) # 20000540 <USBHS_SetupReqLen>
    1d10:	04000793          	li	a5,64
    1d14:	02e7e563          	bltu	a5,a4,1d3e <USBHS_IRQHandler+0x8d4>
    1d18:	8381d703          	lhu	a4,-1992(gp) # 20000540 <USBHS_SetupReqLen>
    1d1c:	83818693          	addi	a3,gp,-1992 # 20000540 <USBHS_SetupReqLen>
    1d20:	0006d783          	lhu	a5,0(a3)
    1d24:	8f99                	sub	a5,a5,a4
    1d26:	07c2                	slli	a5,a5,0x10
    1d28:	83c1                	srli	a5,a5,0x10
    1d2a:	00f69023          	sh	a5,0(a3)
    1d2e:	400237b7          	lui	a5,0x40023
    1d32:	4ce79c23          	sh	a4,1240(a5) # 400234d8 <_eusrstack+0x2001b4d8>
    1d36:	4721                	li	a4,8
    1d38:	4ce78d23          	sb	a4,1242(a5)
    1d3c:	b3f9                	j	1b0a <USBHS_IRQHandler+0x6a0>
    1d3e:	04000713          	li	a4,64
    1d42:	bfe9                	j	1d1c <USBHS_IRQHandler+0x8b2>
    1d44:	400237b7          	lui	a5,0x40023
    1d48:	4721                	li	a4,8
    1d4a:	4ce78da3          	sb	a4,1243(a5) # 400234db <_eusrstack+0x2001b4db>
    1d4e:	bb75                	j	1b0a <USBHS_IRQHandler+0x6a0>
    1d50:	0016f793          	andi	a5,a3,1
    1d54:	eb9d                	bnez	a5,1d8a <USBHS_IRQHandler+0x920>
    1d56:	0046f793          	andi	a5,a3,4
    1d5a:	cba5                	beqz	a5,1dca <USBHS_IRQHandler+0x960>
    1d5c:	400237b7          	lui	a5,0x40023
    1d60:	4711                	li	a4,4
    1d62:	40e78523          	sb	a4,1034(a5) # 4002340a <_eusrstack+0x2001b40a>
    1d66:	40078793          	addi	a5,a5,1024
    1d6a:	0097c783          	lbu	a5,9(a5)
    1d6e:	8b91                	andi	a5,a5,4
    1d70:	c3b9                	beqz	a5,1db6 <USBHS_IRQHandler+0x94c>
    1d72:	83118793          	addi	a5,gp,-1999 # 20000539 <USBHS_DevSleepStatus>
    1d76:	0007c703          	lbu	a4,0(a5)
    1d7a:	00276713          	ori	a4,a4,2
    1d7e:	00e78023          	sb	a4,0(a5)
    1d82:	0007c783          	lbu	a5,0(a5)
    1d86:	f6cff06f          	j	14f2 <USBHS_IRQHandler+0x88>
    1d8a:	82018ba3          	sb	zero,-1993(gp) # 2000053f <USBHS_DevConfig>
    1d8e:	82018b23          	sb	zero,-1994(gp) # 2000053e <USBHS_DevAddr>
    1d92:	820188a3          	sb	zero,-1999(gp) # 20000539 <USBHS_DevSleepStatus>
    1d96:	82018823          	sb	zero,-2000(gp) # 20000538 <USBHS_DevEnumStatus>
    1d9a:	40023437          	lui	s0,0x40023
    1d9e:	400401a3          	sb	zero,1027(s0) # 40023403 <_eusrstack+0x2001b403>
    1da2:	dc0ff0ef          	jal	ra,1362 <USBHS_Device_Endp_Init>
    1da6:	4505                	li	a0,1
    1da8:	b46ff0ef          	jal	ra,10ee <UART2_ParaInit>
    1dac:	4785                	li	a5,1
    1dae:	40f40523          	sb	a5,1034(s0)
    1db2:	f40ff06f          	j	14f2 <USBHS_IRQHandler+0x88>
    1db6:	83118713          	addi	a4,gp,-1999 # 20000539 <USBHS_DevSleepStatus>
    1dba:	00074783          	lbu	a5,0(a4)
    1dbe:	0fd7f793          	andi	a5,a5,253
    1dc2:	00f70023          	sb	a5,0(a4)
    1dc6:	f2cff06f          	j	14f2 <USBHS_IRQHandler+0x88>
    1dca:	400237b7          	lui	a5,0x40023
    1dce:	40d78523          	sb	a3,1034(a5) # 4002340a <_eusrstack+0x2001b40a>
    1dd2:	40078793          	addi	a5,a5,1024
    1dd6:	f1cff06f          	j	14f2 <USBHS_IRQHandler+0x88>

00001dda <usb_send>:
    1dda:	1141                	addi	sp,sp,-16
    1ddc:	c606                	sw	ra,12(sp)
    1dde:	c422                	sw	s0,8(sp)
    1de0:	c226                	sw	s1,4(sp)
    1de2:	842e                	mv	s0,a1
    1de4:	20000497          	auipc	s1,0x20000
    1de8:	00048493          	mv	s1,s1
    1dec:	862e                	mv	a2,a1
    1dee:	85aa                	mv	a1,a0
    1df0:	8526                	mv	a0,s1
    1df2:	bcefe0ef          	jal	ra,1c0 <memcpy>
    1df6:	e000e6b7          	lui	a3,0xe000e
    1dfa:	00200637          	lui	a2,0x200
    1dfe:	18c6a423          	sw	a2,392(a3) # e000e188 <_eusrstack+0xc0006188>
    1e02:	400237b7          	lui	a5,0x40023
    1e06:	4697a023          	sw	s1,1120(a5) # 40023460 <_eusrstack+0x2001b460>
    1e0a:	4e879023          	sh	s0,1248(a5)
    1e0e:	4e27c703          	lbu	a4,1250(a5)
    1e12:	0fc77713          	andi	a4,a4,252
    1e16:	4ee78123          	sb	a4,1250(a5)
    1e1a:	4e27c703          	lbu	a4,1250(a5)
    1e1e:	0ff77713          	zext.b	a4,a4
    1e22:	4ee78123          	sb	a4,1250(a5)
    1e26:	10c6a423          	sw	a2,264(a3)
    1e2a:	40b2                	lw	ra,12(sp)
    1e2c:	4422                	lw	s0,8(sp)
    1e2e:	4492                	lw	s1,4(sp)
    1e30:	0141                	addi	sp,sp,16
    1e32:	8082                	ret

00001e34 <NMI_Handler>:
    1e34:	30200073          	mret

00001e38 <TIM2_IRQHandler>:
    1e38:	8471c783          	lbu	a5,-1977(gp) # 2000054f <tog.0>
    1e3c:	c3a5                	beqz	a5,1e9c <TIM2_IRQHandler+0x64>
    1e3e:	40011737          	lui	a4,0x40011
    1e42:	66a1                	lui	a3,0x8
    1e44:	80d72823          	sw	a3,-2032(a4) # 40010810 <_eusrstack+0x20008810>
    1e48:	0017c793          	xori	a5,a5,1
    1e4c:	84f183a3          	sb	a5,-1977(gp) # 2000054f <tog.0>
    1e50:	46018793          	addi	a5,gp,1120 # 20001168 <Uart>
    1e54:	0067c703          	lbu	a4,6(a5)
    1e58:	0705                	addi	a4,a4,1
    1e5a:	0ff77713          	zext.b	a4,a4
    1e5e:	00e78323          	sb	a4,6(a5)
    1e62:	01a7c703          	lbu	a4,26(a5)
    1e66:	01b7c683          	lbu	a3,27(a5)
    1e6a:	06a2                	slli	a3,a3,0x8
    1e6c:	8f55                	or	a4,a4,a3
    1e6e:	0705                	addi	a4,a4,1
    1e70:	01071693          	slli	a3,a4,0x10
    1e74:	82c1                	srli	a3,a3,0x10
    1e76:	0ff77713          	zext.b	a4,a4
    1e7a:	01a7c603          	lbu	a2,26(a5)
    1e7e:	00e78d23          	sb	a4,26(a5)
    1e82:	0086d713          	srli	a4,a3,0x8
    1e86:	01b7c683          	lbu	a3,27(a5)
    1e8a:	00e78da3          	sb	a4,27(a5)
    1e8e:	400007b7          	lui	a5,0x40000
    1e92:	5779                	li	a4,-2
    1e94:	00e79823          	sh	a4,16(a5) # 40000010 <_eusrstack+0x1fff8010>
    1e98:	30200073          	mret
    1e9c:	40011737          	lui	a4,0x40011
    1ea0:	66a1                	lui	a3,0x8
    1ea2:	80d72a23          	sw	a3,-2028(a4) # 40010814 <_eusrstack+0x20008814>
    1ea6:	b74d                	j	1e48 <TIM2_IRQHandler+0x10>

00001ea8 <DMA2_Channel4_IRQHandler>:
    1ea8:	715d                	addi	sp,sp,-80
    1eaa:	e682                	fsw	ft0,76(sp)
    1eac:	e486                	fsw	ft1,72(sp)
    1eae:	e28a                	fsw	ft2,68(sp)
    1eb0:	e08e                	fsw	ft3,64(sp)
    1eb2:	fe12                	fsw	ft4,60(sp)
    1eb4:	fc16                	fsw	ft5,56(sp)
    1eb6:	fa1a                	fsw	ft6,52(sp)
    1eb8:	f81e                	fsw	ft7,48(sp)
    1eba:	f62a                	fsw	fa0,44(sp)
    1ebc:	f42e                	fsw	fa1,40(sp)
    1ebe:	f232                	fsw	fa2,36(sp)
    1ec0:	f036                	fsw	fa3,32(sp)
    1ec2:	ee3a                	fsw	fa4,28(sp)
    1ec4:	ec3e                	fsw	fa5,24(sp)
    1ec6:	ea42                	fsw	fa6,20(sp)
    1ec8:	e846                	fsw	fa7,16(sp)
    1eca:	e672                	fsw	ft8,12(sp)
    1ecc:	e476                	fsw	ft9,8(sp)
    1ece:	e27a                	fsw	ft10,4(sp)
    1ed0:	e07e                	fsw	ft11,0(sp)
    1ed2:	10002537          	lui	a0,0x10002
    1ed6:	fa8fe0ef          	jal	ra,67e <DMA_GetFlagStatus>
    1eda:	ed0d                	bnez	a0,1f14 <DMA2_Channel4_IRQHandler+0x6c>
    1edc:	10004537          	lui	a0,0x10004
    1ee0:	f9efe0ef          	jal	ra,67e <DMA_GetFlagStatus>
    1ee4:	e149                	bnez	a0,1f66 <DMA2_Channel4_IRQHandler+0xbe>
    1ee6:	6036                	flw	ft0,76(sp)
    1ee8:	60a6                	flw	ft1,72(sp)
    1eea:	6116                	flw	ft2,68(sp)
    1eec:	6186                	flw	ft3,64(sp)
    1eee:	7272                	flw	ft4,60(sp)
    1ef0:	72e2                	flw	ft5,56(sp)
    1ef2:	7352                	flw	ft6,52(sp)
    1ef4:	73c2                	flw	ft7,48(sp)
    1ef6:	7532                	flw	fa0,44(sp)
    1ef8:	75a2                	flw	fa1,40(sp)
    1efa:	7612                	flw	fa2,36(sp)
    1efc:	7682                	flw	fa3,32(sp)
    1efe:	6772                	flw	fa4,28(sp)
    1f00:	67e2                	flw	fa5,24(sp)
    1f02:	6852                	flw	fa6,20(sp)
    1f04:	68c2                	flw	fa7,16(sp)
    1f06:	6e32                	flw	ft8,12(sp)
    1f08:	6ea2                	flw	ft9,8(sp)
    1f0a:	6f12                	flw	ft10,4(sp)
    1f0c:	6f82                	flw	ft11,0(sp)
    1f0e:	6161                	addi	sp,sp,80
    1f10:	30200073          	mret
    1f14:	10002537          	lui	a0,0x10002
    1f18:	f98fe0ef          	jal	ra,6b0 <DMA_ClearFlag>
    1f1c:	10002537          	lui	a0,0x10002
    1f20:	fbcfe0ef          	jal	ra,6dc <DMA_ClearITPendingBit>
    1f24:	20000597          	auipc	a1,0x20000
    1f28:	6c058593          	addi	a1,a1,1728 # 200025e4 <TIM_TimeBaseInitStructure>
    1f2c:	80a1d783          	lhu	a5,-2038(gp) # 20000512 <up_Time_period>
    1f30:	00f59223          	sh	a5,4(a1)
    1f34:	40001537          	lui	a0,0x40001
    1f38:	40050513          	addi	a0,a0,1024 # 40001400 <_eusrstack+0x1fff9400>
    1f3c:	cb7fe0ef          	jal	ra,bf2 <TIM_TimeBaseInit>
    1f40:	80c18713          	addi	a4,gp,-2036 # 20000514 <cnt>
    1f44:	00075783          	lhu	a5,0(a4)
    1f48:	17fd                	addi	a5,a5,-1
    1f4a:	07c2                	slli	a5,a5,0x10
    1f4c:	83c1                	srli	a5,a5,0x10
    1f4e:	00f71023          	sh	a5,0(a4)
    1f52:	d7c9                	beqz	a5,1edc <DMA2_Channel4_IRQHandler+0x34>
    1f54:	4581                	li	a1,0
    1f56:	40020537          	lui	a0,0x40020
    1f5a:	44450513          	addi	a0,a0,1092 # 40020444 <_eusrstack+0x20018444>
    1f5e:	ef2fe0ef          	jal	ra,650 <DMA_Cmd>
    1f62:	20a5                	jal	1fca <DMA2_CH4_Init>
    1f64:	bfa5                	j	1edc <DMA2_Channel4_IRQHandler+0x34>
    1f66:	10004537          	lui	a0,0x10004
    1f6a:	f46fe0ef          	jal	ra,6b0 <DMA_ClearFlag>
    1f6e:	10004537          	lui	a0,0x10004
    1f72:	f6afe0ef          	jal	ra,6dc <DMA_ClearITPendingBit>
    1f76:	20000597          	auipc	a1,0x20000
    1f7a:	66e58593          	addi	a1,a1,1646 # 200025e4 <TIM_TimeBaseInitStructure>
    1f7e:	8081d783          	lhu	a5,-2040(gp) # 20000510 <down_Time_period>
    1f82:	00f59223          	sh	a5,4(a1)
    1f86:	40001537          	lui	a0,0x40001
    1f8a:	40050513          	addi	a0,a0,1024 # 40001400 <_eusrstack+0x1fff9400>
    1f8e:	c65fe0ef          	jal	ra,bf2 <TIM_TimeBaseInit>
    1f92:	bf91                	j	1ee6 <DMA2_Channel4_IRQHandler+0x3e>

00001f94 <HardFault_Handler>:
    1f94:	715d                	addi	sp,sp,-80
    1f96:	e682                	fsw	ft0,76(sp)
    1f98:	e486                	fsw	ft1,72(sp)
    1f9a:	e28a                	fsw	ft2,68(sp)
    1f9c:	e08e                	fsw	ft3,64(sp)
    1f9e:	fe12                	fsw	ft4,60(sp)
    1fa0:	fc16                	fsw	ft5,56(sp)
    1fa2:	fa1a                	fsw	ft6,52(sp)
    1fa4:	f81e                	fsw	ft7,48(sp)
    1fa6:	f62a                	fsw	fa0,44(sp)
    1fa8:	f42e                	fsw	fa1,40(sp)
    1faa:	f232                	fsw	fa2,36(sp)
    1fac:	f036                	fsw	fa3,32(sp)
    1fae:	ee3a                	fsw	fa4,28(sp)
    1fb0:	ec3e                	fsw	fa5,24(sp)
    1fb2:	ea42                	fsw	fa6,20(sp)
    1fb4:	e846                	fsw	fa7,16(sp)
    1fb6:	e672                	fsw	ft8,12(sp)
    1fb8:	e476                	fsw	ft9,8(sp)
    1fba:	e27a                	fsw	ft10,4(sp)
    1fbc:	e07e                	fsw	ft11,0(sp)
    1fbe:	00001517          	auipc	a0,0x1
    1fc2:	23250513          	addi	a0,a0,562 # 31f0 <MyDevDescr+0x14>
    1fc6:	2521                	jal	25ce <puts>
    1fc8:	a001                	j	1fc8 <HardFault_Handler+0x34>

00001fca <DMA2_CH4_Init>:
    1fca:	7139                	addi	sp,sp,-64
    1fcc:	de06                	sw	ra,60(sp)
    1fce:	dc22                	sw	s0,56(sp)
    1fd0:	c202                	sw	zero,4(sp)
    1fd2:	c402                	sw	zero,8(sp)
    1fd4:	c602                	sw	zero,12(sp)
    1fd6:	c802                	sw	zero,16(sp)
    1fd8:	ca02                	sw	zero,20(sp)
    1fda:	cc02                	sw	zero,24(sp)
    1fdc:	ce02                	sw	zero,28(sp)
    1fde:	d002                	sw	zero,32(sp)
    1fe0:	d202                	sw	zero,36(sp)
    1fe2:	d402                	sw	zero,40(sp)
    1fe4:	d602                	sw	zero,44(sp)
    1fe6:	4585                	li	a1,1
    1fe8:	4509                	li	a0,2
    1fea:	9d1fe0ef          	jal	ra,9ba <RCC_AHBPeriphClockCmd>
    1fee:	0048                	addi	a0,sp,4
    1ff0:	e32fe0ef          	jal	ra,622 <DMA_StructInit>
    1ff4:	1fffe797          	auipc	a5,0x1fffe
    1ff8:	0a478793          	addi	a5,a5,164 # 20000098 <buffer>
    1ffc:	c23e                	sw	a5,4(sp)
    1ffe:	400077b7          	lui	a5,0x40007
    2002:	41078793          	addi	a5,a5,1040 # 40007410 <_eusrstack+0x1ffff410>
    2006:	c43e                	sw	a5,8(sp)
    2008:	c602                	sw	zero,12(sp)
    200a:	20000793          	li	a5,512
    200e:	c83e                	sw	a5,16(sp)
    2010:	04000793          	li	a5,64
    2014:	ca3e                	sw	a5,20(sp)
    2016:	cc02                	sw	zero,24(sp)
    2018:	10000793          	li	a5,256
    201c:	ce3e                	sw	a5,28(sp)
    201e:	d002                	sw	zero,32(sp)
    2020:	d202                	sw	zero,36(sp)
    2022:	678d                	lui	a5,0x3
    2024:	d43e                	sw	a5,40(sp)
    2026:	d602                	sw	zero,44(sp)
    2028:	004c                	addi	a1,sp,4
    202a:	40020437          	lui	s0,0x40020
    202e:	44440513          	addi	a0,s0,1092 # 40020444 <_eusrstack+0x20018444>
    2032:	db8fe0ef          	jal	ra,5ea <DMA_Init>
    2036:	10002537          	lui	a0,0x10002
    203a:	e76fe0ef          	jal	ra,6b0 <DMA_ClearFlag>
    203e:	4605                	li	a2,1
    2040:	4599                	li	a1,6
    2042:	44440513          	addi	a0,s0,1092
    2046:	e22fe0ef          	jal	ra,668 <DMA_ITConfig>
    204a:	10004537          	lui	a0,0x10004
    204e:	e62fe0ef          	jal	ra,6b0 <DMA_ClearFlag>
    2052:	e000e737          	lui	a4,0xe000e
    2056:	6785                	lui	a5,0x1
    2058:	80078793          	addi	a5,a5,-2048 # 800 <__stack_size>
    205c:	28f72423          	sw	a5,648(a4) # e000e288 <_eusrstack+0xc0006288>
    2060:	10f72423          	sw	a5,264(a4)
    2064:	4585                	li	a1,1
    2066:	44440513          	addi	a0,s0,1092
    206a:	de6fe0ef          	jal	ra,650 <DMA_Cmd>
    206e:	50f2                	lw	ra,60(sp)
    2070:	5462                	lw	s0,56(sp)
    2072:	6121                	addi	sp,sp,64
    2074:	8082                	ret

00002076 <Dac_Init>:
    2076:	7179                	addi	sp,sp,-48
    2078:	d606                	sw	ra,44(sp)
    207a:	d422                	sw	s0,40(sp)
    207c:	ca02                	sw	zero,20(sp)
    207e:	cc02                	sw	zero,24(sp)
    2080:	ce02                	sw	zero,28(sp)
    2082:	c202                	sw	zero,4(sp)
    2084:	c402                	sw	zero,8(sp)
    2086:	c602                	sw	zero,12(sp)
    2088:	c802                	sw	zero,16(sp)
    208a:	4585                	li	a1,1
    208c:	4511                	li	a0,4
    208e:	94bfe0ef          	jal	ra,9d8 <RCC_APB2PeriphClockCmd>
    2092:	4585                	li	a1,1
    2094:	20000537          	lui	a0,0x20000
    2098:	95ffe0ef          	jal	ra,9f6 <RCC_APB1PeriphClockCmd>
    209c:	47c1                	li	a5,16
    209e:	00f11a23          	sh	a5,20(sp)
    20a2:	ce02                	sw	zero,28(sp)
    20a4:	478d                	li	a5,3
    20a6:	cc3e                	sw	a5,24(sp)
    20a8:	084c                	addi	a1,sp,20
    20aa:	40011437          	lui	s0,0x40011
    20ae:	80040513          	addi	a0,s0,-2048 # 40010800 <_eusrstack+0x20008800>
    20b2:	e56fe0ef          	jal	ra,708 <GPIO_Init>
    20b6:	45c1                	li	a1,16
    20b8:	80040513          	addi	a0,s0,-2048
    20bc:	f24fe0ef          	jal	ra,7e0 <GPIO_SetBits>
    20c0:	c202                	sw	zero,4(sp)
    20c2:	c402                	sw	zero,8(sp)
    20c4:	c602                	sw	zero,12(sp)
    20c6:	4789                	li	a5,2
    20c8:	c83e                	sw	a5,16(sp)
    20ca:	004c                	addi	a1,sp,4
    20cc:	4501                	li	a0,0
    20ce:	a6cfe0ef          	jal	ra,33a <DAC_Init>
    20d2:	4585                	li	a1,1
    20d4:	4501                	li	a0,0
    20d6:	a94fe0ef          	jal	ra,36a <DAC_Cmd>
    20da:	4581                	li	a1,0
    20dc:	4521                	li	a0,8
    20de:	abefe0ef          	jal	ra,39c <DAC_SetChannel1Data>
    20e2:	50b2                	lw	ra,44(sp)
    20e4:	5422                	lw	s0,40(sp)
    20e6:	6145                	addi	sp,sp,48
    20e8:	8082                	ret

000020ea <TIM1_PWM_In>:
    20ea:	1101                	addi	sp,sp,-32
    20ec:	ce06                	sw	ra,28(sp)
    20ee:	cc22                	sw	s0,24(sp)
    20f0:	ca26                	sw	s1,20(sp)
    20f2:	c84a                	sw	s2,16(sp)
    20f4:	892a                	mv	s2,a0
    20f6:	84ae                	mv	s1,a1
    20f8:	c202                	sw	zero,4(sp)
    20fa:	c402                	sw	zero,8(sp)
    20fc:	c602                	sw	zero,12(sp)
    20fe:	4585                	li	a1,1
    2100:	6505                	lui	a0,0x1
    2102:	80450513          	addi	a0,a0,-2044 # 804 <__stack_size+0x4>
    2106:	8d3fe0ef          	jal	ra,9d8 <RCC_APB2PeriphClockCmd>
    210a:	4585                	li	a1,1
    210c:	02000513          	li	a0,32
    2110:	8e7fe0ef          	jal	ra,9f6 <RCC_APB1PeriphClockCmd>
    2114:	47c1                	li	a5,16
    2116:	00f11223          	sh	a5,4(sp)
    211a:	c602                	sw	zero,12(sp)
    211c:	478d                	li	a5,3
    211e:	c43e                	sw	a5,8(sp)
    2120:	004c                	addi	a1,sp,4
    2122:	40011537          	lui	a0,0x40011
    2126:	80050513          	addi	a0,a0,-2048 # 40010800 <_eusrstack+0x20008800>
    212a:	ddefe0ef          	jal	ra,708 <GPIO_Init>
    212e:	20000417          	auipc	s0,0x20000
    2132:	4b640413          	addi	s0,s0,1206 # 200025e4 <TIM_TimeBaseInitStructure>
    2136:	01241223          	sh	s2,4(s0)
    213a:	00941023          	sh	s1,0(s0)
    213e:	00041323          	sh	zero,6(s0)
    2142:	00041123          	sh	zero,2(s0)
    2146:	85a2                	mv	a1,s0
    2148:	400014b7          	lui	s1,0x40001
    214c:	40048513          	addi	a0,s1,1024 # 40001400 <_eusrstack+0x1fff9400>
    2150:	aa3fe0ef          	jal	ra,bf2 <TIM_TimeBaseInit>
    2154:	85a2                	mv	a1,s0
    2156:	40013437          	lui	s0,0x40013
    215a:	c0040513          	addi	a0,s0,-1024 # 40012c00 <_eusrstack+0x2000ac00>
    215e:	a95fe0ef          	jal	ra,bf2 <TIM_TimeBaseInit>
    2162:	4585                	li	a1,1
    2164:	40048513          	addi	a0,s1,1024
    2168:	bbffe0ef          	jal	ra,d26 <TIM_ARRPreloadConfig>
    216c:	02000593          	li	a1,32
    2170:	40048513          	addi	a0,s1,1024
    2174:	bd9fe0ef          	jal	ra,d4c <TIM_SelectOutputTrigger>
    2178:	4605                	li	a2,1
    217a:	10000593          	li	a1,256
    217e:	40048513          	addi	a0,s1,1024
    2182:	b87fe0ef          	jal	ra,d08 <TIM_DMACmd>
    2186:	4585                	li	a1,1
    2188:	40048513          	addi	a0,s1,1024
    218c:	b3bfe0ef          	jal	ra,cc6 <TIM_Cmd>
    2190:	4585                	li	a1,1
    2192:	c0040513          	addi	a0,s0,-1024
    2196:	b31fe0ef          	jal	ra,cc6 <TIM_Cmd>
    219a:	40f2                	lw	ra,28(sp)
    219c:	4462                	lw	s0,24(sp)
    219e:	44d2                	lw	s1,20(sp)
    21a0:	4942                	lw	s2,16(sp)
    21a2:	6105                	addi	sp,sp,32
    21a4:	8082                	ret

000021a6 <main>:
    21a6:	1141                	addi	sp,sp,-16
    21a8:	c606                	sw	ra,12(sp)
    21aa:	c422                	sw	s0,8(sp)
    21ac:	4509                	li	a0,2
    21ae:	e36fe0ef          	jal	ra,7e4 <NVIC_PriorityGroupConfig>
    21b2:	2aed                	jal	23ac <SystemCoreClockUpdate>
    21b4:	832fe0ef          	jal	ra,1e6 <Delay_Init>
    21b8:	6471                	lui	s0,0x1c
    21ba:	20040513          	addi	a0,s0,512 # 1c200 <_data_lma+0x18f98>
    21be:	88cfe0ef          	jal	ra,24a <USART_Printf_Init>
    21c2:	3d55                	jal	2076 <Dac_Init>
    21c4:	4581                	li	a1,0
    21c6:	0ff00513          	li	a0,255
    21ca:	3705                	jal	20ea <TIM1_PWM_In>
    21cc:	3bfd                	jal	1fca <DMA2_CH4_Init>
    21ce:	d5ffe0ef          	jal	ra,f2c <RCC_Configuration>
    21d2:	d81fe0ef          	jal	ra,f52 <TIM2_Init>
    21d6:	4681                	li	a3,0
    21d8:	4601                	li	a2,0
    21da:	20040593          	addi	a1,s0,512
    21de:	4505                	li	a0,1
    21e0:	86eff0ef          	jal	ra,124e <UART2_Init>
    21e4:	94aff0ef          	jal	ra,132e <USBHS_RCC_Init>
    21e8:	4505                	li	a0,1
    21ea:	9feff0ef          	jal	ra,13e8 <USBHS_Device_Init>
    21ee:	45a9                	li	a1,10
    21f0:	00001517          	auipc	a0,0x1
    21f4:	00c50513          	addi	a0,a0,12 # 31fc <MyDevDescr+0x20>
    21f8:	36cd                	jal	1dda <usb_send>
    21fa:	8461c783          	lbu	a5,-1978(gp) # 2000054e <usb_rx_flg1>
    21fe:	dff5                	beqz	a5,21fa <main+0x54>
    2200:	84018323          	sb	zero,-1978(gp) # 2000054e <usb_rx_flg1>
    2204:	8441d703          	lhu	a4,-1980(gp) # 2000054c <usb_rx_len>
    2208:	4795                	li	a5,5
    220a:	fee7f8e3          	bgeu	a5,a4,21fa <main+0x54>
    220e:	1ffff797          	auipc	a5,0x1ffff
    2212:	3d678793          	addi	a5,a5,982 # 200015e4 <USB_rx_Buf>
    2216:	0007c703          	lbu	a4,0(a5)
    221a:	0017c783          	lbu	a5,1(a5)
    221e:	07a2                	slli	a5,a5,0x8
    2220:	8fd9                	or	a5,a5,a4
    2222:	470d                	li	a4,3
    2224:	fcf77be3          	bgeu	a4,a5,21fa <main+0x54>
    2228:	1ffff717          	auipc	a4,0x1ffff
    222c:	3bc70713          	addi	a4,a4,956 # 200015e4 <USB_rx_Buf>
    2230:	00274683          	lbu	a3,2(a4)
    2234:	00374703          	lbu	a4,3(a4)
    2238:	0722                	slli	a4,a4,0x8
    223a:	8f55                	or	a4,a4,a3
    223c:	468d                	li	a3,3
    223e:	fae6fee3          	bgeu	a3,a4,21fa <main+0x54>
    2242:	1ffff697          	auipc	a3,0x1ffff
    2246:	3a268693          	addi	a3,a3,930 # 200015e4 <USB_rx_Buf>
    224a:	0046c603          	lbu	a2,4(a3)
    224e:	0056c683          	lbu	a3,5(a3)
    2252:	06a2                	slli	a3,a3,0x8
    2254:	8ed1                	or	a3,a3,a2
    2256:	d2d5                	beqz	a3,21fa <main+0x54>
    2258:	80d19623          	sh	a3,-2036(gp) # 20000514 <cnt>
    225c:	80f19523          	sh	a5,-2038(gp) # 20000512 <up_Time_period>
    2260:	80e19423          	sh	a4,-2040(gp) # 20000510 <down_Time_period>
    2264:	20000597          	auipc	a1,0x20000
    2268:	38058593          	addi	a1,a1,896 # 200025e4 <TIM_TimeBaseInitStructure>
    226c:	00f59223          	sh	a5,4(a1)
    2270:	40001537          	lui	a0,0x40001
    2274:	40050513          	addi	a0,a0,1024 # 40001400 <_eusrstack+0x1fff9400>
    2278:	97bfe0ef          	jal	ra,bf2 <TIM_TimeBaseInit>
    227c:	4581                	li	a1,0
    227e:	40020537          	lui	a0,0x40020
    2282:	44450513          	addi	a0,a0,1092 # 40020444 <_eusrstack+0x20018444>
    2286:	bcafe0ef          	jal	ra,650 <DMA_Cmd>
    228a:	3381                	jal	1fca <DMA2_CH4_Init>
    228c:	b7bd                	j	21fa <main+0x54>

0000228e <SetSysClockTo144_HSE>:
    228e:	1141                	addi	sp,sp,-16
    2290:	c602                	sw	zero,12(sp)
    2292:	c402                	sw	zero,8(sp)
    2294:	40021737          	lui	a4,0x40021
    2298:	431c                	lw	a5,0(a4)
    229a:	66c1                	lui	a3,0x10
    229c:	8fd5                	or	a5,a5,a3
    229e:	c31c                	sw	a5,0(a4)
    22a0:	400217b7          	lui	a5,0x40021
    22a4:	439c                	lw	a5,0(a5)
    22a6:	00020737          	lui	a4,0x20
    22aa:	8ff9                	and	a5,a5,a4
    22ac:	c43e                	sw	a5,8(sp)
    22ae:	47b2                	lw	a5,12(sp)
    22b0:	0785                	addi	a5,a5,1 # 40021001 <_eusrstack+0x20019001>
    22b2:	c63e                	sw	a5,12(sp)
    22b4:	47a2                	lw	a5,8(sp)
    22b6:	e789                	bnez	a5,22c0 <SetSysClockTo144_HSE+0x32>
    22b8:	4732                	lw	a4,12(sp)
    22ba:	6785                	lui	a5,0x1
    22bc:	fef712e3          	bne	a4,a5,22a0 <SetSysClockTo144_HSE+0x12>
    22c0:	400217b7          	lui	a5,0x40021
    22c4:	439c                	lw	a5,0(a5)
    22c6:	00020737          	lui	a4,0x20
    22ca:	8ff9                	and	a5,a5,a4
    22cc:	cb89                	beqz	a5,22de <SetSysClockTo144_HSE+0x50>
    22ce:	4785                	li	a5,1
    22d0:	c43e                	sw	a5,8(sp)
    22d2:	4722                	lw	a4,8(sp)
    22d4:	4785                	li	a5,1
    22d6:	00f70663          	beq	a4,a5,22e2 <SetSysClockTo144_HSE+0x54>
    22da:	0141                	addi	sp,sp,16
    22dc:	8082                	ret
    22de:	c402                	sw	zero,8(sp)
    22e0:	bfcd                	j	22d2 <SetSysClockTo144_HSE+0x44>
    22e2:	400217b7          	lui	a5,0x40021
    22e6:	43d8                	lw	a4,4(a5)
    22e8:	c3d8                	sw	a4,4(a5)
    22ea:	43d8                	lw	a4,4(a5)
    22ec:	c3d8                	sw	a4,4(a5)
    22ee:	43d8                	lw	a4,4(a5)
    22f0:	40076713          	ori	a4,a4,1024
    22f4:	c3d8                	sw	a4,4(a5)
    22f6:	43d8                	lw	a4,4(a5)
    22f8:	ffc106b7          	lui	a3,0xffc10
    22fc:	16fd                	addi	a3,a3,-1 # ffc0ffff <_eusrstack+0xdfc07fff>
    22fe:	8f75                	and	a4,a4,a3
    2300:	c3d8                	sw	a4,4(a5)
    2302:	43d8                	lw	a4,4(a5)
    2304:	66c1                	lui	a3,0x10
    2306:	8f55                	or	a4,a4,a3
    2308:	c3d8                	sw	a4,4(a5)
    230a:	4398                	lw	a4,0(a5)
    230c:	010006b7          	lui	a3,0x1000
    2310:	8f55                	or	a4,a4,a3
    2312:	c398                	sw	a4,0(a5)
    2314:	400217b7          	lui	a5,0x40021
    2318:	439c                	lw	a5,0(a5)
    231a:	02000737          	lui	a4,0x2000
    231e:	8ff9                	and	a5,a5,a4
    2320:	dbf5                	beqz	a5,2314 <SetSysClockTo144_HSE+0x86>
    2322:	400217b7          	lui	a5,0x40021
    2326:	43d8                	lw	a4,4(a5)
    2328:	9b71                	andi	a4,a4,-4
    232a:	c3d8                	sw	a4,4(a5)
    232c:	43d8                	lw	a4,4(a5)
    232e:	00276713          	ori	a4,a4,2
    2332:	c3d8                	sw	a4,4(a5)
    2334:	400217b7          	lui	a5,0x40021
    2338:	43dc                	lw	a5,4(a5)
    233a:	8bb1                	andi	a5,a5,12
    233c:	4721                	li	a4,8
    233e:	fee79be3          	bne	a5,a4,2334 <SetSysClockTo144_HSE+0xa6>
    2342:	bf61                	j	22da <SetSysClockTo144_HSE+0x4c>

00002344 <SetSysClock>:
    2344:	1141                	addi	sp,sp,-16
    2346:	c606                	sw	ra,12(sp)
    2348:	3799                	jal	228e <SetSysClockTo144_HSE>
    234a:	40b2                	lw	ra,12(sp)
    234c:	0141                	addi	sp,sp,16
    234e:	8082                	ret

00002350 <SystemInit>:
    2350:	1141                	addi	sp,sp,-16
    2352:	c606                	sw	ra,12(sp)
    2354:	400217b7          	lui	a5,0x40021
    2358:	4398                	lw	a4,0(a5)
    235a:	00176713          	ori	a4,a4,1
    235e:	c398                	sw	a4,0(a5)
    2360:	43d8                	lw	a4,4(a5)
    2362:	f8ff06b7          	lui	a3,0xf8ff0
    2366:	8f75                	and	a4,a4,a3
    2368:	c3d8                	sw	a4,4(a5)
    236a:	4398                	lw	a4,0(a5)
    236c:	fef706b7          	lui	a3,0xfef70
    2370:	16fd                	addi	a3,a3,-1 # fef6ffff <_eusrstack+0xdef67fff>
    2372:	8f75                	and	a4,a4,a3
    2374:	c398                	sw	a4,0(a5)
    2376:	4398                	lw	a4,0(a5)
    2378:	fffc06b7          	lui	a3,0xfffc0
    237c:	16fd                	addi	a3,a3,-1 # fffbffff <_eusrstack+0xdffb7fff>
    237e:	8f75                	and	a4,a4,a3
    2380:	c398                	sw	a4,0(a5)
    2382:	43d8                	lw	a4,4(a5)
    2384:	ff8106b7          	lui	a3,0xff810
    2388:	16fd                	addi	a3,a3,-1 # ff80ffff <_eusrstack+0xdf807fff>
    238a:	8f75                	and	a4,a4,a3
    238c:	c3d8                	sw	a4,4(a5)
    238e:	4398                	lw	a4,0(a5)
    2390:	ec0006b7          	lui	a3,0xec000
    2394:	16fd                	addi	a3,a3,-1 # ebffffff <_eusrstack+0xcbff7fff>
    2396:	8f75                	and	a4,a4,a3
    2398:	c398                	sw	a4,0(a5)
    239a:	00ff0737          	lui	a4,0xff0
    239e:	c798                	sw	a4,8(a5)
    23a0:	0207a623          	sw	zero,44(a5) # 4002102c <_eusrstack+0x2001902c>
    23a4:	3745                	jal	2344 <SetSysClock>
    23a6:	40b2                	lw	ra,12(sp)
    23a8:	0141                	addi	sp,sp,16
    23aa:	8082                	ret

000023ac <SystemCoreClockUpdate>:
    23ac:	400217b7          	lui	a5,0x40021
    23b0:	43dc                	lw	a5,4(a5)
    23b2:	8bb1                	andi	a5,a5,12
    23b4:	4711                	li	a4,4
    23b6:	04e78663          	beq	a5,a4,2402 <SystemCoreClockUpdate+0x56>
    23ba:	4721                	li	a4,8
    23bc:	04e78a63          	beq	a5,a4,2410 <SystemCoreClockUpdate+0x64>
    23c0:	cb81                	beqz	a5,23d0 <SystemCoreClockUpdate+0x24>
    23c2:	007a17b7          	lui	a5,0x7a1
    23c6:	20078793          	addi	a5,a5,512 # 7a1200 <_data_lma+0x79df98>
    23ca:	80f1a823          	sw	a5,-2032(gp) # 20000518 <SystemCoreClock>
    23ce:	a039                	j	23dc <SystemCoreClockUpdate+0x30>
    23d0:	007a17b7          	lui	a5,0x7a1
    23d4:	20078793          	addi	a5,a5,512 # 7a1200 <_data_lma+0x79df98>
    23d8:	80f1a823          	sw	a5,-2032(gp) # 20000518 <SystemCoreClock>
    23dc:	400217b7          	lui	a5,0x40021
    23e0:	43dc                	lw	a5,4(a5)
    23e2:	8391                	srli	a5,a5,0x4
    23e4:	8bbd                	andi	a5,a5,15
    23e6:	1fffe717          	auipc	a4,0x1fffe
    23ea:	0b270713          	addi	a4,a4,178 # 20000498 <AHBPrescTable>
    23ee:	97ba                	add	a5,a5,a4
    23f0:	0007c683          	lbu	a3,0(a5) # 40021000 <_eusrstack+0x20019000>
    23f4:	81018713          	addi	a4,gp,-2032 # 20000518 <SystemCoreClock>
    23f8:	431c                	lw	a5,0(a4)
    23fa:	00d7d7b3          	srl	a5,a5,a3
    23fe:	c31c                	sw	a5,0(a4)
    2400:	8082                	ret
    2402:	007a17b7          	lui	a5,0x7a1
    2406:	20078793          	addi	a5,a5,512 # 7a1200 <_data_lma+0x79df98>
    240a:	80f1a823          	sw	a5,-2032(gp) # 20000518 <SystemCoreClock>
    240e:	b7f9                	j	23dc <SystemCoreClockUpdate+0x30>
    2410:	40021737          	lui	a4,0x40021
    2414:	435c                	lw	a5,4(a4)
    2416:	4358                	lw	a4,4(a4)
    2418:	66c1                	lui	a3,0x10
    241a:	8f75                	and	a4,a4,a3
    241c:	83c9                	srli	a5,a5,0x12
    241e:	8bbd                	andi	a5,a5,15
    2420:	0789                	addi	a5,a5,2
    2422:	4689                	li	a3,2
    2424:	04d78263          	beq	a5,a3,2468 <SystemCoreClockUpdate+0xbc>
    2428:	46bd                	li	a3,15
    242a:	04d78163          	beq	a5,a3,246c <SystemCoreClockUpdate+0xc0>
    242e:	46c1                	li	a3,16
    2430:	04d78163          	beq	a5,a3,2472 <SystemCoreClockUpdate+0xc6>
    2434:	4681                	li	a3,0
    2436:	4645                	li	a2,17
    2438:	04c78063          	beq	a5,a2,2478 <SystemCoreClockUpdate+0xcc>
    243c:	eb29                	bnez	a4,248e <SystemCoreClockUpdate+0xe2>
    243e:	40024737          	lui	a4,0x40024
    2442:	80072703          	lw	a4,-2048(a4) # 40023800 <_eusrstack+0x2001b800>
    2446:	8b41                	andi	a4,a4,16
    2448:	cb15                	beqz	a4,247c <SystemCoreClockUpdate+0xd0>
    244a:	007a1737          	lui	a4,0x7a1
    244e:	20070713          	addi	a4,a4,512 # 7a1200 <_data_lma+0x79df98>
    2452:	02e787b3          	mul	a5,a5,a4
    2456:	80f1a823          	sw	a5,-2032(gp) # 20000518 <SystemCoreClock>
    245a:	d2c9                	beqz	a3,23dc <SystemCoreClockUpdate+0x30>
    245c:	81018713          	addi	a4,gp,-2032 # 20000518 <SystemCoreClock>
    2460:	431c                	lw	a5,0(a4)
    2462:	8385                	srli	a5,a5,0x1
    2464:	c31c                	sw	a5,0(a4)
    2466:	bf9d                	j	23dc <SystemCoreClockUpdate+0x30>
    2468:	47c9                	li	a5,18
    246a:	b7d1                	j	242e <SystemCoreClockUpdate+0x82>
    246c:	4685                	li	a3,1
    246e:	47b5                	li	a5,13
    2470:	b7d9                	j	2436 <SystemCoreClockUpdate+0x8a>
    2472:	4681                	li	a3,0
    2474:	47bd                	li	a5,15
    2476:	b7d9                	j	243c <SystemCoreClockUpdate+0x90>
    2478:	47c1                	li	a5,16
    247a:	b7c9                	j	243c <SystemCoreClockUpdate+0x90>
    247c:	003d1737          	lui	a4,0x3d1
    2480:	90070713          	addi	a4,a4,-1792 # 3d0900 <_data_lma+0x3cd698>
    2484:	02e787b3          	mul	a5,a5,a4
    2488:	80f1a823          	sw	a5,-2032(gp) # 20000518 <SystemCoreClock>
    248c:	b7f9                	j	245a <SystemCoreClockUpdate+0xae>
    248e:	40021737          	lui	a4,0x40021
    2492:	4358                	lw	a4,4(a4)
    2494:	00020637          	lui	a2,0x20
    2498:	8f71                	and	a4,a4,a2
    249a:	cb11                	beqz	a4,24ae <SystemCoreClockUpdate+0x102>
    249c:	003d1737          	lui	a4,0x3d1
    24a0:	90070713          	addi	a4,a4,-1792 # 3d0900 <_data_lma+0x3cd698>
    24a4:	02e787b3          	mul	a5,a5,a4
    24a8:	80f1a823          	sw	a5,-2032(gp) # 20000518 <SystemCoreClock>
    24ac:	b77d                	j	245a <SystemCoreClockUpdate+0xae>
    24ae:	007a1737          	lui	a4,0x7a1
    24b2:	20070713          	addi	a4,a4,512 # 7a1200 <_data_lma+0x79df98>
    24b6:	02e787b3          	mul	a5,a5,a4
    24ba:	80f1a823          	sw	a5,-2032(gp) # 20000518 <SystemCoreClock>
    24be:	bf71                	j	245a <SystemCoreClockUpdate+0xae>

000024c0 <_puts_r>:
    24c0:	1101                	addi	sp,sp,-32
    24c2:	ca26                	sw	s1,20(sp)
    24c4:	ce06                	sw	ra,28(sp)
    24c6:	cc22                	sw	s0,24(sp)
    24c8:	c84a                	sw	s2,16(sp)
    24ca:	c64e                	sw	s3,12(sp)
    24cc:	c452                	sw	s4,8(sp)
    24ce:	84aa                	mv	s1,a0
    24d0:	e119                	bnez	a0,24d6 <_puts_r+0x16>
    24d2:	451c                	lw	a5,8(a0)
    24d4:	9002                	ebreak
    24d6:	4d1c                	lw	a5,24(a0)
    24d8:	892e                	mv	s2,a1
    24da:	e7a5                	bnez	a5,2542 <_puts_r+0x82>
    24dc:	2399                	jal	2a22 <__sinit>
    24de:	4c9c                	lw	a5,24(s1)
    24e0:	4480                	lw	s0,8(s1)
    24e2:	c3b5                	beqz	a5,2546 <_puts_r+0x86>
    24e4:	00001797          	auipc	a5,0x1
    24e8:	d6478793          	addi	a5,a5,-668 # 3248 <__sf_fake_stdin>
    24ec:	06f41063          	bne	s0,a5,254c <_puts_r+0x8c>
    24f0:	40c0                	lw	s0,4(s1)
    24f2:	507c                	lw	a5,100(s0)
    24f4:	8b85                	andi	a5,a5,1
    24f6:	eb81                	bnez	a5,2506 <_puts_r+0x46>
    24f8:	00c45783          	lhu	a5,12(s0)
    24fc:	2007f793          	andi	a5,a5,512
    2500:	e399                	bnez	a5,2506 <_puts_r+0x46>
    2502:	4c28                	lw	a0,88(s0)
    2504:	2d61                	jal	2b9c <__retarget_lock_acquire_recursive>
    2506:	00c45783          	lhu	a5,12(s0)
    250a:	8ba1                	andi	a5,a5,8
    250c:	c399                	beqz	a5,2512 <_puts_r+0x52>
    250e:	481c                	lw	a5,16(s0)
    2510:	e7c5                	bnez	a5,25b8 <_puts_r+0xf8>
    2512:	85a2                	mv	a1,s0
    2514:	8526                	mv	a0,s1
    2516:	2241                	jal	2696 <__swsetup_r>
    2518:	c145                	beqz	a0,25b8 <_puts_r+0xf8>
    251a:	54fd                	li	s1,-1
    251c:	507c                	lw	a5,100(s0)
    251e:	8b85                	andi	a5,a5,1
    2520:	eb81                	bnez	a5,2530 <_puts_r+0x70>
    2522:	00c45783          	lhu	a5,12(s0)
    2526:	2007f793          	andi	a5,a5,512
    252a:	e399                	bnez	a5,2530 <_puts_r+0x70>
    252c:	4c28                	lw	a0,88(s0)
    252e:	2d85                	jal	2b9e <__retarget_lock_release_recursive>
    2530:	40f2                	lw	ra,28(sp)
    2532:	4462                	lw	s0,24(sp)
    2534:	4942                	lw	s2,16(sp)
    2536:	49b2                	lw	s3,12(sp)
    2538:	4a22                	lw	s4,8(sp)
    253a:	8526                	mv	a0,s1
    253c:	44d2                	lw	s1,20(sp)
    253e:	6105                	addi	sp,sp,32
    2540:	8082                	ret
    2542:	4500                	lw	s0,8(a0)
    2544:	b745                	j	24e4 <_puts_r+0x24>
    2546:	8526                	mv	a0,s1
    2548:	29e9                	jal	2a22 <__sinit>
    254a:	bf69                	j	24e4 <_puts_r+0x24>
    254c:	00001797          	auipc	a5,0x1
    2550:	cdc78793          	addi	a5,a5,-804 # 3228 <__sf_fake_stdout>
    2554:	00f41463          	bne	s0,a5,255c <_puts_r+0x9c>
    2558:	4480                	lw	s0,8(s1)
    255a:	bf61                	j	24f2 <_puts_r+0x32>
    255c:	00001797          	auipc	a5,0x1
    2560:	cac78793          	addi	a5,a5,-852 # 3208 <__sf_fake_stderr>
    2564:	f8f417e3          	bne	s0,a5,24f2 <_puts_r+0x32>
    2568:	44c0                	lw	s0,12(s1)
    256a:	b761                	j	24f2 <_puts_r+0x32>
    256c:	c41c                	sw	a5,8(s0)
    256e:	0905                	addi	s2,s2,1
    2570:	0207c963          	bltz	a5,25a2 <_puts_r+0xe2>
    2574:	401c                	lw	a5,0(s0)
    2576:	00178713          	addi	a4,a5,1
    257a:	c018                	sw	a4,0(s0)
    257c:	00b78023          	sb	a1,0(a5)
    2580:	441c                	lw	a5,8(s0)
    2582:	00094583          	lbu	a1,0(s2)
    2586:	17fd                	addi	a5,a5,-1
    2588:	f1f5                	bnez	a1,256c <_puts_r+0xac>
    258a:	c41c                	sw	a5,8(s0)
    258c:	0207d963          	bgez	a5,25be <_puts_r+0xfe>
    2590:	8622                	mv	a2,s0
    2592:	45a9                	li	a1,10
    2594:	8526                	mv	a0,s1
    2596:	2081                	jal	25d6 <__swbuf_r>
    2598:	57fd                	li	a5,-1
    259a:	f8f500e3          	beq	a0,a5,251a <_puts_r+0x5a>
    259e:	44a9                	li	s1,10
    25a0:	bfb5                	j	251c <_puts_r+0x5c>
    25a2:	4c18                	lw	a4,24(s0)
    25a4:	00e7c463          	blt	a5,a4,25ac <_puts_r+0xec>
    25a8:	fd4596e3          	bne	a1,s4,2574 <_puts_r+0xb4>
    25ac:	8622                	mv	a2,s0
    25ae:	8526                	mv	a0,s1
    25b0:	201d                	jal	25d6 <__swbuf_r>
    25b2:	fd3517e3          	bne	a0,s3,2580 <_puts_r+0xc0>
    25b6:	b795                	j	251a <_puts_r+0x5a>
    25b8:	59fd                	li	s3,-1
    25ba:	4a29                	li	s4,10
    25bc:	b7d1                	j	2580 <_puts_r+0xc0>
    25be:	401c                	lw	a5,0(s0)
    25c0:	00178713          	addi	a4,a5,1
    25c4:	c018                	sw	a4,0(s0)
    25c6:	4729                	li	a4,10
    25c8:	00e78023          	sb	a4,0(a5)
    25cc:	bfc9                	j	259e <_puts_r+0xde>

000025ce <puts>:
    25ce:	85aa                	mv	a1,a0
    25d0:	8141a503          	lw	a0,-2028(gp) # 2000051c <_impure_ptr>
    25d4:	b5f5                	j	24c0 <_puts_r>

000025d6 <__swbuf_r>:
    25d6:	1101                	addi	sp,sp,-32
    25d8:	cc22                	sw	s0,24(sp)
    25da:	ca26                	sw	s1,20(sp)
    25dc:	c84a                	sw	s2,16(sp)
    25de:	ce06                	sw	ra,28(sp)
    25e0:	c64e                	sw	s3,12(sp)
    25e2:	84aa                	mv	s1,a0
    25e4:	892e                	mv	s2,a1
    25e6:	8432                	mv	s0,a2
    25e8:	c501                	beqz	a0,25f0 <__swbuf_r+0x1a>
    25ea:	4d1c                	lw	a5,24(a0)
    25ec:	e391                	bnez	a5,25f0 <__swbuf_r+0x1a>
    25ee:	2915                	jal	2a22 <__sinit>
    25f0:	00001797          	auipc	a5,0x1
    25f4:	c5878793          	addi	a5,a5,-936 # 3248 <__sf_fake_stdin>
    25f8:	02f41863          	bne	s0,a5,2628 <__swbuf_r+0x52>
    25fc:	40c0                	lw	s0,4(s1)
    25fe:	4c1c                	lw	a5,24(s0)
    2600:	c41c                	sw	a5,8(s0)
    2602:	00c45783          	lhu	a5,12(s0)
    2606:	8ba1                	andi	a5,a5,8
    2608:	c399                	beqz	a5,260e <__swbuf_r+0x38>
    260a:	481c                	lw	a5,16(s0)
    260c:	ef95                	bnez	a5,2648 <__swbuf_r+0x72>
    260e:	85a2                	mv	a1,s0
    2610:	8526                	mv	a0,s1
    2612:	2051                	jal	2696 <__swsetup_r>
    2614:	c915                	beqz	a0,2648 <__swbuf_r+0x72>
    2616:	597d                	li	s2,-1
    2618:	40f2                	lw	ra,28(sp)
    261a:	4462                	lw	s0,24(sp)
    261c:	44d2                	lw	s1,20(sp)
    261e:	49b2                	lw	s3,12(sp)
    2620:	854a                	mv	a0,s2
    2622:	4942                	lw	s2,16(sp)
    2624:	6105                	addi	sp,sp,32
    2626:	8082                	ret
    2628:	00001797          	auipc	a5,0x1
    262c:	c0078793          	addi	a5,a5,-1024 # 3228 <__sf_fake_stdout>
    2630:	00f41463          	bne	s0,a5,2638 <__swbuf_r+0x62>
    2634:	4480                	lw	s0,8(s1)
    2636:	b7e1                	j	25fe <__swbuf_r+0x28>
    2638:	00001797          	auipc	a5,0x1
    263c:	bd078793          	addi	a5,a5,-1072 # 3208 <__sf_fake_stderr>
    2640:	faf41fe3          	bne	s0,a5,25fe <__swbuf_r+0x28>
    2644:	44c0                	lw	s0,12(s1)
    2646:	bf65                	j	25fe <__swbuf_r+0x28>
    2648:	481c                	lw	a5,16(s0)
    264a:	4008                	lw	a0,0(s0)
    264c:	0ff97993          	zext.b	s3,s2
    2650:	0ff97913          	zext.b	s2,s2
    2654:	8d1d                	sub	a0,a0,a5
    2656:	485c                	lw	a5,20(s0)
    2658:	00f54663          	blt	a0,a5,2664 <__swbuf_r+0x8e>
    265c:	85a2                	mv	a1,s0
    265e:	8526                	mv	a0,s1
    2660:	24a5                	jal	28c8 <_fflush_r>
    2662:	f955                	bnez	a0,2616 <__swbuf_r+0x40>
    2664:	441c                	lw	a5,8(s0)
    2666:	0505                	addi	a0,a0,1
    2668:	17fd                	addi	a5,a5,-1
    266a:	c41c                	sw	a5,8(s0)
    266c:	401c                	lw	a5,0(s0)
    266e:	00178713          	addi	a4,a5,1
    2672:	c018                	sw	a4,0(s0)
    2674:	01378023          	sb	s3,0(a5)
    2678:	485c                	lw	a5,20(s0)
    267a:	00a78963          	beq	a5,a0,268c <__swbuf_r+0xb6>
    267e:	00c45783          	lhu	a5,12(s0)
    2682:	8b85                	andi	a5,a5,1
    2684:	dbd1                	beqz	a5,2618 <__swbuf_r+0x42>
    2686:	47a9                	li	a5,10
    2688:	f8f918e3          	bne	s2,a5,2618 <__swbuf_r+0x42>
    268c:	85a2                	mv	a1,s0
    268e:	8526                	mv	a0,s1
    2690:	2c25                	jal	28c8 <_fflush_r>
    2692:	d159                	beqz	a0,2618 <__swbuf_r+0x42>
    2694:	b749                	j	2616 <__swbuf_r+0x40>

00002696 <__swsetup_r>:
    2696:	1141                	addi	sp,sp,-16
    2698:	c422                	sw	s0,8(sp)
    269a:	c226                	sw	s1,4(sp)
    269c:	c04a                	sw	s2,0(sp)
    269e:	c606                	sw	ra,12(sp)
    26a0:	8141a483          	lw	s1,-2028(gp) # 2000051c <_impure_ptr>
    26a4:	892a                	mv	s2,a0
    26a6:	842e                	mv	s0,a1
    26a8:	c489                	beqz	s1,26b2 <__swsetup_r+0x1c>
    26aa:	4c9c                	lw	a5,24(s1)
    26ac:	e399                	bnez	a5,26b2 <__swsetup_r+0x1c>
    26ae:	8526                	mv	a0,s1
    26b0:	2e8d                	jal	2a22 <__sinit>
    26b2:	00001797          	auipc	a5,0x1
    26b6:	b9678793          	addi	a5,a5,-1130 # 3248 <__sf_fake_stdin>
    26ba:	02f41463          	bne	s0,a5,26e2 <__swsetup_r+0x4c>
    26be:	40c0                	lw	s0,4(s1)
    26c0:	00c41783          	lh	a5,12(s0)
    26c4:	0087f713          	andi	a4,a5,8
    26c8:	eb2d                	bnez	a4,273a <__swsetup_r+0xa4>
    26ca:	0107f713          	andi	a4,a5,16
    26ce:	eb15                	bnez	a4,2702 <__swsetup_r+0x6c>
    26d0:	4725                	li	a4,9
    26d2:	00e92023          	sw	a4,0(s2)
    26d6:	0407e793          	ori	a5,a5,64
    26da:	00f41623          	sh	a5,12(s0)
    26de:	557d                	li	a0,-1
    26e0:	a859                	j	2776 <__swsetup_r+0xe0>
    26e2:	00001797          	auipc	a5,0x1
    26e6:	b4678793          	addi	a5,a5,-1210 # 3228 <__sf_fake_stdout>
    26ea:	00f41463          	bne	s0,a5,26f2 <__swsetup_r+0x5c>
    26ee:	4480                	lw	s0,8(s1)
    26f0:	bfc1                	j	26c0 <__swsetup_r+0x2a>
    26f2:	00001797          	auipc	a5,0x1
    26f6:	b1678793          	addi	a5,a5,-1258 # 3208 <__sf_fake_stderr>
    26fa:	fcf413e3          	bne	s0,a5,26c0 <__swsetup_r+0x2a>
    26fe:	44c0                	lw	s0,12(s1)
    2700:	b7c1                	j	26c0 <__swsetup_r+0x2a>
    2702:	8b91                	andi	a5,a5,4
    2704:	c78d                	beqz	a5,272e <__swsetup_r+0x98>
    2706:	584c                	lw	a1,52(s0)
    2708:	c989                	beqz	a1,271a <__swsetup_r+0x84>
    270a:	04440793          	addi	a5,s0,68
    270e:	00f58463          	beq	a1,a5,2716 <__swsetup_r+0x80>
    2712:	854a                	mv	a0,s2
    2714:	2361                	jal	2c9c <_free_r>
    2716:	02042a23          	sw	zero,52(s0)
    271a:	00c45783          	lhu	a5,12(s0)
    271e:	00042223          	sw	zero,4(s0)
    2722:	fdb7f793          	andi	a5,a5,-37
    2726:	00f41623          	sh	a5,12(s0)
    272a:	481c                	lw	a5,16(s0)
    272c:	c01c                	sw	a5,0(s0)
    272e:	00c45783          	lhu	a5,12(s0)
    2732:	0087e793          	ori	a5,a5,8
    2736:	00f41623          	sh	a5,12(s0)
    273a:	481c                	lw	a5,16(s0)
    273c:	ef81                	bnez	a5,2754 <__swsetup_r+0xbe>
    273e:	00c45783          	lhu	a5,12(s0)
    2742:	20000713          	li	a4,512
    2746:	2807f793          	andi	a5,a5,640
    274a:	00e78563          	beq	a5,a4,2754 <__swsetup_r+0xbe>
    274e:	85a2                	mv	a1,s0
    2750:	854a                	mv	a0,s2
    2752:	2165                	jal	2bfa <__smakebuf_r>
    2754:	00c41783          	lh	a5,12(s0)
    2758:	0017f713          	andi	a4,a5,1
    275c:	c31d                	beqz	a4,2782 <__swsetup_r+0xec>
    275e:	4858                	lw	a4,20(s0)
    2760:	00042423          	sw	zero,8(s0)
    2764:	40e00733          	neg	a4,a4
    2768:	cc18                	sw	a4,24(s0)
    276a:	4818                	lw	a4,16(s0)
    276c:	4501                	li	a0,0
    276e:	e701                	bnez	a4,2776 <__swsetup_r+0xe0>
    2770:	0807f713          	andi	a4,a5,128
    2774:	f32d                	bnez	a4,26d6 <__swsetup_r+0x40>
    2776:	40b2                	lw	ra,12(sp)
    2778:	4422                	lw	s0,8(sp)
    277a:	4492                	lw	s1,4(sp)
    277c:	4902                	lw	s2,0(sp)
    277e:	0141                	addi	sp,sp,16
    2780:	8082                	ret
    2782:	0027f713          	andi	a4,a5,2
    2786:	4681                	li	a3,0
    2788:	e311                	bnez	a4,278c <__swsetup_r+0xf6>
    278a:	4854                	lw	a3,20(s0)
    278c:	c414                	sw	a3,8(s0)
    278e:	bff1                	j	276a <__swsetup_r+0xd4>

00002790 <__sflush_r>:
    2790:	00c59783          	lh	a5,12(a1)
    2794:	1101                	addi	sp,sp,-32
    2796:	cc22                	sw	s0,24(sp)
    2798:	ca26                	sw	s1,20(sp)
    279a:	ce06                	sw	ra,28(sp)
    279c:	c84a                	sw	s2,16(sp)
    279e:	c64e                	sw	s3,12(sp)
    27a0:	0087f713          	andi	a4,a5,8
    27a4:	84aa                	mv	s1,a0
    27a6:	842e                	mv	s0,a1
    27a8:	e769                	bnez	a4,2872 <__sflush_r+0xe2>
    27aa:	41d8                	lw	a4,4(a1)
    27ac:	00e04563          	bgtz	a4,27b6 <__sflush_r+0x26>
    27b0:	41b8                	lw	a4,64(a1)
    27b2:	08e05863          	blez	a4,2842 <__sflush_r+0xb2>
    27b6:	5458                	lw	a4,44(s0)
    27b8:	c749                	beqz	a4,2842 <__sflush_r+0xb2>
    27ba:	83b1                	srli	a5,a5,0xc
    27bc:	0004a903          	lw	s2,0(s1)
    27c0:	8b85                	andi	a5,a5,1
    27c2:	0004a023          	sw	zero,0(s1)
    27c6:	500c                	lw	a1,32(s0)
    27c8:	cbb9                	beqz	a5,281e <__sflush_r+0x8e>
    27ca:	4870                	lw	a2,84(s0)
    27cc:	00c45783          	lhu	a5,12(s0)
    27d0:	8b91                	andi	a5,a5,4
    27d2:	c799                	beqz	a5,27e0 <__sflush_r+0x50>
    27d4:	405c                	lw	a5,4(s0)
    27d6:	8e1d                	sub	a2,a2,a5
    27d8:	585c                	lw	a5,52(s0)
    27da:	c399                	beqz	a5,27e0 <__sflush_r+0x50>
    27dc:	403c                	lw	a5,64(s0)
    27de:	8e1d                	sub	a2,a2,a5
    27e0:	545c                	lw	a5,44(s0)
    27e2:	500c                	lw	a1,32(s0)
    27e4:	4681                	li	a3,0
    27e6:	8526                	mv	a0,s1
    27e8:	9782                	jalr	a5
    27ea:	57fd                	li	a5,-1
    27ec:	04f50d63          	beq	a0,a5,2846 <__sflush_r+0xb6>
    27f0:	481c                	lw	a5,16(s0)
    27f2:	6705                	lui	a4,0x1
    27f4:	00042223          	sw	zero,4(s0)
    27f8:	c01c                	sw	a5,0(s0)
    27fa:	00c45783          	lhu	a5,12(s0)
    27fe:	8ff9                	and	a5,a5,a4
    2800:	c391                	beqz	a5,2804 <__sflush_r+0x74>
    2802:	c868                	sw	a0,84(s0)
    2804:	584c                	lw	a1,52(s0)
    2806:	0124a023          	sw	s2,0(s1)
    280a:	cd85                	beqz	a1,2842 <__sflush_r+0xb2>
    280c:	04440793          	addi	a5,s0,68
    2810:	00f58463          	beq	a1,a5,2818 <__sflush_r+0x88>
    2814:	8526                	mv	a0,s1
    2816:	2159                	jal	2c9c <_free_r>
    2818:	02042a23          	sw	zero,52(s0)
    281c:	a01d                	j	2842 <__sflush_r+0xb2>
    281e:	4601                	li	a2,0
    2820:	4685                	li	a3,1
    2822:	8526                	mv	a0,s1
    2824:	9702                	jalr	a4
    2826:	57fd                	li	a5,-1
    2828:	862a                	mv	a2,a0
    282a:	faf511e3          	bne	a0,a5,27cc <__sflush_r+0x3c>
    282e:	409c                	lw	a5,0(s1)
    2830:	dfd1                	beqz	a5,27cc <__sflush_r+0x3c>
    2832:	4775                	li	a4,29
    2834:	00e78563          	beq	a5,a4,283e <__sflush_r+0xae>
    2838:	4759                	li	a4,22
    283a:	06e79563          	bne	a5,a4,28a4 <__sflush_r+0x114>
    283e:	0124a023          	sw	s2,0(s1)
    2842:	4501                	li	a0,0
    2844:	a0bd                	j	28b2 <__sflush_r+0x122>
    2846:	4098                	lw	a4,0(s1)
    2848:	00c41783          	lh	a5,12(s0)
    284c:	cf01                	beqz	a4,2864 <__sflush_r+0xd4>
    284e:	46f5                	li	a3,29
    2850:	00d70563          	beq	a4,a3,285a <__sflush_r+0xca>
    2854:	46d9                	li	a3,22
    2856:	04d71963          	bne	a4,a3,28a8 <__sflush_r+0x118>
    285a:	481c                	lw	a5,16(s0)
    285c:	00042223          	sw	zero,4(s0)
    2860:	c01c                	sw	a5,0(s0)
    2862:	b74d                	j	2804 <__sflush_r+0x74>
    2864:	4818                	lw	a4,16(s0)
    2866:	83b1                	srli	a5,a5,0xc
    2868:	00042223          	sw	zero,4(s0)
    286c:	c018                	sw	a4,0(s0)
    286e:	8b85                	andi	a5,a5,1
    2870:	bf41                	j	2800 <__sflush_r+0x70>
    2872:	0105a983          	lw	s3,16(a1)
    2876:	fc0986e3          	beqz	s3,2842 <__sflush_r+0xb2>
    287a:	0005a903          	lw	s2,0(a1)
    287e:	8b8d                	andi	a5,a5,3
    2880:	0135a023          	sw	s3,0(a1)
    2884:	41390933          	sub	s2,s2,s3
    2888:	4701                	li	a4,0
    288a:	e391                	bnez	a5,288e <__sflush_r+0xfe>
    288c:	49d8                	lw	a4,20(a1)
    288e:	c418                	sw	a4,8(s0)
    2890:	fb2059e3          	blez	s2,2842 <__sflush_r+0xb2>
    2894:	541c                	lw	a5,40(s0)
    2896:	500c                	lw	a1,32(s0)
    2898:	86ca                	mv	a3,s2
    289a:	864e                	mv	a2,s3
    289c:	8526                	mv	a0,s1
    289e:	9782                	jalr	a5
    28a0:	02a04063          	bgtz	a0,28c0 <__sflush_r+0x130>
    28a4:	00c41783          	lh	a5,12(s0)
    28a8:	0407e793          	ori	a5,a5,64
    28ac:	00f41623          	sh	a5,12(s0)
    28b0:	557d                	li	a0,-1
    28b2:	40f2                	lw	ra,28(sp)
    28b4:	4462                	lw	s0,24(sp)
    28b6:	44d2                	lw	s1,20(sp)
    28b8:	4942                	lw	s2,16(sp)
    28ba:	49b2                	lw	s3,12(sp)
    28bc:	6105                	addi	sp,sp,32
    28be:	8082                	ret
    28c0:	99aa                	add	s3,s3,a0
    28c2:	40a90933          	sub	s2,s2,a0
    28c6:	b7e9                	j	2890 <__sflush_r+0x100>

000028c8 <_fflush_r>:
    28c8:	499c                	lw	a5,16(a1)
    28ca:	1141                	addi	sp,sp,-16
    28cc:	c606                	sw	ra,12(sp)
    28ce:	c422                	sw	s0,8(sp)
    28d0:	c226                	sw	s1,4(sp)
    28d2:	eb81                	bnez	a5,28e2 <_fflush_r+0x1a>
    28d4:	4481                	li	s1,0
    28d6:	40b2                	lw	ra,12(sp)
    28d8:	4422                	lw	s0,8(sp)
    28da:	8526                	mv	a0,s1
    28dc:	4492                	lw	s1,4(sp)
    28de:	0141                	addi	sp,sp,16
    28e0:	8082                	ret
    28e2:	84aa                	mv	s1,a0
    28e4:	842e                	mv	s0,a1
    28e6:	c501                	beqz	a0,28ee <_fflush_r+0x26>
    28e8:	4d1c                	lw	a5,24(a0)
    28ea:	e391                	bnez	a5,28ee <_fflush_r+0x26>
    28ec:	2a1d                	jal	2a22 <__sinit>
    28ee:	00001797          	auipc	a5,0x1
    28f2:	95a78793          	addi	a5,a5,-1702 # 3248 <__sf_fake_stdin>
    28f6:	02f41d63          	bne	s0,a5,2930 <_fflush_r+0x68>
    28fa:	40c0                	lw	s0,4(s1)
    28fc:	00c41783          	lh	a5,12(s0)
    2900:	dbf1                	beqz	a5,28d4 <_fflush_r+0xc>
    2902:	5078                	lw	a4,100(s0)
    2904:	8b05                	andi	a4,a4,1
    2906:	e711                	bnez	a4,2912 <_fflush_r+0x4a>
    2908:	2007f793          	andi	a5,a5,512
    290c:	e399                	bnez	a5,2912 <_fflush_r+0x4a>
    290e:	4c28                	lw	a0,88(s0)
    2910:	2471                	jal	2b9c <__retarget_lock_acquire_recursive>
    2912:	8526                	mv	a0,s1
    2914:	85a2                	mv	a1,s0
    2916:	3dad                	jal	2790 <__sflush_r>
    2918:	507c                	lw	a5,100(s0)
    291a:	84aa                	mv	s1,a0
    291c:	8b85                	andi	a5,a5,1
    291e:	ffc5                	bnez	a5,28d6 <_fflush_r+0xe>
    2920:	00c45783          	lhu	a5,12(s0)
    2924:	2007f793          	andi	a5,a5,512
    2928:	f7dd                	bnez	a5,28d6 <_fflush_r+0xe>
    292a:	4c28                	lw	a0,88(s0)
    292c:	2c8d                	jal	2b9e <__retarget_lock_release_recursive>
    292e:	b765                	j	28d6 <_fflush_r+0xe>
    2930:	00001797          	auipc	a5,0x1
    2934:	8f878793          	addi	a5,a5,-1800 # 3228 <__sf_fake_stdout>
    2938:	00f41463          	bne	s0,a5,2940 <_fflush_r+0x78>
    293c:	4480                	lw	s0,8(s1)
    293e:	bf7d                	j	28fc <_fflush_r+0x34>
    2940:	00001797          	auipc	a5,0x1
    2944:	8c878793          	addi	a5,a5,-1848 # 3208 <__sf_fake_stderr>
    2948:	faf41ae3          	bne	s0,a5,28fc <_fflush_r+0x34>
    294c:	44c0                	lw	s0,12(s1)
    294e:	b77d                	j	28fc <_fflush_r+0x34>

00002950 <std>:
    2950:	1141                	addi	sp,sp,-16
    2952:	c422                	sw	s0,8(sp)
    2954:	c606                	sw	ra,12(sp)
    2956:	842a                	mv	s0,a0
    2958:	00b51623          	sh	a1,12(a0)
    295c:	00c51723          	sh	a2,14(a0)
    2960:	00052023          	sw	zero,0(a0)
    2964:	00052223          	sw	zero,4(a0)
    2968:	00052423          	sw	zero,8(a0)
    296c:	06052223          	sw	zero,100(a0)
    2970:	00052823          	sw	zero,16(a0)
    2974:	00052a23          	sw	zero,20(a0)
    2978:	00052c23          	sw	zero,24(a0)
    297c:	4621                	li	a2,8
    297e:	4581                	li	a1,0
    2980:	05c50513          	addi	a0,a0,92
    2984:	853fd0ef          	jal	ra,1d6 <memset>
    2988:	00000797          	auipc	a5,0x0
    298c:	53678793          	addi	a5,a5,1334 # 2ebe <__sread>
    2990:	d05c                	sw	a5,36(s0)
    2992:	00000797          	auipc	a5,0x0
    2996:	55c78793          	addi	a5,a5,1372 # 2eee <__swrite>
    299a:	d41c                	sw	a5,40(s0)
    299c:	00000797          	auipc	a5,0x0
    29a0:	5a078793          	addi	a5,a5,1440 # 2f3c <__sseek>
    29a4:	d45c                	sw	a5,44(s0)
    29a6:	00000797          	auipc	a5,0x0
    29aa:	5cc78793          	addi	a5,a5,1484 # 2f72 <__sclose>
    29ae:	40b2                	lw	ra,12(sp)
    29b0:	d000                	sw	s0,32(s0)
    29b2:	d81c                	sw	a5,48(s0)
    29b4:	4422                	lw	s0,8(sp)
    29b6:	0141                	addi	sp,sp,16
    29b8:	8082                	ret

000029ba <_cleanup_r>:
    29ba:	00000597          	auipc	a1,0x0
    29be:	f0e58593          	addi	a1,a1,-242 # 28c8 <_fflush_r>
    29c2:	a2bd                	j	2b30 <_fwalk_reent>

000029c4 <__sfmoreglue>:
    29c4:	1141                	addi	sp,sp,-16
    29c6:	c226                	sw	s1,4(sp)
    29c8:	06800793          	li	a5,104
    29cc:	fff58493          	addi	s1,a1,-1
    29d0:	02f484b3          	mul	s1,s1,a5
    29d4:	c04a                	sw	s2,0(sp)
    29d6:	892e                	mv	s2,a1
    29d8:	c422                	sw	s0,8(sp)
    29da:	c606                	sw	ra,12(sp)
    29dc:	07448593          	addi	a1,s1,116
    29e0:	267d                	jal	2d8e <_malloc_r>
    29e2:	842a                	mv	s0,a0
    29e4:	cd01                	beqz	a0,29fc <__sfmoreglue+0x38>
    29e6:	00052023          	sw	zero,0(a0)
    29ea:	01252223          	sw	s2,4(a0)
    29ee:	0531                	addi	a0,a0,12
    29f0:	c408                	sw	a0,8(s0)
    29f2:	06848613          	addi	a2,s1,104
    29f6:	4581                	li	a1,0
    29f8:	fdefd0ef          	jal	ra,1d6 <memset>
    29fc:	40b2                	lw	ra,12(sp)
    29fe:	8522                	mv	a0,s0
    2a00:	4422                	lw	s0,8(sp)
    2a02:	4492                	lw	s1,4(sp)
    2a04:	4902                	lw	s2,0(sp)
    2a06:	0141                	addi	sp,sp,16
    2a08:	8082                	ret

00002a0a <__sfp_lock_acquire>:
    2a0a:	84c18513          	addi	a0,gp,-1972 # 20000554 <__lock___sfp_recursive_mutex>
    2a0e:	a279                	j	2b9c <__retarget_lock_acquire_recursive>

00002a10 <__sfp_lock_release>:
    2a10:	84c18513          	addi	a0,gp,-1972 # 20000554 <__lock___sfp_recursive_mutex>
    2a14:	a269                	j	2b9e <__retarget_lock_release_recursive>

00002a16 <__sinit_lock_acquire>:
    2a16:	85018513          	addi	a0,gp,-1968 # 20000558 <__lock___sinit_recursive_mutex>
    2a1a:	a249                	j	2b9c <__retarget_lock_acquire_recursive>

00002a1c <__sinit_lock_release>:
    2a1c:	85018513          	addi	a0,gp,-1968 # 20000558 <__lock___sinit_recursive_mutex>
    2a20:	aabd                	j	2b9e <__retarget_lock_release_recursive>

00002a22 <__sinit>:
    2a22:	1141                	addi	sp,sp,-16
    2a24:	c422                	sw	s0,8(sp)
    2a26:	c606                	sw	ra,12(sp)
    2a28:	842a                	mv	s0,a0
    2a2a:	37f5                	jal	2a16 <__sinit_lock_acquire>
    2a2c:	4c1c                	lw	a5,24(s0)
    2a2e:	c789                	beqz	a5,2a38 <__sinit+0x16>
    2a30:	4422                	lw	s0,8(sp)
    2a32:	40b2                	lw	ra,12(sp)
    2a34:	0141                	addi	sp,sp,16
    2a36:	b7dd                	j	2a1c <__sinit_lock_release>
    2a38:	00000797          	auipc	a5,0x0
    2a3c:	f8278793          	addi	a5,a5,-126 # 29ba <_cleanup_r>
    2a40:	d41c                	sw	a5,40(s0)
    2a42:	04042423          	sw	zero,72(s0)
    2a46:	04042623          	sw	zero,76(s0)
    2a4a:	04042823          	sw	zero,80(s0)
    2a4e:	81c1a783          	lw	a5,-2020(gp) # 20000524 <_global_impure_ptr>
    2a52:	00879463          	bne	a5,s0,2a5a <__sinit+0x38>
    2a56:	4785                	li	a5,1
    2a58:	cc1c                	sw	a5,24(s0)
    2a5a:	8522                	mv	a0,s0
    2a5c:	203d                	jal	2a8a <__sfp>
    2a5e:	c048                	sw	a0,4(s0)
    2a60:	8522                	mv	a0,s0
    2a62:	2025                	jal	2a8a <__sfp>
    2a64:	c408                	sw	a0,8(s0)
    2a66:	8522                	mv	a0,s0
    2a68:	200d                	jal	2a8a <__sfp>
    2a6a:	c448                	sw	a0,12(s0)
    2a6c:	4048                	lw	a0,4(s0)
    2a6e:	4601                	li	a2,0
    2a70:	4591                	li	a1,4
    2a72:	3df9                	jal	2950 <std>
    2a74:	4408                	lw	a0,8(s0)
    2a76:	4605                	li	a2,1
    2a78:	45a5                	li	a1,9
    2a7a:	3dd9                	jal	2950 <std>
    2a7c:	4448                	lw	a0,12(s0)
    2a7e:	4609                	li	a2,2
    2a80:	45c9                	li	a1,18
    2a82:	35f9                	jal	2950 <std>
    2a84:	4785                	li	a5,1
    2a86:	cc1c                	sw	a5,24(s0)
    2a88:	b765                	j	2a30 <__sinit+0xe>

00002a8a <__sfp>:
    2a8a:	1141                	addi	sp,sp,-16
    2a8c:	c226                	sw	s1,4(sp)
    2a8e:	c04a                	sw	s2,0(sp)
    2a90:	c606                	sw	ra,12(sp)
    2a92:	c422                	sw	s0,8(sp)
    2a94:	892a                	mv	s2,a0
    2a96:	3f95                	jal	2a0a <__sfp_lock_acquire>
    2a98:	81c1a483          	lw	s1,-2020(gp) # 20000524 <_global_impure_ptr>
    2a9c:	4c9c                	lw	a5,24(s1)
    2a9e:	e399                	bnez	a5,2aa4 <__sfp+0x1a>
    2aa0:	8526                	mv	a0,s1
    2aa2:	3741                	jal	2a22 <__sinit>
    2aa4:	04848493          	addi	s1,s1,72
    2aa8:	4480                	lw	s0,8(s1)
    2aaa:	40dc                	lw	a5,4(s1)
    2aac:	17fd                	addi	a5,a5,-1
    2aae:	0007d663          	bgez	a5,2aba <__sfp+0x30>
    2ab2:	409c                	lw	a5,0(s1)
    2ab4:	c3bd                	beqz	a5,2b1a <__sfp+0x90>
    2ab6:	4084                	lw	s1,0(s1)
    2ab8:	bfc5                	j	2aa8 <__sfp+0x1e>
    2aba:	00c41703          	lh	a4,12(s0)
    2abe:	eb39                	bnez	a4,2b14 <__sfp+0x8a>
    2ac0:	77c1                	lui	a5,0xffff0
    2ac2:	0785                	addi	a5,a5,1 # ffff0001 <_eusrstack+0xdffe8001>
    2ac4:	c45c                	sw	a5,12(s0)
    2ac6:	05840513          	addi	a0,s0,88
    2aca:	06042223          	sw	zero,100(s0)
    2ace:	20f1                	jal	2b9a <__retarget_lock_init_recursive>
    2ad0:	3781                	jal	2a10 <__sfp_lock_release>
    2ad2:	4621                	li	a2,8
    2ad4:	00042023          	sw	zero,0(s0)
    2ad8:	00042423          	sw	zero,8(s0)
    2adc:	00042223          	sw	zero,4(s0)
    2ae0:	00042823          	sw	zero,16(s0)
    2ae4:	00042a23          	sw	zero,20(s0)
    2ae8:	00042c23          	sw	zero,24(s0)
    2aec:	4581                	li	a1,0
    2aee:	05c40513          	addi	a0,s0,92
    2af2:	ee4fd0ef          	jal	ra,1d6 <memset>
    2af6:	02042a23          	sw	zero,52(s0)
    2afa:	02042c23          	sw	zero,56(s0)
    2afe:	04042423          	sw	zero,72(s0)
    2b02:	04042623          	sw	zero,76(s0)
    2b06:	40b2                	lw	ra,12(sp)
    2b08:	8522                	mv	a0,s0
    2b0a:	4422                	lw	s0,8(sp)
    2b0c:	4492                	lw	s1,4(sp)
    2b0e:	4902                	lw	s2,0(sp)
    2b10:	0141                	addi	sp,sp,16
    2b12:	8082                	ret
    2b14:	06840413          	addi	s0,s0,104
    2b18:	bf51                	j	2aac <__sfp+0x22>
    2b1a:	4591                	li	a1,4
    2b1c:	854a                	mv	a0,s2
    2b1e:	355d                	jal	29c4 <__sfmoreglue>
    2b20:	c088                	sw	a0,0(s1)
    2b22:	842a                	mv	s0,a0
    2b24:	f949                	bnez	a0,2ab6 <__sfp+0x2c>
    2b26:	35ed                	jal	2a10 <__sfp_lock_release>
    2b28:	47b1                	li	a5,12
    2b2a:	00f92023          	sw	a5,0(s2)
    2b2e:	bfe1                	j	2b06 <__sfp+0x7c>

00002b30 <_fwalk_reent>:
    2b30:	7179                	addi	sp,sp,-48
    2b32:	d422                	sw	s0,40(sp)
    2b34:	d04a                	sw	s2,32(sp)
    2b36:	ce4e                	sw	s3,28(sp)
    2b38:	cc52                	sw	s4,24(sp)
    2b3a:	c85a                	sw	s6,16(sp)
    2b3c:	c65e                	sw	s7,12(sp)
    2b3e:	d606                	sw	ra,44(sp)
    2b40:	d226                	sw	s1,36(sp)
    2b42:	ca56                	sw	s5,20(sp)
    2b44:	892a                	mv	s2,a0
    2b46:	8a2e                	mv	s4,a1
    2b48:	04850413          	addi	s0,a0,72
    2b4c:	4981                	li	s3,0
    2b4e:	4b05                	li	s6,1
    2b50:	5bfd                	li	s7,-1
    2b52:	4404                	lw	s1,8(s0)
    2b54:	00442a83          	lw	s5,4(s0)
    2b58:	1afd                	addi	s5,s5,-1
    2b5a:	020ad063          	bgez	s5,2b7a <_fwalk_reent+0x4a>
    2b5e:	4000                	lw	s0,0(s0)
    2b60:	f86d                	bnez	s0,2b52 <_fwalk_reent+0x22>
    2b62:	50b2                	lw	ra,44(sp)
    2b64:	5422                	lw	s0,40(sp)
    2b66:	5492                	lw	s1,36(sp)
    2b68:	5902                	lw	s2,32(sp)
    2b6a:	4a62                	lw	s4,24(sp)
    2b6c:	4ad2                	lw	s5,20(sp)
    2b6e:	4b42                	lw	s6,16(sp)
    2b70:	4bb2                	lw	s7,12(sp)
    2b72:	854e                	mv	a0,s3
    2b74:	49f2                	lw	s3,28(sp)
    2b76:	6145                	addi	sp,sp,48
    2b78:	8082                	ret
    2b7a:	00c4d783          	lhu	a5,12(s1)
    2b7e:	00fb7b63          	bgeu	s6,a5,2b94 <_fwalk_reent+0x64>
    2b82:	00e49783          	lh	a5,14(s1)
    2b86:	01778763          	beq	a5,s7,2b94 <_fwalk_reent+0x64>
    2b8a:	85a6                	mv	a1,s1
    2b8c:	854a                	mv	a0,s2
    2b8e:	9a02                	jalr	s4
    2b90:	00a9e9b3          	or	s3,s3,a0
    2b94:	06848493          	addi	s1,s1,104
    2b98:	b7c1                	j	2b58 <_fwalk_reent+0x28>

00002b9a <__retarget_lock_init_recursive>:
    2b9a:	8082                	ret

00002b9c <__retarget_lock_acquire_recursive>:
    2b9c:	8082                	ret

00002b9e <__retarget_lock_release_recursive>:
    2b9e:	8082                	ret

00002ba0 <__swhatbuf_r>:
    2ba0:	7159                	addi	sp,sp,-112
    2ba2:	d4a2                	sw	s0,104(sp)
    2ba4:	842e                	mv	s0,a1
    2ba6:	00e59583          	lh	a1,14(a1)
    2baa:	d2a6                	sw	s1,100(sp)
    2bac:	d0ca                	sw	s2,96(sp)
    2bae:	d686                	sw	ra,108(sp)
    2bb0:	84b2                	mv	s1,a2
    2bb2:	8936                	mv	s2,a3
    2bb4:	0205d363          	bgez	a1,2bda <__swhatbuf_r+0x3a>
    2bb8:	00c45783          	lhu	a5,12(s0)
    2bbc:	0807f793          	andi	a5,a5,128
    2bc0:	eb8d                	bnez	a5,2bf2 <__swhatbuf_r+0x52>
    2bc2:	40000713          	li	a4,1024
    2bc6:	50b6                	lw	ra,108(sp)
    2bc8:	5426                	lw	s0,104(sp)
    2bca:	00f92023          	sw	a5,0(s2)
    2bce:	c098                	sw	a4,0(s1)
    2bd0:	5906                	lw	s2,96(sp)
    2bd2:	5496                	lw	s1,100(sp)
    2bd4:	4501                	li	a0,0
    2bd6:	6165                	addi	sp,sp,112
    2bd8:	8082                	ret
    2bda:	0030                	addi	a2,sp,8
    2bdc:	26fd                	jal	2fca <_fstat_r>
    2bde:	fc054de3          	bltz	a0,2bb8 <__swhatbuf_r+0x18>
    2be2:	4732                	lw	a4,12(sp)
    2be4:	67bd                	lui	a5,0xf
    2be6:	8ff9                	and	a5,a5,a4
    2be8:	7779                	lui	a4,0xffffe
    2bea:	97ba                	add	a5,a5,a4
    2bec:	0017b793          	seqz	a5,a5
    2bf0:	bfc9                	j	2bc2 <__swhatbuf_r+0x22>
    2bf2:	4781                	li	a5,0
    2bf4:	04000713          	li	a4,64
    2bf8:	b7f9                	j	2bc6 <__swhatbuf_r+0x26>

00002bfa <__smakebuf_r>:
    2bfa:	00c5d783          	lhu	a5,12(a1)
    2bfe:	7179                	addi	sp,sp,-48
    2c00:	d422                	sw	s0,40(sp)
    2c02:	d606                	sw	ra,44(sp)
    2c04:	d226                	sw	s1,36(sp)
    2c06:	d04a                	sw	s2,32(sp)
    2c08:	ce4e                	sw	s3,28(sp)
    2c0a:	8b89                	andi	a5,a5,2
    2c0c:	842e                	mv	s0,a1
    2c0e:	cf91                	beqz	a5,2c2a <__smakebuf_r+0x30>
    2c10:	04740793          	addi	a5,s0,71
    2c14:	c01c                	sw	a5,0(s0)
    2c16:	c81c                	sw	a5,16(s0)
    2c18:	4785                	li	a5,1
    2c1a:	c85c                	sw	a5,20(s0)
    2c1c:	50b2                	lw	ra,44(sp)
    2c1e:	5422                	lw	s0,40(sp)
    2c20:	5492                	lw	s1,36(sp)
    2c22:	5902                	lw	s2,32(sp)
    2c24:	49f2                	lw	s3,28(sp)
    2c26:	6145                	addi	sp,sp,48
    2c28:	8082                	ret
    2c2a:	0074                	addi	a3,sp,12
    2c2c:	0030                	addi	a2,sp,8
    2c2e:	84aa                	mv	s1,a0
    2c30:	3f85                	jal	2ba0 <__swhatbuf_r>
    2c32:	49a2                	lw	s3,8(sp)
    2c34:	892a                	mv	s2,a0
    2c36:	8526                	mv	a0,s1
    2c38:	85ce                	mv	a1,s3
    2c3a:	2a91                	jal	2d8e <_malloc_r>
    2c3c:	ed01                	bnez	a0,2c54 <__smakebuf_r+0x5a>
    2c3e:	00c41783          	lh	a5,12(s0)
    2c42:	2007f713          	andi	a4,a5,512
    2c46:	fb79                	bnez	a4,2c1c <__smakebuf_r+0x22>
    2c48:	9bf1                	andi	a5,a5,-4
    2c4a:	0027e793          	ori	a5,a5,2
    2c4e:	00f41623          	sh	a5,12(s0)
    2c52:	bf7d                	j	2c10 <__smakebuf_r+0x16>
    2c54:	00000797          	auipc	a5,0x0
    2c58:	d6678793          	addi	a5,a5,-666 # 29ba <_cleanup_r>
    2c5c:	d49c                	sw	a5,40(s1)
    2c5e:	00c45783          	lhu	a5,12(s0)
    2c62:	c008                	sw	a0,0(s0)
    2c64:	c808                	sw	a0,16(s0)
    2c66:	0807e793          	ori	a5,a5,128
    2c6a:	00f41623          	sh	a5,12(s0)
    2c6e:	47b2                	lw	a5,12(sp)
    2c70:	01342a23          	sw	s3,20(s0)
    2c74:	cf89                	beqz	a5,2c8e <__smakebuf_r+0x94>
    2c76:	00e41583          	lh	a1,14(s0)
    2c7a:	8526                	mv	a0,s1
    2c7c:	2e9d                	jal	2ff2 <_isatty_r>
    2c7e:	c901                	beqz	a0,2c8e <__smakebuf_r+0x94>
    2c80:	00c45783          	lhu	a5,12(s0)
    2c84:	9bf1                	andi	a5,a5,-4
    2c86:	0017e793          	ori	a5,a5,1
    2c8a:	00f41623          	sh	a5,12(s0)
    2c8e:	00c45783          	lhu	a5,12(s0)
    2c92:	0127e533          	or	a0,a5,s2
    2c96:	00a41623          	sh	a0,12(s0)
    2c9a:	b749                	j	2c1c <__smakebuf_r+0x22>

00002c9c <_free_r>:
    2c9c:	cdd1                	beqz	a1,2d38 <_free_r+0x9c>
    2c9e:	ffc5a783          	lw	a5,-4(a1)
    2ca2:	1101                	addi	sp,sp,-32
    2ca4:	cc22                	sw	s0,24(sp)
    2ca6:	ce06                	sw	ra,28(sp)
    2ca8:	ffc58413          	addi	s0,a1,-4
    2cac:	0007d363          	bgez	a5,2cb2 <_free_r+0x16>
    2cb0:	943e                	add	s0,s0,a5
    2cb2:	c62a                	sw	a0,12(sp)
    2cb4:	2679                	jal	3042 <__malloc_lock>
    2cb6:	85818713          	addi	a4,gp,-1960 # 20000560 <__malloc_free_list>
    2cba:	431c                	lw	a5,0(a4)
    2cbc:	4532                	lw	a0,12(sp)
    2cbe:	eb81                	bnez	a5,2cce <_free_r+0x32>
    2cc0:	00042223          	sw	zero,4(s0)
    2cc4:	c300                	sw	s0,0(a4)
    2cc6:	4462                	lw	s0,24(sp)
    2cc8:	40f2                	lw	ra,28(sp)
    2cca:	6105                	addi	sp,sp,32
    2ccc:	aebd                	j	304a <__malloc_unlock>
    2cce:	00f47d63          	bgeu	s0,a5,2ce8 <_free_r+0x4c>
    2cd2:	4010                	lw	a2,0(s0)
    2cd4:	00c406b3          	add	a3,s0,a2
    2cd8:	00d79663          	bne	a5,a3,2ce4 <_free_r+0x48>
    2cdc:	4394                	lw	a3,0(a5)
    2cde:	43dc                	lw	a5,4(a5)
    2ce0:	96b2                	add	a3,a3,a2
    2ce2:	c014                	sw	a3,0(s0)
    2ce4:	c05c                	sw	a5,4(s0)
    2ce6:	bff9                	j	2cc4 <_free_r+0x28>
    2ce8:	873e                	mv	a4,a5
    2cea:	43dc                	lw	a5,4(a5)
    2cec:	c399                	beqz	a5,2cf2 <_free_r+0x56>
    2cee:	fef47de3          	bgeu	s0,a5,2ce8 <_free_r+0x4c>
    2cf2:	4314                	lw	a3,0(a4)
    2cf4:	00d70633          	add	a2,a4,a3
    2cf8:	00861f63          	bne	a2,s0,2d16 <_free_r+0x7a>
    2cfc:	4010                	lw	a2,0(s0)
    2cfe:	96b2                	add	a3,a3,a2
    2d00:	c314                	sw	a3,0(a4)
    2d02:	00d70633          	add	a2,a4,a3
    2d06:	fcc790e3          	bne	a5,a2,2cc6 <_free_r+0x2a>
    2d0a:	4390                	lw	a2,0(a5)
    2d0c:	43dc                	lw	a5,4(a5)
    2d0e:	96b2                	add	a3,a3,a2
    2d10:	c314                	sw	a3,0(a4)
    2d12:	c35c                	sw	a5,4(a4)
    2d14:	bf4d                	j	2cc6 <_free_r+0x2a>
    2d16:	00c47563          	bgeu	s0,a2,2d20 <_free_r+0x84>
    2d1a:	47b1                	li	a5,12
    2d1c:	c11c                	sw	a5,0(a0)
    2d1e:	b765                	j	2cc6 <_free_r+0x2a>
    2d20:	4010                	lw	a2,0(s0)
    2d22:	00c406b3          	add	a3,s0,a2
    2d26:	00d79663          	bne	a5,a3,2d32 <_free_r+0x96>
    2d2a:	4394                	lw	a3,0(a5)
    2d2c:	43dc                	lw	a5,4(a5)
    2d2e:	96b2                	add	a3,a3,a2
    2d30:	c014                	sw	a3,0(s0)
    2d32:	c05c                	sw	a5,4(s0)
    2d34:	c340                	sw	s0,4(a4)
    2d36:	bf41                	j	2cc6 <_free_r+0x2a>
    2d38:	8082                	ret

00002d3a <sbrk_aligned>:
    2d3a:	1141                	addi	sp,sp,-16
    2d3c:	c04a                	sw	s2,0(sp)
    2d3e:	85418913          	addi	s2,gp,-1964 # 2000055c <__malloc_sbrk_start>
    2d42:	00092783          	lw	a5,0(s2)
    2d46:	c422                	sw	s0,8(sp)
    2d48:	c226                	sw	s1,4(sp)
    2d4a:	c606                	sw	ra,12(sp)
    2d4c:	84aa                	mv	s1,a0
    2d4e:	842e                	mv	s0,a1
    2d50:	e789                	bnez	a5,2d5a <sbrk_aligned+0x20>
    2d52:	4581                	li	a1,0
    2d54:	2289                	jal	2e96 <_sbrk_r>
    2d56:	00a92023          	sw	a0,0(s2)
    2d5a:	85a2                	mv	a1,s0
    2d5c:	8526                	mv	a0,s1
    2d5e:	2a25                	jal	2e96 <_sbrk_r>
    2d60:	597d                	li	s2,-1
    2d62:	01251a63          	bne	a0,s2,2d76 <sbrk_aligned+0x3c>
    2d66:	547d                	li	s0,-1
    2d68:	40b2                	lw	ra,12(sp)
    2d6a:	8522                	mv	a0,s0
    2d6c:	4422                	lw	s0,8(sp)
    2d6e:	4492                	lw	s1,4(sp)
    2d70:	4902                	lw	s2,0(sp)
    2d72:	0141                	addi	sp,sp,16
    2d74:	8082                	ret
    2d76:	00350413          	addi	s0,a0,3
    2d7a:	9871                	andi	s0,s0,-4
    2d7c:	fe8506e3          	beq	a0,s0,2d68 <sbrk_aligned+0x2e>
    2d80:	40a405b3          	sub	a1,s0,a0
    2d84:	8526                	mv	a0,s1
    2d86:	2a01                	jal	2e96 <_sbrk_r>
    2d88:	ff2510e3          	bne	a0,s2,2d68 <sbrk_aligned+0x2e>
    2d8c:	bfe9                	j	2d66 <sbrk_aligned+0x2c>

00002d8e <_malloc_r>:
    2d8e:	1101                	addi	sp,sp,-32
    2d90:	ca26                	sw	s1,20(sp)
    2d92:	00358493          	addi	s1,a1,3
    2d96:	98f1                	andi	s1,s1,-4
    2d98:	c84a                	sw	s2,16(sp)
    2d9a:	ce06                	sw	ra,28(sp)
    2d9c:	cc22                	sw	s0,24(sp)
    2d9e:	c64e                	sw	s3,12(sp)
    2da0:	04a1                	addi	s1,s1,8
    2da2:	47b1                	li	a5,12
    2da4:	892a                	mv	s2,a0
    2da6:	06f4f363          	bgeu	s1,a5,2e0c <_malloc_r+0x7e>
    2daa:	44b1                	li	s1,12
    2dac:	06b4e263          	bltu	s1,a1,2e10 <_malloc_r+0x82>
    2db0:	854a                	mv	a0,s2
    2db2:	2c41                	jal	3042 <__malloc_lock>
    2db4:	85818993          	addi	s3,gp,-1960 # 20000560 <__malloc_free_list>
    2db8:	0009a783          	lw	a5,0(s3)
    2dbc:	843e                	mv	s0,a5
    2dbe:	e425                	bnez	s0,2e26 <_malloc_r+0x98>
    2dc0:	85a6                	mv	a1,s1
    2dc2:	854a                	mv	a0,s2
    2dc4:	3f9d                	jal	2d3a <sbrk_aligned>
    2dc6:	57fd                	li	a5,-1
    2dc8:	842a                	mv	s0,a0
    2dca:	0cf51463          	bne	a0,a5,2e92 <_malloc_r+0x104>
    2dce:	0009a403          	lw	s0,0(s3)
    2dd2:	87a2                	mv	a5,s0
    2dd4:	e7d5                	bnez	a5,2e80 <_malloc_r+0xf2>
    2dd6:	00042983          	lw	s3,0(s0)
    2dda:	4581                	li	a1,0
    2ddc:	854a                	mv	a0,s2
    2dde:	99a2                	add	s3,s3,s0
    2de0:	285d                	jal	2e96 <_sbrk_r>
    2de2:	0aa99263          	bne	s3,a0,2e86 <_malloc_r+0xf8>
    2de6:	401c                	lw	a5,0(s0)
    2de8:	048d                	addi	s1,s1,3
    2dea:	8c9d                	sub	s1,s1,a5
    2dec:	98f1                	andi	s1,s1,-4
    2dee:	04a1                	addi	s1,s1,8
    2df0:	47b1                	li	a5,12
    2df2:	00f4f363          	bgeu	s1,a5,2df8 <_malloc_r+0x6a>
    2df6:	44b1                	li	s1,12
    2df8:	85a6                	mv	a1,s1
    2dfa:	854a                	mv	a0,s2
    2dfc:	3f3d                	jal	2d3a <sbrk_aligned>
    2dfe:	57fd                	li	a5,-1
    2e00:	08f50363          	beq	a0,a5,2e86 <_malloc_r+0xf8>
    2e04:	401c                	lw	a5,0(s0)
    2e06:	97a6                	add	a5,a5,s1
    2e08:	c01c                	sw	a5,0(s0)
    2e0a:	a83d                	j	2e48 <_malloc_r+0xba>
    2e0c:	fa04d0e3          	bgez	s1,2dac <_malloc_r+0x1e>
    2e10:	47b1                	li	a5,12
    2e12:	00f92023          	sw	a5,0(s2)
    2e16:	4501                	li	a0,0
    2e18:	40f2                	lw	ra,28(sp)
    2e1a:	4462                	lw	s0,24(sp)
    2e1c:	44d2                	lw	s1,20(sp)
    2e1e:	4942                	lw	s2,16(sp)
    2e20:	49b2                	lw	s3,12(sp)
    2e22:	6105                	addi	sp,sp,32
    2e24:	8082                	ret
    2e26:	4014                	lw	a3,0(s0)
    2e28:	8e85                	sub	a3,a3,s1
    2e2a:	0406c863          	bltz	a3,2e7a <_malloc_r+0xec>
    2e2e:	472d                	li	a4,11
    2e30:	02d77d63          	bgeu	a4,a3,2e6a <_malloc_r+0xdc>
    2e34:	c004                	sw	s1,0(s0)
    2e36:	00940733          	add	a4,s0,s1
    2e3a:	02879663          	bne	a5,s0,2e66 <_malloc_r+0xd8>
    2e3e:	00e9a023          	sw	a4,0(s3)
    2e42:	405c                	lw	a5,4(s0)
    2e44:	c314                	sw	a3,0(a4)
    2e46:	c35c                	sw	a5,4(a4)
    2e48:	854a                	mv	a0,s2
    2e4a:	2401                	jal	304a <__malloc_unlock>
    2e4c:	00b40513          	addi	a0,s0,11
    2e50:	00440793          	addi	a5,s0,4
    2e54:	9961                	andi	a0,a0,-8
    2e56:	40f50733          	sub	a4,a0,a5
    2e5a:	faf50fe3          	beq	a0,a5,2e18 <_malloc_r+0x8a>
    2e5e:	943a                	add	s0,s0,a4
    2e60:	8f89                	sub	a5,a5,a0
    2e62:	c01c                	sw	a5,0(s0)
    2e64:	bf55                	j	2e18 <_malloc_r+0x8a>
    2e66:	c3d8                	sw	a4,4(a5)
    2e68:	bfe9                	j	2e42 <_malloc_r+0xb4>
    2e6a:	4058                	lw	a4,4(s0)
    2e6c:	00879563          	bne	a5,s0,2e76 <_malloc_r+0xe8>
    2e70:	00e9a023          	sw	a4,0(s3)
    2e74:	bfd1                	j	2e48 <_malloc_r+0xba>
    2e76:	c3d8                	sw	a4,4(a5)
    2e78:	bfc1                	j	2e48 <_malloc_r+0xba>
    2e7a:	87a2                	mv	a5,s0
    2e7c:	4040                	lw	s0,4(s0)
    2e7e:	b781                	j	2dbe <_malloc_r+0x30>
    2e80:	843e                	mv	s0,a5
    2e82:	43dc                	lw	a5,4(a5)
    2e84:	bf81                	j	2dd4 <_malloc_r+0x46>
    2e86:	47b1                	li	a5,12
    2e88:	00f92023          	sw	a5,0(s2)
    2e8c:	854a                	mv	a0,s2
    2e8e:	2a75                	jal	304a <__malloc_unlock>
    2e90:	b759                	j	2e16 <_malloc_r+0x88>
    2e92:	c104                	sw	s1,0(a0)
    2e94:	bf55                	j	2e48 <_malloc_r+0xba>

00002e96 <_sbrk_r>:
    2e96:	1141                	addi	sp,sp,-16
    2e98:	c422                	sw	s0,8(sp)
    2e9a:	842a                	mv	s0,a0
    2e9c:	852e                	mv	a0,a1
    2e9e:	8401ae23          	sw	zero,-1956(gp) # 20000564 <errno>
    2ea2:	c606                	sw	ra,12(sp)
    2ea4:	c60fd0ef          	jal	ra,304 <_sbrk>
    2ea8:	57fd                	li	a5,-1
    2eaa:	00f51663          	bne	a0,a5,2eb6 <_sbrk_r+0x20>
    2eae:	85c1a783          	lw	a5,-1956(gp) # 20000564 <errno>
    2eb2:	c391                	beqz	a5,2eb6 <_sbrk_r+0x20>
    2eb4:	c01c                	sw	a5,0(s0)
    2eb6:	40b2                	lw	ra,12(sp)
    2eb8:	4422                	lw	s0,8(sp)
    2eba:	0141                	addi	sp,sp,16
    2ebc:	8082                	ret

00002ebe <__sread>:
    2ebe:	1141                	addi	sp,sp,-16
    2ec0:	c422                	sw	s0,8(sp)
    2ec2:	842e                	mv	s0,a1
    2ec4:	00e59583          	lh	a1,14(a1)
    2ec8:	c606                	sw	ra,12(sp)
    2eca:	2261                	jal	3052 <_read_r>
    2ecc:	00054963          	bltz	a0,2ede <__sread+0x20>
    2ed0:	487c                	lw	a5,84(s0)
    2ed2:	97aa                	add	a5,a5,a0
    2ed4:	c87c                	sw	a5,84(s0)
    2ed6:	40b2                	lw	ra,12(sp)
    2ed8:	4422                	lw	s0,8(sp)
    2eda:	0141                	addi	sp,sp,16
    2edc:	8082                	ret
    2ede:	00c45783          	lhu	a5,12(s0)
    2ee2:	777d                	lui	a4,0xfffff
    2ee4:	177d                	addi	a4,a4,-1 # ffffefff <_eusrstack+0xdfff6fff>
    2ee6:	8ff9                	and	a5,a5,a4
    2ee8:	00f41623          	sh	a5,12(s0)
    2eec:	b7ed                	j	2ed6 <__sread+0x18>

00002eee <__swrite>:
    2eee:	00c5d783          	lhu	a5,12(a1)
    2ef2:	1101                	addi	sp,sp,-32
    2ef4:	cc22                	sw	s0,24(sp)
    2ef6:	ca26                	sw	s1,20(sp)
    2ef8:	c84a                	sw	s2,16(sp)
    2efa:	c64e                	sw	s3,12(sp)
    2efc:	ce06                	sw	ra,28(sp)
    2efe:	1007f793          	andi	a5,a5,256
    2f02:	84aa                	mv	s1,a0
    2f04:	842e                	mv	s0,a1
    2f06:	8932                	mv	s2,a2
    2f08:	89b6                	mv	s3,a3
    2f0a:	c791                	beqz	a5,2f16 <__swrite+0x28>
    2f0c:	00e59583          	lh	a1,14(a1)
    2f10:	4689                	li	a3,2
    2f12:	4601                	li	a2,0
    2f14:	2211                	jal	3018 <_lseek_r>
    2f16:	00c45783          	lhu	a5,12(s0)
    2f1a:	777d                	lui	a4,0xfffff
    2f1c:	177d                	addi	a4,a4,-1 # ffffefff <_eusrstack+0xdfff6fff>
    2f1e:	8ff9                	and	a5,a5,a4
    2f20:	00e41583          	lh	a1,14(s0)
    2f24:	00f41623          	sh	a5,12(s0)
    2f28:	4462                	lw	s0,24(sp)
    2f2a:	40f2                	lw	ra,28(sp)
    2f2c:	86ce                	mv	a3,s3
    2f2e:	864a                	mv	a2,s2
    2f30:	49b2                	lw	s3,12(sp)
    2f32:	4942                	lw	s2,16(sp)
    2f34:	8526                	mv	a0,s1
    2f36:	44d2                	lw	s1,20(sp)
    2f38:	6105                	addi	sp,sp,32
    2f3a:	a83d                	j	2f78 <_write_r>

00002f3c <__sseek>:
    2f3c:	1141                	addi	sp,sp,-16
    2f3e:	c422                	sw	s0,8(sp)
    2f40:	842e                	mv	s0,a1
    2f42:	00e59583          	lh	a1,14(a1)
    2f46:	c606                	sw	ra,12(sp)
    2f48:	28c1                	jal	3018 <_lseek_r>
    2f4a:	577d                	li	a4,-1
    2f4c:	00c45783          	lhu	a5,12(s0)
    2f50:	00e51b63          	bne	a0,a4,2f66 <__sseek+0x2a>
    2f54:	777d                	lui	a4,0xfffff
    2f56:	177d                	addi	a4,a4,-1 # ffffefff <_eusrstack+0xdfff6fff>
    2f58:	8ff9                	and	a5,a5,a4
    2f5a:	00f41623          	sh	a5,12(s0)
    2f5e:	40b2                	lw	ra,12(sp)
    2f60:	4422                	lw	s0,8(sp)
    2f62:	0141                	addi	sp,sp,16
    2f64:	8082                	ret
    2f66:	6705                	lui	a4,0x1
    2f68:	8fd9                	or	a5,a5,a4
    2f6a:	00f41623          	sh	a5,12(s0)
    2f6e:	c868                	sw	a0,84(s0)
    2f70:	b7fd                	j	2f5e <__sseek+0x22>

00002f72 <__sclose>:
    2f72:	00e59583          	lh	a1,14(a1)
    2f76:	a03d                	j	2fa4 <_close_r>

00002f78 <_write_r>:
    2f78:	1141                	addi	sp,sp,-16
    2f7a:	c422                	sw	s0,8(sp)
    2f7c:	842a                	mv	s0,a0
    2f7e:	852e                	mv	a0,a1
    2f80:	85b2                	mv	a1,a2
    2f82:	8636                	mv	a2,a3
    2f84:	8401ae23          	sw	zero,-1956(gp) # 20000564 <errno>
    2f88:	c606                	sw	ra,12(sp)
    2f8a:	b24fd0ef          	jal	ra,2ae <_write>
    2f8e:	57fd                	li	a5,-1
    2f90:	00f51663          	bne	a0,a5,2f9c <_write_r+0x24>
    2f94:	85c1a783          	lw	a5,-1956(gp) # 20000564 <errno>
    2f98:	c391                	beqz	a5,2f9c <_write_r+0x24>
    2f9a:	c01c                	sw	a5,0(s0)
    2f9c:	40b2                	lw	ra,12(sp)
    2f9e:	4422                	lw	s0,8(sp)
    2fa0:	0141                	addi	sp,sp,16
    2fa2:	8082                	ret

00002fa4 <_close_r>:
    2fa4:	1141                	addi	sp,sp,-16
    2fa6:	c422                	sw	s0,8(sp)
    2fa8:	842a                	mv	s0,a0
    2faa:	852e                	mv	a0,a1
    2fac:	8401ae23          	sw	zero,-1956(gp) # 20000564 <errno>
    2fb0:	c606                	sw	ra,12(sp)
    2fb2:	20e9                	jal	307c <_close>
    2fb4:	57fd                	li	a5,-1
    2fb6:	00f51663          	bne	a0,a5,2fc2 <_close_r+0x1e>
    2fba:	85c1a783          	lw	a5,-1956(gp) # 20000564 <errno>
    2fbe:	c391                	beqz	a5,2fc2 <_close_r+0x1e>
    2fc0:	c01c                	sw	a5,0(s0)
    2fc2:	40b2                	lw	ra,12(sp)
    2fc4:	4422                	lw	s0,8(sp)
    2fc6:	0141                	addi	sp,sp,16
    2fc8:	8082                	ret

00002fca <_fstat_r>:
    2fca:	1141                	addi	sp,sp,-16
    2fcc:	c422                	sw	s0,8(sp)
    2fce:	842a                	mv	s0,a0
    2fd0:	852e                	mv	a0,a1
    2fd2:	85b2                	mv	a1,a2
    2fd4:	8401ae23          	sw	zero,-1956(gp) # 20000564 <errno>
    2fd8:	c606                	sw	ra,12(sp)
    2fda:	207d                	jal	3088 <_fstat>
    2fdc:	57fd                	li	a5,-1
    2fde:	00f51663          	bne	a0,a5,2fea <_fstat_r+0x20>
    2fe2:	85c1a783          	lw	a5,-1956(gp) # 20000564 <errno>
    2fe6:	c391                	beqz	a5,2fea <_fstat_r+0x20>
    2fe8:	c01c                	sw	a5,0(s0)
    2fea:	40b2                	lw	ra,12(sp)
    2fec:	4422                	lw	s0,8(sp)
    2fee:	0141                	addi	sp,sp,16
    2ff0:	8082                	ret

00002ff2 <_isatty_r>:
    2ff2:	1141                	addi	sp,sp,-16
    2ff4:	c422                	sw	s0,8(sp)
    2ff6:	842a                	mv	s0,a0
    2ff8:	852e                	mv	a0,a1
    2ffa:	8401ae23          	sw	zero,-1956(gp) # 20000564 <errno>
    2ffe:	c606                	sw	ra,12(sp)
    3000:	2851                	jal	3094 <_isatty>
    3002:	57fd                	li	a5,-1
    3004:	00f51663          	bne	a0,a5,3010 <_isatty_r+0x1e>
    3008:	85c1a783          	lw	a5,-1956(gp) # 20000564 <errno>
    300c:	c391                	beqz	a5,3010 <_isatty_r+0x1e>
    300e:	c01c                	sw	a5,0(s0)
    3010:	40b2                	lw	ra,12(sp)
    3012:	4422                	lw	s0,8(sp)
    3014:	0141                	addi	sp,sp,16
    3016:	8082                	ret

00003018 <_lseek_r>:
    3018:	1141                	addi	sp,sp,-16
    301a:	c422                	sw	s0,8(sp)
    301c:	842a                	mv	s0,a0
    301e:	852e                	mv	a0,a1
    3020:	85b2                	mv	a1,a2
    3022:	8636                	mv	a2,a3
    3024:	8401ae23          	sw	zero,-1956(gp) # 20000564 <errno>
    3028:	c606                	sw	ra,12(sp)
    302a:	289d                	jal	30a0 <_lseek>
    302c:	57fd                	li	a5,-1
    302e:	00f51663          	bne	a0,a5,303a <_lseek_r+0x22>
    3032:	85c1a783          	lw	a5,-1956(gp) # 20000564 <errno>
    3036:	c391                	beqz	a5,303a <_lseek_r+0x22>
    3038:	c01c                	sw	a5,0(s0)
    303a:	40b2                	lw	ra,12(sp)
    303c:	4422                	lw	s0,8(sp)
    303e:	0141                	addi	sp,sp,16
    3040:	8082                	ret

00003042 <__malloc_lock>:
    3042:	84818513          	addi	a0,gp,-1976 # 20000550 <__lock___malloc_recursive_mutex>
    3046:	b57ff06f          	j	2b9c <__retarget_lock_acquire_recursive>

0000304a <__malloc_unlock>:
    304a:	84818513          	addi	a0,gp,-1976 # 20000550 <__lock___malloc_recursive_mutex>
    304e:	b51ff06f          	j	2b9e <__retarget_lock_release_recursive>

00003052 <_read_r>:
    3052:	1141                	addi	sp,sp,-16
    3054:	c422                	sw	s0,8(sp)
    3056:	842a                	mv	s0,a0
    3058:	852e                	mv	a0,a1
    305a:	85b2                	mv	a1,a2
    305c:	8636                	mv	a2,a3
    305e:	8401ae23          	sw	zero,-1956(gp) # 20000564 <errno>
    3062:	c606                	sw	ra,12(sp)
    3064:	20a1                	jal	30ac <_read>
    3066:	57fd                	li	a5,-1
    3068:	00f51663          	bne	a0,a5,3074 <_read_r+0x22>
    306c:	85c1a783          	lw	a5,-1956(gp) # 20000564 <errno>
    3070:	c391                	beqz	a5,3074 <_read_r+0x22>
    3072:	c01c                	sw	a5,0(s0)
    3074:	40b2                	lw	ra,12(sp)
    3076:	4422                	lw	s0,8(sp)
    3078:	0141                	addi	sp,sp,16
    307a:	8082                	ret

0000307c <_close>:
    307c:	05800793          	li	a5,88
    3080:	84f1ae23          	sw	a5,-1956(gp) # 20000564 <errno>
    3084:	557d                	li	a0,-1
    3086:	8082                	ret

00003088 <_fstat>:
    3088:	05800793          	li	a5,88
    308c:	84f1ae23          	sw	a5,-1956(gp) # 20000564 <errno>
    3090:	557d                	li	a0,-1
    3092:	8082                	ret

00003094 <_isatty>:
    3094:	05800793          	li	a5,88
    3098:	84f1ae23          	sw	a5,-1956(gp) # 20000564 <errno>
    309c:	4501                	li	a0,0
    309e:	8082                	ret

000030a0 <_lseek>:
    30a0:	05800793          	li	a5,88
    30a4:	84f1ae23          	sw	a5,-1956(gp) # 20000564 <errno>
    30a8:	557d                	li	a0,-1
    30aa:	8082                	ret

000030ac <_read>:
    30ac:	05800793          	li	a5,88
    30b0:	84f1ae23          	sw	a5,-1956(gp) # 20000564 <errno>
    30b4:	557d                	li	a0,-1
    30b6:	8082                	ret
    30b8:	eb86                	fsw	ft1,212(sp)
    30ba:	ffff                	.2byte	0xffff
    30bc:	ea2e                	fsw	fa1,20(sp)
    30be:	ffff                	.2byte	0xffff
    30c0:	ea44                	fsw	fs1,20(a2)
    30c2:	ffff                	.2byte	0xffff
    30c4:	eacc                	fsw	fa1,20(a3)
    30c6:	ffff                	.2byte	0xffff
    30c8:	ea44                	fsw	fs1,20(a2)
    30ca:	ffff                	.2byte	0xffff
    30cc:	e9f8                	fsw	fa4,84(a1)
    30ce:	ffff                	.2byte	0xffff
    30d0:	e7d8                	fsw	fa4,12(a5)
    30d2:	ffff                	.2byte	0xffff
    30d4:	ea44                	fsw	fs1,20(a2)
    30d6:	ffff                	.2byte	0xffff
    30d8:	ea02                	fsw	ft0,20(sp)
    30da:	ffff                	.2byte	0xffff
    30dc:	ea1e                	fsw	ft7,20(sp)
    30de:	ffff                	.2byte	0xffff
    30e0:	eb6e                	fsw	fs11,148(sp)
    30e2:	ffff                	.2byte	0xffff
    30e4:	e770                	fsw	fa2,76(a4)
    30e6:	ffff                	.2byte	0xffff
    30e8:	e99c                	fsw	fa5,16(a1)
    30ea:	ffff                	.2byte	0xffff
    30ec:	e7c6                	fsw	fa7,204(sp)
    30ee:	ffff                	.2byte	0xffff
    30f0:	e7f6                	fsw	ft9,204(sp)
    30f2:	ffff                	.2byte	0xffff
    30f4:	e870                	fsw	fa2,84(s0)
    30f6:	ffff                	.2byte	0xffff
    30f8:	e99c                	fsw	fa5,16(a1)
    30fa:	ffff                	.2byte	0xffff
    30fc:	e99c                	fsw	fa5,16(a1)
    30fe:	ffff                	.2byte	0xffff
    3100:	e8ea                	fsw	fs10,80(sp)
    3102:	ffff                	.2byte	0xffff
    3104:	e8fe                	fsw	ft11,80(sp)
    3106:	ffff                	.2byte	0xffff

00003108 <MyQuaDesc>:
    3108:	060a 0200 ffff 40ff 0001 0000               .......@....

00003114 <MySerNumInfo>:
    3114:	0316 0030 0031 0032 0033 0034 0035 0036     ..0.1.2.3.4.5.6.
    3124:	0037 0038 0039 0000                         7.8.9...

0000312c <MyProdInfo>:
    312c:	0316 0055 0053 0042 0020 0053 0065 0072     ..U.S.B. .S.e.r.
    313c:	0069 0061 006c 0000                         i.a.l...

00003144 <MyManuInfo>:
    3144:	030e 0077 0063 0068 002e 0063 006e 0000     ..w.c.h...c.n...

00003154 <MyCfgDescr_HS>:
    3154:	0209 0043 0102 8000 0932 0004 0100 0202     ..C.....2.......
    3164:	0001 2405 1000 0501 0124 0100 2404 0202     ...$....$....$..
    3174:	2405 0006 0701 8305 4003 0100 0409 0001     .$.......@......
    3184:	0a02 0000 0700 0205 0002 0002 0507 0282     ................
    3194:	0200 0000                                   ....

00003198 <MyCfgDescr_FS>:
    3198:	0209 0043 0102 8000 0932 0004 0100 0202     ..C.....2.......
    31a8:	0001 2405 1000 0501 0124 0100 2404 0202     ...$....$....$..
    31b8:	2405 0006 0701 8305 4003 0100 0409 0001     .$.......@......
    31c8:	0a02 0000 0700 0205 4002 0000 0507 0282     .........@......
    31d8:	0040 0000                                   @...

000031dc <MyDevDescr>:
    31dc:	0112 0200 0002 4000 1a86 fe0c 0001 0201     .......@........
    31ec:	0103 0000 6168 6472 6166 6c75 0d74 0000     ....hardfault...
    31fc:	6948 7420 6568 6572 0a21 0000               Hi there!...

00003208 <__sf_fake_stderr>:
	...

00003228 <__sf_fake_stdout>:
	...

00003248 <__sf_fake_stdin>:
	...
